
build/Debug/oot.elf:     file format elf32-bigmips


Disassembly of section .text:

80600000 <comboDoorIsUnlocked>:
80600000:	948200a4 	lhu	v0,164(a0)
80600004:	27bdffe0 	addiu	sp,sp,-32
80600008:	24030004 	li	v1,4
8060000c:	afb10018 	sw	s1,24(sp)
80600010:	afb00014 	sw	s0,20(sp)
80600014:	afbf001c 	sw	ra,28(sp)
80600018:	00808825 	move	s1,a0
8060001c:	1443000d 	bne	v0,v1,80600054 <comboDoorIsUnlocked+0x54>
80600020:	00a08025 	move	s0,a1
80600024:	24020017 	li	v0,23
80600028:	14a20011 	bne	a1,v0,80600070 <comboDoorIsUnlocked+0x70>
8060002c:	8fbf001c 	lw	ra,28(sp)
80600030:	0c181783 	jal	80605e0c <comboConfig>
80600034:	24040001 	li	a0,1
80600038:	1440000d 	bnez	v0,80600070 <comboDoorIsUnlocked+0x70>
8060003c:	8fbf001c 	lw	ra,28(sp)
80600040:	8fb10018 	lw	s1,24(sp)
80600044:	8fb00014 	lw	s0,20(sp)
80600048:	24020001 	li	v0,1
8060004c:	03e00008 	jr	ra
80600050:	27bd0020 	addiu	sp,sp,32
80600054:	24030005 	li	v1,5
80600058:	5043000b 	beql	v0,v1,80600088 <comboDoorIsUnlocked+0x88>
8060005c:	24020015 	li	v0,21
80600060:	2403000a 	li	v1,10
80600064:	5043000c 	beql	v0,v1,80600098 <comboDoorIsUnlocked+0x98>
80600068:	24020014 	li	v0,20
8060006c:	8fbf001c 	lw	ra,28(sp)
80600070:	02002825 	move	a1,s0
80600074:	02202025 	move	a0,s1
80600078:	8fb00014 	lw	s0,20(sp)
8060007c:	8fb10018 	lw	s1,24(sp)
80600080:	08008127 	j	8002049c <GetSwitchFlag>
80600084:	27bd0020 	addiu	sp,sp,32
80600088:	14a2fff9 	bne	a1,v0,80600070 <comboDoorIsUnlocked+0x70>
8060008c:	8fbf001c 	lw	ra,28(sp)
80600090:	1000ffec 	b	80600044 <comboDoorIsUnlocked+0x44>
80600094:	8fb10018 	lw	s1,24(sp)
80600098:	14a2fff5 	bne	a1,v0,80600070 <comboDoorIsUnlocked+0x70>
8060009c:	8fbf001c 	lw	ra,28(sp)
806000a0:	0c181783 	jal	80605e0c <comboConfig>
806000a4:	00002025 	move	a0,zero
806000a8:	1040fff1 	beqz	v0,80600070 <comboDoorIsUnlocked+0x70>
806000ac:	8fbf001c 	lw	ra,28(sp)
806000b0:	1000ffe4 	b	80600044 <comboDoorIsUnlocked+0x44>
806000b4:	8fb10018 	lw	s1,24(sp)

806000b8 <comboCreateSaveMM>:
806000b8:	27bdffd0 	addiu	sp,sp,-48
806000bc:	afb00010 	sw	s0,16(sp)
806000c0:	3c108062 	lui	s0,0x8062
806000c4:	26046a90 	addiu	a0,s0,27280
806000c8:	24053ca0 	li	a1,15520
806000cc:	afbf002c 	sw	ra,44(sp)
806000d0:	afb10014 	sw	s1,20(sp)
806000d4:	afb60028 	sw	s6,40(sp)
806000d8:	afb50024 	sw	s5,36(sp)
806000dc:	afb40020 	sw	s4,32(sp)
806000e0:	afb3001c 	sw	s3,28(sp)
806000e4:	0c000ba0 	jal	80002e80 <bzero>
806000e8:	afb20018 	sw	s2,24(sp)
806000ec:	3402d800 	li	v0,0xd800
806000f0:	ae026a90 	sw	v0,27280(s0)
806000f4:	26106a90 	addiu	s0,s0,27280
806000f8:	24020001 	li	v0,1
806000fc:	a2020005 	sb	v0,5(s0)
80600100:	a2020022 	sb	v0,34(s0)
80600104:	24020004 	li	v0,4
80600108:	a2020020 	sb	v0,32(s0)
8060010c:	24023fff 	li	v0,16383
80600110:	a602000c 	sh	v0,12(s0)
80600114:	3c020030 	lui	v0,0x30
80600118:	24420030 	addiu	v0,v0,48
8060011c:	ae020034 	sw	v0,52(s0)
80600120:	2402ff00 	li	v0,-256
80600124:	a6020044 	sh	v0,68(s0)
80600128:	3c02ff00 	lui	v0,0xff00
8060012c:	24420008 	addiu	v0,v0,8
80600130:	ae020048 	sw	v0,72(s0)
80600134:	3c020035 	lui	v0,0x35
80600138:	3442fa74 	ori	v0,v0,0xfa74
8060013c:	ae021000 	sw	v0,4096(s0)
80600140:	3c020101 	lui	v0,0x101
80600144:	3442fafb 	ori	v0,v0,0xfafb
80600148:	3c058061 	lui	a1,0x8061
8060014c:	3c048062 	lui	a0,0x8062
80600150:	ae021004 	sw	v0,4100(s0)
80600154:	24060022 	li	a2,34
80600158:	24028aac 	li	v0,-30036
8060015c:	24a5d790 	addiu	a1,a1,-10352
80600160:	24846adc 	addiu	a0,a0,27356
80600164:	ae000008 	sw	zero,8(s0)
80600168:	0c18349e 	jal	8060d278 <memcpy>
8060016c:	a6021008 	sh	v0,4104(s0)
80600170:	3c058061 	lui	a1,0x8061
80600174:	3c048062 	lui	a0,0x8062
80600178:	24060088 	li	a2,136
8060017c:	24a5d708 	addiu	a1,a1,-10488
80600180:	0c18349e 	jal	8060d278 <memcpy>
80600184:	24846b00 	addiu	a0,a0,27392
80600188:	3c058061 	lui	a1,0x8061
8060018c:	3c048062 	lui	a0,0x8062
80600190:	24060006 	li	a2,6
80600194:	24a5d700 	addiu	a1,a1,-10496
80600198:	0c18349e 	jal	8060d278 <memcpy>
8060019c:	24846ab4 	addiu	a0,a0,27316
806001a0:	3c038012 	lui	v1,0x8012
806001a4:	2463a5d0 	addiu	v1,v1,-23088
806001a8:	02008825 	move	s1,s0
806001ac:	24660008 	addiu	a2,v1,8
806001b0:	02002825 	move	a1,s0
806001b4:	240700e4 	li	a3,228
806001b8:	240800ea 	li	t0,234
806001bc:	90620024 	lbu	v0,36(v1)
806001c0:	2c44000a 	sltiu	a0,v0,10
806001c4:	54800009 	bnezl	a0,806001ec <comboCreateSaveMM+0x134>
806001c8:	24630001 	addiu	v1,v1,1
806001cc:	24440055 	addiu	a0,v0,85
806001d0:	308400ff 	andi	a0,a0,0xff
806001d4:	2c84001a 	sltiu	a0,a0,26
806001d8:	1080004f 	beqz	a0,80600318 <comboCreateSaveMM+0x260>
806001dc:	2444003b 	addiu	a0,v0,59
806001e0:	2442005f 	addiu	v0,v0,95
806001e4:	304200ff 	andi	v0,v0,0xff
806001e8:	24630001 	addiu	v1,v1,1
806001ec:	a0a2002c 	sb	v0,44(a1)
806001f0:	1466fff2 	bne	v1,a2,806001bc <comboCreateSaveMM+0x104>
806001f4:	24a50001 	addiu	a1,a1,1
806001f8:	92020f33 	lbu	v0,3891(s0)
806001fc:	26150009 	addiu	s5,s0,9
80600200:	34420004 	ori	v0,v0,0x4
80600204:	a2020f33 	sb	v0,3891(s0)
80600208:	92020f08 	lbu	v0,3848(s0)
8060020c:	02009025 	move	s2,s0
80600210:	34420010 	ori	v0,v0,0x10
80600214:	a2020f08 	sb	v0,3848(s0)
80600218:	24021d4c 	li	v0,7500
8060021c:	ae020e6c 	sw	v0,3692(s0)
80600220:	ae020e70 	sw	v0,3696(s0)
80600224:	24021db0 	li	v0,7600
80600228:	ae020e74 	sw	v0,3700(s0)
8060022c:	3c020013 	lui	v0,0x13
80600230:	2442000a 	addiu	v0,v0,10
80600234:	ae020ee8 	sw	v0,3816(s0)
80600238:	24021770 	li	v0,6000
8060023c:	ae020eec 	sw	v0,3820(s0)
80600240:	3c02000a 	lui	v0,0xa
80600244:	24420027 	addiu	v0,v0,39
80600248:	ae020ef4 	sw	v0,3828(s0)
8060024c:	24160003 	li	s6,3
80600250:	0240a025 	move	s4,s2
80600254:	00009825 	move	s3,zero
80600258:	2405000a 	li	a1,10
8060025c:	0c018efc 	jal	80063bf0 <RandIntRange>
80600260:	00002025 	move	a0,zero
80600264:	26730001 	addiu	s3,s3,1
80600268:	a2820fec 	sb	v0,4076(s4)
8060026c:	1676fffa 	bne	s3,s6,80600258 <comboCreateSaveMM+0x1a0>
80600270:	26940001 	addiu	s4,s4,1
80600274:	26520003 	addiu	s2,s2,3
80600278:	56b2fff6 	bnel	s5,s2,80600254 <comboCreateSaveMM+0x19c>
8060027c:	0240a025 	move	s4,s2
80600280:	24020001 	li	v0,1
80600284:	a2020ffb 	sb	v0,4091(s0)
80600288:	3c020203 	lui	v0,0x203
8060028c:	24420405 	addiu	v0,v0,1029
80600290:	ae020ffc 	sw	v0,4092(s0)
80600294:	26130005 	addiu	s3,s0,5
80600298:	02009025 	move	s2,s0
8060029c:	00002025 	move	a0,zero
806002a0:	0c018efc 	jal	80063bf0 <RandIntRange>
806002a4:	24050005 	li	a1,5
806002a8:	02021021 	addu	v0,s0,v0
806002ac:	80440ffb 	lb	a0,4091(v0)
806002b0:	82430ffb 	lb	v1,4091(s2)
806002b4:	a2440ffb 	sb	a0,4091(s2)
806002b8:	26520001 	addiu	s2,s2,1
806002bc:	1672fff7 	bne	s3,s2,8060029c <comboCreateSaveMM+0x1e4>
806002c0:	a0430ffb 	sb	v1,4091(v0)
806002c4:	26100006 	addiu	s0,s0,6
806002c8:	241200ff 	li	s2,255
806002cc:	24050010 	li	a1,16
806002d0:	0c018efc 	jal	80063bf0 <RandIntRange>
806002d4:	00002025 	move	a0,zero
806002d8:	30420003 	andi	v0,v0,0x3
806002dc:	1052fffb 	beq	v0,s2,806002cc <comboCreateSaveMM+0x214>
806002e0:	a2220ff5 	sb	v0,4085(s1)
806002e4:	26310001 	addiu	s1,s1,1
806002e8:	1630fff8 	bne	s1,s0,806002cc <comboCreateSaveMM+0x214>
806002ec:	305200ff 	andi	s2,v0,0xff
806002f0:	8fbf002c 	lw	ra,44(sp)
806002f4:	8fb60028 	lw	s6,40(sp)
806002f8:	8fb50024 	lw	s5,36(sp)
806002fc:	8fb40020 	lw	s4,32(sp)
80600300:	8fb3001c 	lw	s3,28(sp)
80600304:	8fb20018 	lw	s2,24(sp)
80600308:	8fb10014 	lw	s1,20(sp)
8060030c:	8fb00010 	lw	s0,16(sp)
80600310:	03e00008 	jr	ra
80600314:	27bd0030 	addiu	sp,sp,48
80600318:	308400ff 	andi	a0,a0,0xff
8060031c:	2c84001a 	sltiu	a0,a0,26
80600320:	5480ffb0 	bnezl	a0,806001e4 <comboCreateSaveMM+0x12c>
80600324:	2442005f 	addiu	v0,v0,95
80600328:	5047ffaf 	beql	v0,a3,806001e8 <comboCreateSaveMM+0x130>
8060032c:	2402003f 	li	v0,63
80600330:	5048ffad 	beql	v0,t0,806001e8 <comboCreateSaveMM+0x130>
80600334:	24020040 	li	v0,64
80600338:	1000ffab 	b	806001e8 <comboCreateSaveMM+0x130>
8060033c:	2402003e 	li	v0,62
80600340:	1000ffa9 	b	806001e8 <comboCreateSaveMM+0x130>
80600344:	24020040 	li	v0,64

80600348 <removeButtonItem>:
80600348:	3c028012 	lui	v0,0x8012
8060034c:	2442a5d0 	addiu	v0,v0,-23088
80600350:	90430069 	lbu	v1,105(v0)
80600354:	54640004 	bnel	v1,a0,80600368 <removeButtonItem+0x20>
80600358:	9043006a 	lbu	v1,106(v0)
8060035c:	2403ffff 	li	v1,-1
80600360:	a0430069 	sb	v1,105(v0)
80600364:	9043006a 	lbu	v1,106(v0)
80600368:	54640004 	bnel	v1,a0,8060037c <removeButtonItem+0x34>
8060036c:	9043006b 	lbu	v1,107(v0)
80600370:	2403ffff 	li	v1,-1
80600374:	a043006a 	sb	v1,106(v0)
80600378:	9043006b 	lbu	v1,107(v0)
8060037c:	14640002 	bne	v1,a0,80600388 <removeButtonItem+0x40>
80600380:	2403ffff 	li	v1,-1
80600384:	a043006b 	sb	v1,107(v0)
80600388:	03e00008 	jr	ra
8060038c:	00000000 	nop

80600390 <comboToggleTradeAdult>:
80600390:	3c028012 	lui	v0,0x8012
80600394:	3c068061 	lui	a2,0x8061
80600398:	3c048012 	lui	a0,0x8012
8060039c:	9445a6b6 	lhu	a1,-22858(v0)
806003a0:	2407000b 	li	a3,11
806003a4:	24c6e328 	addiu	a2,a2,-7384
806003a8:	081820f7 	j	806083dc <comboToggleTrade>
806003ac:	2484a65a 	addiu	a0,a0,-22950

806003b0 <comboToggleTradeChild>:
806003b0:	3c028012 	lui	v0,0x8012
806003b4:	3c068061 	lui	a2,0x8061
806003b8:	3c048012 	lui	a0,0x8012
806003bc:	9445a6b4 	lhu	a1,-22860(v0)
806003c0:	2407000b 	li	a3,11
806003c4:	24c6e31c 	addiu	a2,a2,-7396
806003c8:	081820f7 	j	806083dc <comboToggleTrade>
806003cc:	2484a65b 	addiu	a0,a0,-22949

806003d0 <comboToggleOcarina>:
806003d0:	3c028012 	lui	v0,0x8012
806003d4:	2442a5d0 	addiu	v0,v0,-23088
806003d8:	9045007b 	lbu	a1,123(v0)
806003dc:	24040007 	li	a0,7
806003e0:	10a40002 	beq	a1,a0,806003ec <comboToggleOcarina+0x1c>
806003e4:	24030008 	li	v1,8
806003e8:	24030007 	li	v1,7
806003ec:	03e00008 	jr	ra
806003f0:	a043007b 	sb	v1,123(v0)

806003f4 <comboToggleHookshot>:
806003f4:	3c028012 	lui	v0,0x8012
806003f8:	2442a5d0 	addiu	v0,v0,-23088
806003fc:	9045007d 	lbu	a1,125(v0)
80600400:	2404000a 	li	a0,10
80600404:	10a40002 	beq	a1,a0,80600410 <comboToggleHookshot+0x1c>
80600408:	2403000b 	li	v1,11
8060040c:	2403000a 	li	v1,10
80600410:	03e00008 	jr	ra
80600414:	a043007d 	sb	v1,125(v0)

80600418 <comboRemoveTradeItemAdult>:
80600418:	3c038012 	lui	v1,0x8012
8060041c:	27bdffe8 	addiu	sp,sp,-24
80600420:	24020001 	li	v0,1
80600424:	2463a5d0 	addiu	v1,v1,-23088
80600428:	00821004 	sllv	v0,v0,a0
8060042c:	afb00010 	sw	s0,16(sp)
80600430:	00808025 	move	s0,a0
80600434:	946400e6 	lhu	a0,230(v1)
80600438:	00822824 	and	a1,a0,v0
8060043c:	10a00012 	beqz	a1,80600488 <comboRemoveTradeItemAdult+0x70>
80600440:	afbf0014 	sw	ra,20(sp)
80600444:	00021027 	nor	v0,zero,v0
80600448:	00821024 	and	v0,a0,v0
8060044c:	1040000b 	beqz	v0,8060047c <comboRemoveTradeItemAdult+0x64>
80600450:	a46200e6 	sh	v0,230(v1)
80600454:	0c1800e4 	jal	80600390 <comboToggleTradeAdult>
80600458:	00000000 	nop
8060045c:	3c028061 	lui	v0,0x8061
80600460:	2442e328 	addiu	v0,v0,-7384
80600464:	02028021 	addu	s0,s0,v0
80600468:	8fbf0014 	lw	ra,20(sp)
8060046c:	92040000 	lbu	a0,0(s0)
80600470:	8fb00010 	lw	s0,16(sp)
80600474:	081800d2 	j	80600348 <removeButtonItem>
80600478:	27bd0018 	addiu	sp,sp,24
8060047c:	2402ffff 	li	v0,-1
80600480:	1000fff6 	b	8060045c <comboRemoveTradeItemAdult+0x44>
80600484:	a062008a 	sb	v0,138(v1)
80600488:	8fbf0014 	lw	ra,20(sp)
8060048c:	8fb00010 	lw	s0,16(sp)
80600490:	03e00008 	jr	ra
80600494:	27bd0018 	addiu	sp,sp,24

80600498 <comboRemoveTradeItemChild>:
80600498:	3c038012 	lui	v1,0x8012
8060049c:	27bdffe8 	addiu	sp,sp,-24
806004a0:	24020001 	li	v0,1
806004a4:	2463a5d0 	addiu	v1,v1,-23088
806004a8:	00821004 	sllv	v0,v0,a0
806004ac:	afb00010 	sw	s0,16(sp)
806004b0:	00808025 	move	s0,a0
806004b4:	946400e4 	lhu	a0,228(v1)
806004b8:	00822824 	and	a1,a0,v0
806004bc:	10a00012 	beqz	a1,80600508 <comboRemoveTradeItemChild+0x70>
806004c0:	afbf0014 	sw	ra,20(sp)
806004c4:	00021027 	nor	v0,zero,v0
806004c8:	00821024 	and	v0,a0,v0
806004cc:	1040000b 	beqz	v0,806004fc <comboRemoveTradeItemChild+0x64>
806004d0:	a46200e4 	sh	v0,228(v1)
806004d4:	0c1800ec 	jal	806003b0 <comboToggleTradeChild>
806004d8:	00000000 	nop
806004dc:	3c028061 	lui	v0,0x8061
806004e0:	2442e31c 	addiu	v0,v0,-7396
806004e4:	02028021 	addu	s0,s0,v0
806004e8:	8fbf0014 	lw	ra,20(sp)
806004ec:	92040000 	lbu	a0,0(s0)
806004f0:	8fb00010 	lw	s0,16(sp)
806004f4:	081800d2 	j	80600348 <removeButtonItem>
806004f8:	27bd0018 	addiu	sp,sp,24
806004fc:	2402ffff 	li	v0,-1
80600500:	1000fff6 	b	806004dc <comboRemoveTradeItemChild+0x44>
80600504:	a062008b 	sb	v0,139(v1)
80600508:	8fbf0014 	lw	ra,20(sp)
8060050c:	8fb00010 	lw	s0,16(sp)
80600510:	03e00008 	jr	ra
80600514:	27bd0018 	addiu	sp,sp,24

80600518 <Hook_DoorWarp1_SaveActor>:
80600518:	3c068061 	lui	a2,0x8061
8060051c:	24c65d28 	addiu	a2,a2,23848
80600520:	acd10000 	sw	s1,0(a2)
80600524:	afb00034 	sw	s0,52(sp)
80600528:	03e00008 	jr	ra
8060052c:	8cae009c 	lw	t6,156(a1)

80600530 <Trampoline_DoorWarp1_AfterDrawWarp>:
80600530:	3c018061 	lui	at,0x8061
80600534:	24215d28 	addiu	at,at,23848
80600538:	8c240000 	lw	a0,0(at)
8060053c:	8fa500e4 	lw	a1,228(sp)
80600540:	8fb10038 	lw	s1,56(sp)
80600544:	081801ac 	j	806006b0 <DoorWarp1_AfterDrawWarp>
80600548:	27bd00e0 	addiu	sp,sp,224

8060054c <DoorWarp1_Collide>:
8060054c:	8c820090 	lw	v0,144(a0)
80600550:	44801000 	mtc1	zero,$f2
80600554:	44820000 	mtc1	v0,$f0
80600558:	00000000 	nop
8060055c:	4602003c 	c.lt.s	$f0,$f2
80600560:	00000000 	nop
80600564:	45000004 	bc1f	80600578 <DoorWarp1_Collide+0x2c>
80600568:	3c038061 	lui	v1,0x8061
8060056c:	3c038000 	lui	v1,0x8000
80600570:	00621026 	xor	v0,v1,v0
80600574:	3c038061 	lui	v1,0x8061
80600578:	c460d7ec 	lwc1	$f0,-10260(v1)
8060057c:	44822000 	mtc1	v0,$f4
80600580:	00000000 	nop
80600584:	4600203c 	c.lt.s	$f4,$f0
80600588:	00000000 	nop
8060058c:	45000013 	bc1f	806005dc <DoorWarp1_Collide+0x90>
80600590:	00001025 	move	v0,zero
80600594:	8ca21c44 	lw	v0,7236(a1)
80600598:	c4840028 	lwc1	$f4,40(a0)
8060059c:	c4400028 	lwc1	$f0,40(v0)
806005a0:	46040001 	sub.s	$f0,$f0,$f4
806005a4:	4602003c 	c.lt.s	$f0,$f2
806005a8:	44030000 	mfc1	v1,$f0
806005ac:	45000003 	bc1f	806005bc <DoorWarp1_Collide+0x70>
806005b0:	3c048061 	lui	a0,0x8061
806005b4:	3c028000 	lui	v0,0x8000
806005b8:	00431826 	xor	v1,v0,v1
806005bc:	c480d7f0 	lwc1	$f0,-10256(a0)
806005c0:	44831000 	mtc1	v1,$f2
806005c4:	00000000 	nop
806005c8:	4600103c 	c.lt.s	$f2,$f0
806005cc:	00000000 	nop
806005d0:	45010002 	bc1t	806005dc <DoorWarp1_Collide+0x90>
806005d4:	24020001 	li	v0,1
806005d8:	00001025 	move	v0,zero
806005dc:	03e00008 	jr	ra
806005e0:	00000000 	nop

806005e4 <DoorWarp1_ShouldTrigger>:
806005e4:	27bdffd8 	addiu	sp,sp,-40
806005e8:	afbf0024 	sw	ra,36(sp)
806005ec:	afb20020 	sw	s2,32(sp)
806005f0:	afb1001c 	sw	s1,28(sp)
806005f4:	0c180153 	jal	8060054c <DoorWarp1_Collide>
806005f8:	afb00018 	sw	s0,24(sp)
806005fc:	10400022 	beqz	v0,80600688 <DoorWarp1_ShouldTrigger+0xa4>
80600600:	8fbf0024 	lw	ra,36(sp)
80600604:	8ca21c44 	lw	v0,7236(a1)
80600608:	00a08025 	move	s0,a1
8060060c:	8c43066c 	lw	v1,1644(v0)
80600610:	30630400 	andi	v1,v1,0x400
80600614:	1460001c 	bnez	v1,80600688 <DoorWarp1_ShouldTrigger+0xa4>
80600618:	00001025 	move	v0,zero
8060061c:	94a300a4 	lhu	v1,164(a1)
80600620:	2463ffef 	addiu	v1,v1,-17
80600624:	3063ffff 	andi	v1,v1,0xffff
80600628:	2c640008 	sltiu	a0,v1,8
8060062c:	10800016 	beqz	a0,80600688 <DoorWarp1_ShouldTrigger+0xa4>
80600630:	24020001 	li	v0,1
80600634:	3c048061 	lui	a0,0x8061
80600638:	2484d7b4 	addiu	a0,a0,-10316
8060063c:	00641821 	addu	v1,v1,a0
80600640:	80720000 	lb	s2,0(v1)
80600644:	2403ffff 	li	v1,-1
80600648:	1243000f 	beq	s2,v1,80600688 <DoorWarp1_ShouldTrigger+0xa4>
8060064c:	3c118061 	lui	s1,0x8061
80600650:	00121040 	sll	v0,s2,0x1
80600654:	00521021 	addu	v0,v0,s2
80600658:	00021040 	sll	v0,v0,0x1
8060065c:	2631d7bc 	addiu	s1,s1,-10308
80600660:	02228821 	addu	s1,s1,v0
80600664:	0c00a22d 	jal	800288b4 <GetEventChk>
80600668:	96240004 	lhu	a0,4(s1)
8060066c:	1440000b 	bnez	v0,8060069c <DoorWarp1_ShouldTrigger+0xb8>
80600670:	afa20010 	sw	v0,16(sp)
80600674:	96250000 	lhu	a1,0(s1)
80600678:	0c180307 	jal	80600c1c <comboSpawnItemGiver>
8060067c:	02002025 	move	a0,s0
80600680:	8fa20010 	lw	v0,16(sp)
80600684:	8fbf0024 	lw	ra,36(sp)
80600688:	8fb20020 	lw	s2,32(sp)
8060068c:	8fb1001c 	lw	s1,28(sp)
80600690:	8fb00018 	lw	s0,24(sp)
80600694:	03e00008 	jr	ra
80600698:	27bd0028 	addiu	sp,sp,40
8060069c:	02402825 	move	a1,s2
806006a0:	0c183421 	jal	8060d084 <comboTriggerWarp>
806006a4:	02002025 	move	a0,s0
806006a8:	1000fff6 	b	80600684 <DoorWarp1_ShouldTrigger+0xa0>
806006ac:	00001025 	move	v0,zero

806006b0 <DoorWarp1_AfterDrawWarp>:
806006b0:	94a200a4 	lhu	v0,164(a1)
806006b4:	2442ffef 	addiu	v0,v0,-17
806006b8:	3042ffff 	andi	v0,v0,0xffff
806006bc:	2c430008 	sltiu	v1,v0,8
806006c0:	10600050 	beqz	v1,80600804 <DoorWarp1_AfterDrawWarp+0x154>
806006c4:	3c038061 	lui	v1,0x8061
806006c8:	2463d7b4 	addiu	v1,v1,-10316
806006cc:	00431021 	addu	v0,v0,v1
806006d0:	80430000 	lb	v1,0(v0)
806006d4:	0460004b 	bltz	v1,80600804 <DoorWarp1_AfterDrawWarp+0x154>
806006d8:	00031040 	sll	v0,v1,0x1
806006dc:	27bdffd8 	addiu	sp,sp,-40
806006e0:	00431021 	addu	v0,v0,v1
806006e4:	afb00010 	sw	s0,16(sp)
806006e8:	3c108061 	lui	s0,0x8061
806006ec:	00021040 	sll	v0,v0,0x1
806006f0:	2610d7bc 	addiu	s0,s0,-10308
806006f4:	02028021 	addu	s0,s0,v0
806006f8:	afb10014 	sw	s1,20(sp)
806006fc:	00808825 	move	s1,a0
80600700:	96040004 	lhu	a0,4(s0)
80600704:	afb20018 	sw	s2,24(sp)
80600708:	afbf001c 	sw	ra,28(sp)
8060070c:	f7b40020 	sdc1	$f20,32(sp)
80600710:	0c00a22d 	jal	800288b4 <GetEventChk>
80600714:	00a09025 	move	s2,a1
80600718:	14400034 	bnez	v0,806007ec <DoorWarp1_AfterDrawWarp+0x13c>
8060071c:	8fbf001c 	lw	ra,28(sp)
80600720:	8e42009c 	lw	v0,156(s2)
80600724:	24030064 	li	v1,100
80600728:	0043001b 	divu	zero,v0,v1
8060072c:	86070002 	lh	a3,2(s0)
80600730:	96060000 	lhu	a2,0(s0)
80600734:	24040002 	li	a0,2
80600738:	00002825 	move	a1,zero
8060073c:	00001010 	mfhi	v0
80600740:	44820000 	mtc1	v0,$f0
80600744:	3c028061 	lui	v0,0x8061
80600748:	46800320 	cvt.s.w	$f12,$f0
8060074c:	c440d7f4 	lwc1	$f0,-10252(v0)
80600750:	3c028061 	lui	v0,0x8061
80600754:	46006302 	mul.s	$f12,$f12,$f0
80600758:	00000000 	nop
8060075c:	d440d800 	ldc1	$f0,-10240(v0)
80600760:	46006321 	cvt.d.s	$f12,$f12
80600764:	46206302 	mul.d	$f12,$f12,$f0
80600768:	00000000 	nop
8060076c:	462c6300 	add.d	$f12,$f12,$f12
80600770:	0c18316d 	jal	8060c5b4 <comboOverride>
80600774:	46206520 	cvt.s.d	$f20,$f12
80600778:	00408025 	move	s0,v0
8060077c:	3c028061 	lui	v0,0x8061
80600780:	c6200028 	lwc1	$f0,40(s1)
80600784:	c44ed7f8 	lwc1	$f14,-10248(v0)
80600788:	8e26002c 	lw	a2,44(s1)
8060078c:	460e0380 	add.s	$f14,$f0,$f14
80600790:	c62c0024 	lwc1	$f12,36(s1)
80600794:	0c02a9fd 	jal	800aa7f4 <ModelViewTranslate>
80600798:	00003825 	move	a3,zero
8060079c:	3c028061 	lui	v0,0x8061
806007a0:	8c46d7fc 	lw	a2,-10244(v0)
806007a4:	44866000 	mtc1	a2,$f12
806007a8:	44867000 	mtc1	a2,$f14
806007ac:	0c02aa3f 	jal	800aa8fc <ModelViewScale>
806007b0:	24070001 	li	a3,1
806007b4:	24050001 	li	a1,1
806007b8:	0c02aae5 	jal	800aab94 <ModelViewRotateY>
806007bc:	4600a306 	mov.s	$f12,$f20
806007c0:	8fbf001c 	lw	ra,28(sp)
806007c4:	d7b40020 	ldc1	$f20,32(sp)
806007c8:	02003025 	move	a2,s0
806007cc:	02202825 	move	a1,s1
806007d0:	8fb00010 	lw	s0,16(sp)
806007d4:	8fb10014 	lw	s1,20(sp)
806007d8:	02402025 	move	a0,s2
806007dc:	8fb20018 	lw	s2,24(sp)
806007e0:	24070003 	li	a3,3
806007e4:	081817fb 	j	80605fec <comboDrawGI>
806007e8:	27bd0028 	addiu	sp,sp,40
806007ec:	8fb20018 	lw	s2,24(sp)
806007f0:	8fb10014 	lw	s1,20(sp)
806007f4:	8fb00010 	lw	s0,16(sp)
806007f8:	d7b40020 	ldc1	$f20,32(sp)
806007fc:	03e00008 	jr	ra
80600800:	27bd0028 	addiu	sp,sp,40
80600804:	03e00008 	jr	ra
80600808:	00000000 	nop

8060080c <ItemOcarina_Handler>:
8060080c:	27bdffe8 	addiu	sp,sp,-24
80600810:	afb00010 	sw	s0,16(sp)
80600814:	00808025 	move	s0,a0
80600818:	afbf0014 	sw	ra,20(sp)
8060081c:	0c00a22d 	jal	800288b4 <GetEventChk>
80600820:	240400a9 	li	a0,169
80600824:	10400009 	beqz	v0,8060084c <ItemOcarina_Handler+0x40>
80600828:	3c028060 	lui	v0,0x8060
8060082c:	3c028060 	lui	v0,0x8060
80600830:	244209c8 	addiu	v0,v0,2504
80600834:	ae020130 	sw	v0,304(s0)
80600838:	ae000134 	sw	zero,308(s0)
8060083c:	8fbf0014 	lw	ra,20(sp)
80600840:	8fb00010 	lw	s0,16(sp)
80600844:	03e00008 	jr	ra
80600848:	27bd0018 	addiu	sp,sp,24
8060084c:	2442091c 	addiu	v0,v0,2332
80600850:	1000fffa 	b	8060083c <ItemOcarina_Handler+0x30>
80600854:	ae020130 	sw	v0,304(s0)

80600858 <ItemOcarina_Draw>:
80600858:	27bdffe0 	addiu	sp,sp,-32
8060085c:	2407000c 	li	a3,12
80600860:	2406001d 	li	a2,29
80600864:	afb10018 	sw	s1,24(sp)
80600868:	afb00014 	sw	s0,20(sp)
8060086c:	00808825 	move	s1,a0
80600870:	00a08025 	move	s0,a1
80600874:	24040002 	li	a0,2
80600878:	afbf001c 	sw	ra,28(sp)
8060087c:	0c18316d 	jal	8060c5b4 <comboOverride>
80600880:	00002825 	move	a1,zero
80600884:	8fbf001c 	lw	ra,28(sp)
80600888:	02202825 	move	a1,s1
8060088c:	02002025 	move	a0,s0
80600890:	8fb10018 	lw	s1,24(sp)
80600894:	8fb00014 	lw	s0,20(sp)
80600898:	00003825 	move	a3,zero
8060089c:	00403025 	move	a2,v0
806008a0:	081817fb 	j	80605fec <comboDrawGI>
806008a4:	27bd0020 	addiu	sp,sp,32

806008a8 <ItemOcarina_HandlerItem2>:
806008a8:	27bdffe0 	addiu	sp,sp,-32
806008ac:	afb10018 	sw	s1,24(sp)
806008b0:	afb00014 	sw	s0,20(sp)
806008b4:	afbf001c 	sw	ra,28(sp)
806008b8:	00808825 	move	s1,a0
806008bc:	0c008ab4 	jal	80022ad0 <Message_IsClosed>
806008c0:	00a08025 	move	s0,a1
806008c4:	10400011 	beqz	v0,8060090c <ItemOcarina_HandlerItem2+0x64>
806008c8:	8fbf001c 	lw	ra,28(sp)
806008cc:	3c020001 	lui	v0,0x1
806008d0:	02022821 	addu	a1,s0,v0
806008d4:	24020014 	li	v0,20
806008d8:	a0a21e15 	sb	v0,7701(a1)
806008dc:	2402002c 	li	v0,44
806008e0:	a0a21e5e 	sb	v0,7774(a1)
806008e4:	24020005 	li	v0,5
806008e8:	8fbf001c 	lw	ra,28(sp)
806008ec:	8fb00014 	lw	s0,20(sp)
806008f0:	a0a21e1a 	sb	v0,7706(a1)
806008f4:	02202025 	move	a0,s1
806008f8:	2402000f 	li	v0,15
806008fc:	8fb10018 	lw	s1,24(sp)
80600900:	a0a21e1b 	sb	v0,7707(a1)
80600904:	080083ad 	j	80020eb4 <ActorDestroy>
80600908:	27bd0020 	addiu	sp,sp,32
8060090c:	8fb10018 	lw	s1,24(sp)
80600910:	8fb00014 	lw	s0,20(sp)
80600914:	03e00008 	jr	ra
80600918:	27bd0020 	addiu	sp,sp,32

8060091c <ItemOcarina_HandlerItem>:
8060091c:	27bdffd8 	addiu	sp,sp,-40
80600920:	afb10020 	sw	s1,32(sp)
80600924:	afb0001c 	sw	s0,28(sp)
80600928:	afbf0024 	sw	ra,36(sp)
8060092c:	00808025 	move	s0,a0
80600930:	0c008aec 	jal	80022bb0 <Actor_HasParent>
80600934:	00a08825 	move	s1,a1
80600938:	10400011 	beqz	v0,80600980 <ItemOcarina_HandlerItem+0x64>
8060093c:	2407000c 	li	a3,12
80600940:	0c00a238 	jal	800288e0 <SetEventChk>
80600944:	240400a9 	li	a0,169
80600948:	02202025 	move	a0,s1
8060094c:	0c008134 	jal	800204d0 <SetSwitchFlag>
80600950:	24050003 	li	a1,3
80600954:	3c028060 	lui	v0,0x8060
80600958:	244208a8 	addiu	v0,v0,2216
8060095c:	8fbf0024 	lw	ra,36(sp)
80600960:	ae000134 	sw	zero,308(s0)
80600964:	ae020130 	sw	v0,304(s0)
80600968:	02202825 	move	a1,s1
8060096c:	02002025 	move	a0,s0
80600970:	8fb10020 	lw	s1,32(sp)
80600974:	8fb0001c 	lw	s0,28(sp)
80600978:	0818022a 	j	806008a8 <ItemOcarina_HandlerItem2>
8060097c:	27bd0028 	addiu	sp,sp,40
80600980:	2406001d 	li	a2,29
80600984:	00002825 	move	a1,zero
80600988:	0c18316d 	jal	8060c5b4 <comboOverride>
8060098c:	24040002 	li	a0,2
80600990:	3c038061 	lui	v1,0x8061
80600994:	c460d80c 	lwc1	$f0,-10228(v1)
80600998:	3c038061 	lui	v1,0x8061
8060099c:	8c67d808 	lw	a3,-10232(v1)
806009a0:	e7a00010 	swc1	$f0,16(sp)
806009a4:	02202825 	move	a1,s1
806009a8:	02002025 	move	a0,s0
806009ac:	0c008af5 	jal	80022bd4 <GiveItem>
806009b0:	00403025 	move	a2,v0
806009b4:	8fbf0024 	lw	ra,36(sp)
806009b8:	8fb10020 	lw	s1,32(sp)
806009bc:	8fb0001c 	lw	s0,28(sp)
806009c0:	03e00008 	jr	ra
806009c4:	27bd0028 	addiu	sp,sp,40

806009c8 <ItemOcarina_HandlerSong>:
806009c8:	27bdffd8 	addiu	sp,sp,-40
806009cc:	afb10020 	sw	s1,32(sp)
806009d0:	afb0001c 	sw	s0,28(sp)
806009d4:	afbf0024 	sw	ra,36(sp)
806009d8:	00808025 	move	s0,a0
806009dc:	0c008aec 	jal	80022bb0 <Actor_HasParent>
806009e0:	00a08825 	move	s1,a1
806009e4:	10400009 	beqz	v0,80600a0c <ItemOcarina_HandlerSong+0x44>
806009e8:	2407008a 	li	a3,138
806009ec:	0c00a238 	jal	800288e0 <SetEventChk>
806009f0:	24040043 	li	a0,67
806009f4:	8fbf0024 	lw	ra,36(sp)
806009f8:	8fb10020 	lw	s1,32(sp)
806009fc:	02002025 	move	a0,s0
80600a00:	8fb0001c 	lw	s0,28(sp)
80600a04:	080083ad 	j	80020eb4 <ActorDestroy>
80600a08:	27bd0028 	addiu	sp,sp,40
80600a0c:	2406001e 	li	a2,30
80600a10:	00002825 	move	a1,zero
80600a14:	0c18316d 	jal	8060c5b4 <comboOverride>
80600a18:	24040002 	li	a0,2
80600a1c:	3c038061 	lui	v1,0x8061
80600a20:	c460d814 	lwc1	$f0,-10220(v1)
80600a24:	3c038061 	lui	v1,0x8061
80600a28:	8c67d810 	lw	a3,-10224(v1)
80600a2c:	e7a00010 	swc1	$f0,16(sp)
80600a30:	02202825 	move	a1,s1
80600a34:	02002025 	move	a0,s0
80600a38:	0c008af5 	jal	80022bd4 <GiveItem>
80600a3c:	00403025 	move	a2,v0
80600a40:	8fbf0024 	lw	ra,36(sp)
80600a44:	8fb10020 	lw	s1,32(sp)
80600a48:	8fb0001c 	lw	s0,28(sp)
80600a4c:	03e00008 	jr	ra
80600a50:	27bd0028 	addiu	sp,sp,40

80600a54 <ItemGiver_Init>:
80600a54:	03e00008 	jr	ra
80600a58:	00000000 	nop

80600a5c <ItemGiver_Common>:
80600a5c:	27bdffd0 	addiu	sp,sp,-48
80600a60:	afb00018 	sw	s0,24(sp)
80600a64:	00808025 	move	s0,a0
80600a68:	00e02025 	move	a0,a3
80600a6c:	afb40028 	sw	s4,40(sp)
80600a70:	afb30024 	sw	s3,36(sp)
80600a74:	afb20020 	sw	s2,32(sp)
80600a78:	afbf002c 	sw	ra,44(sp)
80600a7c:	afb1001c 	sw	s1,28(sp)
80600a80:	00a09825 	move	s3,a1
80600a84:	00c0a025 	move	s4,a2
80600a88:	0c00a22d 	jal	800288b4 <GetEventChk>
80600a8c:	00e09025 	move	s2,a3
80600a90:	1040000c 	beqz	v0,80600ac4 <ItemGiver_Common+0x68>
80600a94:	02002025 	move	a0,s0
80600a98:	0c0083ad 	jal	80020eb4 <ActorDestroy>
80600a9c:	00008825 	move	s1,zero
80600aa0:	8fbf002c 	lw	ra,44(sp)
80600aa4:	8fb40028 	lw	s4,40(sp)
80600aa8:	8fb30024 	lw	s3,36(sp)
80600aac:	8fb20020 	lw	s2,32(sp)
80600ab0:	8fb00018 	lw	s0,24(sp)
80600ab4:	02201025 	move	v0,s1
80600ab8:	8fb1001c 	lw	s1,28(sp)
80600abc:	03e00008 	jr	ra
80600ac0:	27bd0030 	addiu	sp,sp,48
80600ac4:	0c008aec 	jal	80022bb0 <Actor_HasParent>
80600ac8:	00000000 	nop
80600acc:	10400007 	beqz	v0,80600aec <ItemGiver_Common+0x90>
80600ad0:	00408825 	move	s1,v0
80600ad4:	0c00a238 	jal	800288e0 <SetEventChk>
80600ad8:	02402025 	move	a0,s2
80600adc:	0c0083ad 	jal	80020eb4 <ActorDestroy>
80600ae0:	02002025 	move	a0,s0
80600ae4:	1000ffee 	b	80600aa0 <ItemGiver_Common+0x44>
80600ae8:	24110001 	li	s1,1
80600aec:	9606001c 	lhu	a2,28(s0)
80600af0:	02803825 	move	a3,s4
80600af4:	00002825 	move	a1,zero
80600af8:	0c18316d 	jal	8060c5b4 <comboOverride>
80600afc:	24040002 	li	a0,2
80600b00:	3c038061 	lui	v1,0x8061
80600b04:	c460d890 	lwc1	$f0,-10096(v1)
80600b08:	3c038061 	lui	v1,0x8061
80600b0c:	8c67d810 	lw	a3,-10224(v1)
80600b10:	e7a00010 	swc1	$f0,16(sp)
80600b14:	00403025 	move	a2,v0
80600b18:	02602825 	move	a1,s3
80600b1c:	0c008af5 	jal	80022bd4 <GiveItem>
80600b20:	02002025 	move	a0,s0
80600b24:	1000ffdf 	b	80600aa4 <ItemGiver_Common+0x48>
80600b28:	8fbf002c 	lw	ra,44(sp)

80600b2c <ItemGiver_Update>:
80600b2c:	9482001c 	lhu	v0,28(a0)
80600b30:	2442ffdd 	addiu	v0,v0,-35
80600b34:	3042ffff 	andi	v0,v0,0xffff
80600b38:	2c43001e 	sltiu	v1,v0,30
80600b3c:	10600033 	beqz	v1,80600c0c <ItemGiver_Update+0xe0>
80600b40:	3c038061 	lui	v1,0x8061
80600b44:	00021080 	sll	v0,v0,0x2
80600b48:	2463d818 	addiu	v1,v1,-10216
80600b4c:	00621021 	addu	v0,v1,v0
80600b50:	8c420000 	lw	v0,0(v0)
80600b54:	00400008 	jr	v0
80600b58:	00000000 	nop
80600b5c:	240700c1 	li	a3,193
80600b60:	2406003b 	li	a2,59
80600b64:	08180297 	j	80600a5c <ItemGiver_Common>
80600b68:	00000000 	nop
80600b6c:	27bdffe8 	addiu	sp,sp,-24
80600b70:	24070054 	li	a3,84
80600b74:	afbf0014 	sw	ra,20(sp)
80600b78:	0c180297 	jal	80600a5c <ItemGiver_Common>
80600b7c:	24060084 	li	a2,132
80600b80:	10400024 	beqz	v0,80600c14 <ItemGiver_Update+0xe8>
80600b84:	8fbf0014 	lw	ra,20(sp)
80600b88:	240400aa 	li	a0,170
80600b8c:	0800a238 	j	800288e0 <SetEventChk>
80600b90:	27bd0018 	addiu	sp,sp,24
80600b94:	240700ac 	li	a3,172
80600b98:	1000fff2 	b	80600b64 <ItemGiver_Update+0x38>
80600b9c:	24060083 	li	a2,131
80600ba0:	240700c4 	li	a3,196
80600ba4:	1000ffef 	b	80600b64 <ItemGiver_Update+0x38>
80600ba8:	2406005a 	li	a2,90
80600bac:	24070019 	li	a3,25
80600bb0:	1000ffec 	b	80600b64 <ItemGiver_Update+0x38>
80600bb4:	2406008d 	li	a2,141
80600bb8:	24070025 	li	a3,37
80600bbc:	1000ffe9 	b	80600b64 <ItemGiver_Update+0x38>
80600bc0:	2406008e 	li	a2,142
80600bc4:	24070037 	li	a3,55
80600bc8:	1000ffe6 	b	80600b64 <ItemGiver_Update+0x38>
80600bcc:	2406008f 	li	a2,143
80600bd0:	24070048 	li	a3,72
80600bd4:	1000ffe3 	b	80600b64 <ItemGiver_Update+0x38>
80600bd8:	24060090 	li	a2,144
80600bdc:	24070049 	li	a3,73
80600be0:	1000ffe0 	b	80600b64 <ItemGiver_Update+0x38>
80600be4:	24060091 	li	a2,145
80600be8:	2407004a 	li	a3,74
80600bec:	1000ffdd 	b	80600b64 <ItemGiver_Update+0x38>
80600bf0:	24060092 	li	a2,146
80600bf4:	24070061 	li	a3,97
80600bf8:	1000ffda 	b	80600b64 <ItemGiver_Update+0x38>
80600bfc:	24060094 	li	a2,148
80600c00:	240700c8 	li	a3,200
80600c04:	1000ffd7 	b	80600b64 <ItemGiver_Update+0x38>
80600c08:	24060093 	li	a2,147
80600c0c:	080083ad 	j	80020eb4 <ActorDestroy>
80600c10:	00000000 	nop
80600c14:	03e00008 	jr	ra
80600c18:	27bd0018 	addiu	sp,sp,24

80600c1c <comboSpawnItemGiver>:
80600c1c:	27bdffd0 	addiu	sp,sp,-48
80600c20:	00003825 	move	a3,zero
80600c24:	24060003 	li	a2,3
80600c28:	afa50024 	sw	a1,36(sp)
80600c2c:	afa00020 	sw	zero,32(sp)
80600c30:	afa0001c 	sw	zero,28(sp)
80600c34:	afa00018 	sw	zero,24(sp)
80600c38:	afa00014 	sw	zero,20(sp)
80600c3c:	afa00010 	sw	zero,16(sp)
80600c40:	00802825 	move	a1,a0
80600c44:	afbf002c 	sw	ra,44(sp)
80600c48:	0c009444 	jal	80025110 <SpawnActor>
80600c4c:	24841c24 	addiu	a0,a0,7204
80600c50:	8fbf002c 	lw	ra,44(sp)
80600c54:	03e00008 	jr	ra
80600c58:	27bd0030 	addiu	sp,sp,48

80600c5c <comboSpawnItemGivers>:
80600c5c:	27bdffe0 	addiu	sp,sp,-32
80600c60:	afb00014 	sw	s0,20(sp)
80600c64:	3c108012 	lui	s0,0x8012
80600c68:	8e03a5d0 	lw	v1,-23088(s0)
80600c6c:	240205e0 	li	v0,1504
80600c70:	afb10018 	sw	s1,24(sp)
80600c74:	afbf001c 	sw	ra,28(sp)
80600c78:	14620008 	bne	v1,v0,80600c9c <comboSpawnItemGivers+0x40>
80600c7c:	00808825 	move	s1,a0
80600c80:	0c00a22d 	jal	800288b4 <GetEventChk>
80600c84:	240400c1 	li	a0,193
80600c88:	14400005 	bnez	v0,80600ca0 <comboSpawnItemGivers+0x44>
80600c8c:	8e03a5d0 	lw	v1,-23088(s0)
80600c90:	24050037 	li	a1,55
80600c94:	0c180307 	jal	80600c1c <comboSpawnItemGiver>
80600c98:	02202025 	move	a0,s1
80600c9c:	8e03a5d0 	lw	v1,-23088(s0)
80600ca0:	240200db 	li	v0,219
80600ca4:	14620012 	bne	v1,v0,80600cf0 <comboSpawnItemGivers+0x94>
80600ca8:	8e03a5d0 	lw	v1,-23088(s0)
80600cac:	2603a5d0 	addiu	v1,s0,-23088
80600cb0:	8c6200a4 	lw	v0,164(v1)
80600cb4:	24040007 	li	a0,7
80600cb8:	30420007 	andi	v0,v0,0x7
80600cbc:	1444002d 	bne	v0,a0,80600d74 <comboSpawnItemGivers+0x118>
80600cc0:	8fbf001c 	lw	ra,28(sp)
80600cc4:	8c620004 	lw	v0,4(v1)
80600cc8:	5440002b 	bnezl	v0,80600d78 <comboSpawnItemGivers+0x11c>
80600ccc:	8fb10018 	lw	s1,24(sp)
80600cd0:	0c00a22d 	jal	800288b4 <GetEventChk>
80600cd4:	24040054 	li	a0,84
80600cd8:	14400005 	bnez	v0,80600cf0 <comboSpawnItemGivers+0x94>
80600cdc:	8e03a5d0 	lw	v1,-23088(s0)
80600ce0:	24050036 	li	a1,54
80600ce4:	0c180307 	jal	80600c1c <comboSpawnItemGiver>
80600ce8:	02202025 	move	a0,s1
80600cec:	8e03a5d0 	lw	v1,-23088(s0)
80600cf0:	240201e1 	li	v0,481
80600cf4:	14620009 	bne	v1,v0,80600d1c <comboSpawnItemGivers+0xc0>
80600cf8:	8e03a5d0 	lw	v1,-23088(s0)
80600cfc:	0c00a22d 	jal	800288b4 <GetEventChk>
80600d00:	240400ac 	li	a0,172
80600d04:	14400005 	bnez	v0,80600d1c <comboSpawnItemGivers+0xc0>
80600d08:	8e03a5d0 	lw	v1,-23088(s0)
80600d0c:	24050035 	li	a1,53
80600d10:	0c180307 	jal	80600c1c <comboSpawnItemGiver>
80600d14:	02202025 	move	a0,s1
80600d18:	8e03a5d0 	lw	v1,-23088(s0)
80600d1c:	24020053 	li	v0,83
80600d20:	14620014 	bne	v1,v0,80600d74 <comboSpawnItemGivers+0x118>
80600d24:	8fbf001c 	lw	ra,28(sp)
80600d28:	2610a5d0 	addiu	s0,s0,-23088
80600d2c:	8e0200a4 	lw	v0,164(s0)
80600d30:	24030018 	li	v1,24
80600d34:	30420018 	andi	v0,v0,0x18
80600d38:	5443000f 	bnel	v0,v1,80600d78 <comboSpawnItemGivers+0x11c>
80600d3c:	8fb10018 	lw	s1,24(sp)
80600d40:	8e020004 	lw	v0,4(s0)
80600d44:	5440000c 	bnezl	v0,80600d78 <comboSpawnItemGivers+0x11c>
80600d48:	8fb10018 	lw	s1,24(sp)
80600d4c:	0c00a22d 	jal	800288b4 <GetEventChk>
80600d50:	240400c4 	li	a0,196
80600d54:	14400007 	bnez	v0,80600d74 <comboSpawnItemGivers+0x118>
80600d58:	8fbf001c 	lw	ra,28(sp)
80600d5c:	8fb00014 	lw	s0,20(sp)
80600d60:	02202025 	move	a0,s1
80600d64:	8fb10018 	lw	s1,24(sp)
80600d68:	24050023 	li	a1,35
80600d6c:	08180307 	j	80600c1c <comboSpawnItemGiver>
80600d70:	27bd0020 	addiu	sp,sp,32
80600d74:	8fb10018 	lw	s1,24(sp)
80600d78:	8fb00014 	lw	s0,20(sp)
80600d7c:	03e00008 	jr	ra
80600d80:	27bd0020 	addiu	sp,sp,32

80600d84 <ItemBHeart_GiveItem>:
80600d84:	27bdffd0 	addiu	sp,sp,-48
80600d88:	afb00014 	sw	s0,20(sp)
80600d8c:	f7b60028 	sdc1	$f22,40(sp)
80600d90:	f7b40020 	sdc1	$f20,32(sp)
80600d94:	c7b60040 	lwc1	$f22,64(sp)
80600d98:	4487a000 	mtc1	a3,$f20
80600d9c:	00a08025 	move	s0,a1
80600da0:	94a500a4 	lhu	a1,164(a1)
80600da4:	afb10018 	sw	s1,24(sp)
80600da8:	2407003d 	li	a3,61
80600dac:	00808825 	move	s1,a0
80600db0:	2406001f 	li	a2,31
80600db4:	afbf001c 	sw	ra,28(sp)
80600db8:	0c18316d 	jal	8060c5b4 <comboOverride>
80600dbc:	24040001 	li	a0,1
80600dc0:	e7b60040 	swc1	$f22,64(sp)
80600dc4:	8fbf001c 	lw	ra,28(sp)
80600dc8:	d7b60028 	ldc1	$f22,40(sp)
80600dcc:	4407a000 	mfc1	a3,$f20
80600dd0:	02002825 	move	a1,s0
80600dd4:	d7b40020 	ldc1	$f20,32(sp)
80600dd8:	8fb00014 	lw	s0,20(sp)
80600ddc:	02202025 	move	a0,s1
80600de0:	8fb10018 	lw	s1,24(sp)
80600de4:	00403025 	move	a2,v0
80600de8:	08008af5 	j	80022bd4 <GiveItem>
80600dec:	27bd0030 	addiu	sp,sp,48

80600df0 <ItemBHeart_Draw>:
80600df0:	27bdffe0 	addiu	sp,sp,-32
80600df4:	afb00014 	sw	s0,20(sp)
80600df8:	00a08025 	move	s0,a1
80600dfc:	94a500a4 	lhu	a1,164(a1)
80600e00:	afb10018 	sw	s1,24(sp)
80600e04:	2407003d 	li	a3,61
80600e08:	00808825 	move	s1,a0
80600e0c:	2406001f 	li	a2,31
80600e10:	afbf001c 	sw	ra,28(sp)
80600e14:	0c18316d 	jal	8060c5b4 <comboOverride>
80600e18:	24040001 	li	a0,1
80600e1c:	8fbf001c 	lw	ra,28(sp)
80600e20:	02202825 	move	a1,s1
80600e24:	02002025 	move	a0,s0
80600e28:	8fb10018 	lw	s1,24(sp)
80600e2c:	8fb00014 	lw	s0,20(sp)
80600e30:	00003825 	move	a3,zero
80600e34:	00403025 	move	a2,v0
80600e38:	081817fb 	j	80605fec <comboDrawGI>
80600e3c:	27bd0020 	addiu	sp,sp,32

80600e40 <ItemEtcetera_DrawTreasureGame>:
80600e40:	90a21c27 	lbu	v0,7207(a1)
80600e44:	1040002c 	beqz	v0,80600ef8 <ItemEtcetera_DrawTreasureGame+0xb8>
80600e48:	00000000 	nop
80600e4c:	9082001d 	lbu	v0,29(a0)
80600e50:	27bdffe0 	addiu	sp,sp,-32
80600e54:	2442fff8 	addiu	v0,v0,-8
80600e58:	3042ffff 	andi	v0,v0,0xffff
80600e5c:	2c430006 	sltiu	v1,v0,6
80600e60:	24060098 	li	a2,152
80600e64:	afb10018 	sw	s1,24(sp)
80600e68:	afb00014 	sw	s0,20(sp)
80600e6c:	afbf001c 	sw	ra,28(sp)
80600e70:	00808825 	move	s1,a0
80600e74:	10600009 	beqz	v1,80600e9c <ItemEtcetera_DrawTreasureGame+0x5c>
80600e78:	00a08025 	move	s0,a1
80600e7c:	3c038061 	lui	v1,0x8061
80600e80:	00021080 	sll	v0,v0,0x2
80600e84:	2463d894 	addiu	v1,v1,-10092
80600e88:	00621021 	addu	v0,v1,v0
80600e8c:	8c420000 	lw	v0,0(v0)
80600e90:	00400008 	jr	v0
80600e94:	00000000 	nop
80600e98:	2406004d 	li	a2,77
80600e9c:	8fbf001c 	lw	ra,28(sp)
80600ea0:	02202825 	move	a1,s1
80600ea4:	02002025 	move	a0,s0
80600ea8:	8fb10018 	lw	s1,24(sp)
80600eac:	8fb00014 	lw	s0,20(sp)
80600eb0:	00003825 	move	a3,zero
80600eb4:	081817fb 	j	80605fec <comboDrawGI>
80600eb8:	27bd0020 	addiu	sp,sp,32
80600ebc:	1000fff7 	b	80600e9c <ItemEtcetera_DrawTreasureGame+0x5c>
80600ec0:	2406004e 	li	a2,78
80600ec4:	1000fff5 	b	80600e9c <ItemEtcetera_DrawTreasureGame+0x5c>
80600ec8:	24060055 	li	a2,85
80600ecc:	2406000a 	li	a2,10
80600ed0:	2407003e 	li	a3,62
80600ed4:	24050010 	li	a1,16
80600ed8:	0c18316d 	jal	8060c5b4 <comboOverride>
80600edc:	00002025 	move	a0,zero
80600ee0:	1000ffee 	b	80600e9c <ItemEtcetera_DrawTreasureGame+0x5c>
80600ee4:	00403025 	move	a2,v0
80600ee8:	1000ffec 	b	80600e9c <ItemEtcetera_DrawTreasureGame+0x5c>
80600eec:	24060042 	li	a2,66
80600ef0:	1000ffea 	b	80600e9c <ItemEtcetera_DrawTreasureGame+0x5c>
80600ef4:	2406004c 	li	a2,76
80600ef8:	03e00008 	jr	ra
80600efc:	00000000 	nop

80600f00 <ItemEtcetera_HasGivenItem>:
80600f00:	27bdffe8 	addiu	sp,sp,-24
80600f04:	afb00010 	sw	s0,16(sp)
80600f08:	afbf0014 	sw	ra,20(sp)
80600f0c:	0c008aec 	jal	80022bb0 <Actor_HasParent>
80600f10:	00808025 	move	s0,a0
80600f14:	1040000a 	beqz	v0,80600f40 <ItemEtcetera_HasGivenItem+0x40>
80600f18:	24030007 	li	v1,7
80600f1c:	9204001d 	lbu	a0,29(s0)
80600f20:	14830007 	bne	a0,v1,80600f40 <ItemEtcetera_HasGivenItem+0x40>
80600f24:	24020001 	li	v0,1
80600f28:	3c038012 	lui	v1,0x8012
80600f2c:	2463a5d0 	addiu	v1,v1,-23088
80600f30:	8c64011c 	lw	a0,284(v1)
80600f34:	3c050008 	lui	a1,0x8
80600f38:	00852025 	or	a0,a0,a1
80600f3c:	ac64011c 	sw	a0,284(v1)
80600f40:	8fbf0014 	lw	ra,20(sp)
80600f44:	8fb00010 	lw	s0,16(sp)
80600f48:	03e00008 	jr	ra
80600f4c:	27bd0018 	addiu	sp,sp,24

80600f50 <ItemEtcetera_GetGI.isra.0>:
80600f50:	24020001 	li	v0,1
80600f54:	10820006 	beq	a0,v0,80600f70 <ItemEtcetera_GetGI.isra.0+0x20>
80600f58:	00a03825 	move	a3,a1
80600f5c:	24020007 	li	v0,7
80600f60:	10820004 	beq	a0,v0,80600f74 <ItemEtcetera_GetGI.isra.0+0x24>
80600f64:	2406002f 	li	a2,47
80600f68:	03e00008 	jr	ra
80600f6c:	00a01025 	move	v0,a1
80600f70:	2406002e 	li	a2,46
80600f74:	00002825 	move	a1,zero
80600f78:	0818316d 	j	8060c5b4 <comboOverride>
80600f7c:	24040002 	li	a0,2

80600f80 <ItemEtcetera_Draw>:
80600f80:	27bdffe0 	addiu	sp,sp,-32
80600f84:	afb10018 	sw	s1,24(sp)
80600f88:	afb00014 	sw	s0,20(sp)
80600f8c:	00a08825 	move	s1,a1
80600f90:	00808025 	move	s0,a0
80600f94:	84850142 	lh	a1,322(a0)
80600f98:	9484001c 	lhu	a0,28(a0)
80600f9c:	afbf001c 	sw	ra,28(sp)
80600fa0:	0c1803d4 	jal	80600f50 <ItemEtcetera_GetGI.isra.0>
80600fa4:	00000000 	nop
80600fa8:	8fbf001c 	lw	ra,28(sp)
80600fac:	02002825 	move	a1,s0
80600fb0:	02202025 	move	a0,s1
80600fb4:	8fb00014 	lw	s0,20(sp)
80600fb8:	8fb10018 	lw	s1,24(sp)
80600fbc:	00003825 	move	a3,zero
80600fc0:	00403025 	move	a2,v0
80600fc4:	081817fb 	j	80605fec <comboDrawGI>
80600fc8:	27bd0020 	addiu	sp,sp,32

80600fcc <ItemEtcetera_GiveItem>:
80600fcc:	27bdffd0 	addiu	sp,sp,-48
80600fd0:	afb0001c 	sw	s0,28(sp)
80600fd4:	f7b40028 	sdc1	$f20,40(sp)
80600fd8:	00808025 	move	s0,a0
80600fdc:	c7b40040 	lwc1	$f20,64(sp)
80600fe0:	9484001c 	lhu	a0,28(a0)
80600fe4:	afb10020 	sw	s1,32(sp)
80600fe8:	00a08825 	move	s1,a1
80600fec:	00c02825 	move	a1,a2
80600ff0:	afbf0024 	sw	ra,36(sp)
80600ff4:	0c1803d4 	jal	80600f50 <ItemEtcetera_GetGI.isra.0>
80600ff8:	afa70010 	sw	a3,16(sp)
80600ffc:	e7b40040 	swc1	$f20,64(sp)
80601000:	8fa70010 	lw	a3,16(sp)
80601004:	8fbf0024 	lw	ra,36(sp)
80601008:	d7b40028 	ldc1	$f20,40(sp)
8060100c:	02202825 	move	a1,s1
80601010:	02002025 	move	a0,s0
80601014:	8fb10020 	lw	s1,32(sp)
80601018:	8fb0001c 	lw	s0,28(sp)
8060101c:	00403025 	move	a2,v0
80601020:	08008af5 	j	80022bd4 <GiveItem>
80601024:	27bd0030 	addiu	sp,sp,48

80601028 <EnDns_GetGi>:
80601028:	8c8202b0 	lw	v0,688(a0)
8060102c:	9483001c 	lhu	v1,28(a0)
80601030:	24040009 	li	a0,9
80601034:	10640008 	beq	v1,a0,80601058 <EnDns_GetGi+0x30>
80601038:	84420006 	lh	v0,6(v0)
8060103c:	2404000a 	li	a0,10
80601040:	10640010 	beq	v1,a0,80601084 <EnDns_GetGi+0x5c>
80601044:	24040002 	li	a0,2
80601048:	10640004 	beq	v1,a0,8060105c <EnDns_GetGi+0x34>
8060104c:	24060012 	li	a2,18
80601050:	03e00008 	jr	ra
80601054:	00000000 	nop
80601058:	24060010 	li	a2,16
8060105c:	27bdffe0 	addiu	sp,sp,-32
80601060:	00403825 	move	a3,v0
80601064:	24040002 	li	a0,2
80601068:	afa50010 	sw	a1,16(sp)
8060106c:	afbf001c 	sw	ra,28(sp)
80601070:	0c183126 	jal	8060c498 <comboOverrideEx>
80601074:	00002825 	move	a1,zero
80601078:	8fbf001c 	lw	ra,28(sp)
8060107c:	03e00008 	jr	ra
80601080:	27bd0020 	addiu	sp,sp,32
80601084:	1000fff5 	b	8060105c <EnDns_GetGi+0x34>
80601088:	24060011 	li	a2,17

8060108c <EnDns_TalkedTo>:
8060108c:	27bdffd8 	addiu	sp,sp,-40
80601090:	afb1001c 	sw	s1,28(sp)
80601094:	afb00018 	sw	s0,24(sp)
80601098:	afbf0024 	sw	ra,36(sp)
8060109c:	afb20020 	sw	s2,32(sp)
806010a0:	00808825 	move	s1,a0
806010a4:	0c008a4c 	jal	80022930 <ActorTalkedTo>
806010a8:	00a08025 	move	s0,a1
806010ac:	10400032 	beqz	v0,80601178 <EnDns_TalkedTo+0xec>
806010b0:	8fbf0024 	lw	ra,36(sp)
806010b4:	3402fe88 	li	v0,0xfe88
806010b8:	02028021 	addu	s0,s0,v0
806010bc:	8e2202b0 	lw	v0,688(s1)
806010c0:	02202025 	move	a0,s1
806010c4:	84520000 	lh	s2,0(v0)
806010c8:	00002825 	move	a1,zero
806010cc:	0c18040a 	jal	80601028 <EnDns_GetGi>
806010d0:	afb00010 	sw	s0,16(sp)
806010d4:	02402825 	move	a1,s2
806010d8:	27a40010 	addiu	a0,sp,16
806010dc:	0c18276d 	jal	80609db4 <comboTextAppendShopHeader>
806010e0:	00408825 	move	s1,v0
806010e4:	3c058061 	lui	a1,0x8061
806010e8:	24a5d8ac 	addiu	a1,a1,-10068
806010ec:	0c182755 	jal	80609d54 <comboTextAppendStr>
806010f0:	27a40010 	addiu	a0,sp,16
806010f4:	24060004 	li	a2,4
806010f8:	02202825 	move	a1,s1
806010fc:	0c182794 	jal	80609e50 <comboTextAppendItemName>
80601100:	27a40010 	addiu	a0,sp,16
80601104:	3c058061 	lui	a1,0x8061
80601108:	24a5d8bc 	addiu	a1,a1,-10052
8060110c:	0c182755 	jal	80609d54 <comboTextAppendStr>
80601110:	27a40010 	addiu	a0,sp,16
80601114:	02402825 	move	a1,s2
80601118:	0c182773 	jal	80609dcc <comboTextAppendNum>
8060111c:	27a40010 	addiu	a0,sp,16
80601120:	3c058061 	lui	a1,0x8061
80601124:	24a5d8c4 	addiu	a1,a1,-10044
80601128:	0c182755 	jal	80609d54 <comboTextAppendStr>
8060112c:	27a40010 	addiu	a0,sp,16
80601130:	0c182770 	jal	80609dc0 <comboTextAppendClearColor>
80601134:	27a40010 	addiu	a0,sp,16
80601138:	3c058061 	lui	a1,0x8061
8060113c:	24a5d8cc 	addiu	a1,a1,-10036
80601140:	0c182755 	jal	80609d54 <comboTextAppendStr>
80601144:	27a40010 	addiu	a0,sp,16
80601148:	3c058061 	lui	a1,0x8061
8060114c:	24a5d8d4 	addiu	a1,a1,-10028
80601150:	0c182755 	jal	80609d54 <comboTextAppendStr>
80601154:	27a40010 	addiu	a0,sp,16
80601158:	3c058061 	lui	a1,0x8061
8060115c:	24a5d8dc 	addiu	a1,a1,-10020
80601160:	0c182755 	jal	80609d54 <comboTextAppendStr>
80601164:	27a40010 	addiu	a0,sp,16
80601168:	0c182716 	jal	80609c58 <comboTextAutoLineBreaks>
8060116c:	02002025 	move	a0,s0
80601170:	24020001 	li	v0,1
80601174:	8fbf0024 	lw	ra,36(sp)
80601178:	8fb20020 	lw	s2,32(sp)
8060117c:	8fb1001c 	lw	s1,28(sp)
80601180:	8fb00018 	lw	s0,24(sp)
80601184:	03e00008 	jr	ra
80601188:	27bd0028 	addiu	sp,sp,40

8060118c <EnDns_GiveItem>:
8060118c:	27bdffd0 	addiu	sp,sp,-48
80601190:	f7b40028 	sdc1	$f20,40(sp)
80601194:	c7b40040 	lwc1	$f20,64(sp)
80601198:	afb10020 	sw	s1,32(sp)
8060119c:	afb0001c 	sw	s0,28(sp)
806011a0:	00a08825 	move	s1,a1
806011a4:	00808025 	move	s0,a0
806011a8:	24050003 	li	a1,3
806011ac:	afbf0024 	sw	ra,36(sp)
806011b0:	0c18040a 	jal	80601028 <EnDns_GetGi>
806011b4:	afa70010 	sw	a3,16(sp)
806011b8:	e7b40040 	swc1	$f20,64(sp)
806011bc:	8fa70010 	lw	a3,16(sp)
806011c0:	8fbf0024 	lw	ra,36(sp)
806011c4:	d7b40028 	ldc1	$f20,40(sp)
806011c8:	02202825 	move	a1,s1
806011cc:	02002025 	move	a0,s0
806011d0:	8fb10020 	lw	s1,32(sp)
806011d4:	8fb0001c 	lw	s0,28(sp)
806011d8:	00403025 	move	a2,v0
806011dc:	08008af5 	j	80022bd4 <GiveItem>
806011e0:	27bd0030 	addiu	sp,sp,48

806011e4 <EnFu_HandlerNull>:
806011e4:	03e00008 	jr	ra
806011e8:	00000000 	nop

806011ec <EnFu_HandlerAdultOcarina2>:
806011ec:	27bdffd8 	addiu	sp,sp,-40
806011f0:	afb10020 	sw	s1,32(sp)
806011f4:	afb0001c 	sw	s0,28(sp)
806011f8:	afbf0024 	sw	ra,36(sp)
806011fc:	00808025 	move	s0,a0
80601200:	0c008aec 	jal	80022bb0 <Actor_HasParent>
80601204:	00a08825 	move	s1,a1
80601208:	14400013 	bnez	v0,80601258 <EnFu_HandlerAdultOcarina2+0x6c>
8060120c:	2407008b 	li	a3,139
80601210:	24060006 	li	a2,6
80601214:	00002825 	move	a1,zero
80601218:	0c18316d 	jal	8060c5b4 <comboOverride>
8060121c:	24040002 	li	a0,2
80601220:	3c038061 	lui	v1,0x8061
80601224:	c460d8e0 	lwc1	$f0,-10016(v1)
80601228:	3c038061 	lui	v1,0x8061
8060122c:	8c67d810 	lw	a3,-10224(v1)
80601230:	e7a00010 	swc1	$f0,16(sp)
80601234:	00403025 	move	a2,v0
80601238:	02202825 	move	a1,s1
8060123c:	0c008af5 	jal	80022bd4 <GiveItem>
80601240:	02002025 	move	a0,s0
80601244:	8fbf0024 	lw	ra,36(sp)
80601248:	8fb10020 	lw	s1,32(sp)
8060124c:	8fb0001c 	lw	s0,28(sp)
80601250:	03e00008 	jr	ra
80601254:	27bd0028 	addiu	sp,sp,40
80601258:	0c00a238 	jal	800288e0 <SetEventChk>
8060125c:	2404005b 	li	a0,91
80601260:	3c028060 	lui	v0,0x8060
80601264:	244211e4 	addiu	v0,v0,4580
80601268:	1000fff6 	b	80601244 <EnFu_HandlerAdultOcarina2+0x58>
8060126c:	ae02029c 	sw	v0,668(s0)

80601270 <EnFu_HandlerAdultOcarina>:
80601270:	3c020001 	lui	v0,0x1
80601274:	00a21021 	addu	v0,a1,v0
80601278:	24030004 	li	v1,4
8060127c:	a44304c6 	sh	v1,1222(v0)
80601280:	3c028060 	lui	v0,0x8060
80601284:	244211ec 	addiu	v0,v0,4588
80601288:	0818047b 	j	806011ec <EnFu_HandlerAdultOcarina2>
8060128c:	ac82029c 	sw	v0,668(a0)

80601290 <EnWonderTalk_TalkedTo>:
80601290:	27bdffc0 	addiu	sp,sp,-64
80601294:	afb1001c 	sw	s1,28(sp)
80601298:	afb00018 	sw	s0,24(sp)
8060129c:	afbf003c 	sw	ra,60(sp)
806012a0:	afbe0038 	sw	s8,56(sp)
806012a4:	afb70034 	sw	s7,52(sp)
806012a8:	afb60030 	sw	s6,48(sp)
806012ac:	afb5002c 	sw	s5,44(sp)
806012b0:	afb40028 	sw	s4,40(sp)
806012b4:	afb30024 	sw	s3,36(sp)
806012b8:	afb20020 	sw	s2,32(sp)
806012bc:	00808825 	move	s1,a0
806012c0:	0c008a4c 	jal	80022930 <ActorTalkedTo>
806012c4:	00a08025 	move	s0,a1
806012c8:	1040005d 	beqz	v0,80601440 <EnWonderTalk_TalkedTo+0x1b0>
806012cc:	8fbf003c 	lw	ra,60(sp)
806012d0:	9623001c 	lhu	v1,28(s1)
806012d4:	24040800 	li	a0,2048
806012d8:	3063f800 	andi	v1,v1,0xf800
806012dc:	14640058 	bne	v1,a0,80601440 <EnWonderTalk_TalkedTo+0x1b0>
806012e0:	24020001 	li	v0,1
806012e4:	3403fe88 	li	v1,0xfe88
806012e8:	02038021 	addu	s0,s0,v1
806012ec:	3c038012 	lui	v1,0x8012
806012f0:	8c72a5d4 	lw	s2,-23084(v1)
806012f4:	1642005d 	bne	s2,v0,8060146c <EnWonderTalk_TalkedTo+0x1dc>
806012f8:	afb00010 	sw	s0,16(sp)
806012fc:	0000a025 	move	s4,zero
80601300:	24130003 	li	s3,3
80601304:	3c108062 	lui	s0,0x8062
80601308:	27a40010 	addiu	a0,sp,16
8060130c:	26105f60 	addiu	s0,s0,24416
80601310:	3c168061 	lui	s6,0x8061
80601314:	3c158061 	lui	s5,0x8061
80601318:	3c178061 	lui	s7,0x8061
8060131c:	0c18276a 	jal	80609da8 <comboTextAppendHeader>
80601320:	3c1e8061 	lui	s8,0x8061
80601324:	02148021 	addu	s0,s0,s4
80601328:	00008825 	move	s1,zero
8060132c:	26d6d8e4 	addiu	s6,s6,-10012
80601330:	26b5d94c 	addiu	s5,s5,-9908
80601334:	26f7d8e8 	addiu	s7,s7,-10008
80601338:	27ded8f0 	addiu	s8,s8,-10000
8060133c:	02c02825 	move	a1,s6
80601340:	0c182755 	jal	80609d54 <comboTextAppendStr>
80601344:	27a40010 	addiu	a0,sp,16
80601348:	02341021 	addu	v0,s1,s4
8060134c:	02a21021 	addu	v0,s5,v0
80601350:	80430000 	lb	v1,0(v0)
80601354:	8fa20010 	lw	v0,16(sp)
80601358:	24060003 	li	a2,3
8060135c:	a0430000 	sb	v1,0(v0)
80601360:	8fa20010 	lw	v0,16(sp)
80601364:	92050040 	lbu	a1,64(s0)
80601368:	24420001 	addiu	v0,v0,1
8060136c:	27a40010 	addiu	a0,sp,16
80601370:	0c18287d 	jal	8060a1f4 <comboTextAppendRegionName>
80601374:	afa20010 	sw	v0,16(sp)
80601378:	02e02825 	move	a1,s7
8060137c:	0c182755 	jal	80609d54 <comboTextAppendStr>
80601380:	27a40010 	addiu	a0,sp,16
80601384:	2662ffff 	addiu	v0,s3,-1
80601388:	14510006 	bne	v0,s1,806013a4 <EnWonderTalk_TalkedTo+0x114>
8060138c:	03c02825 	move	a1,s8
80601390:	24020001 	li	v0,1
80601394:	12420004 	beq	s2,v0,806013a8 <EnWonderTalk_TalkedTo+0x118>
80601398:	27a40010 	addiu	a0,sp,16
8060139c:	3c058061 	lui	a1,0x8061
806013a0:	24a5d8ec 	addiu	a1,a1,-10004
806013a4:	27a40010 	addiu	a0,sp,16
806013a8:	0c182755 	jal	80609d54 <comboTextAppendStr>
806013ac:	26310001 	addiu	s1,s1,1
806013b0:	1671ffe2 	bne	s3,s1,8060133c <EnWonderTalk_TalkedTo+0xac>
806013b4:	26100001 	addiu	s0,s0,1
806013b8:	24020001 	li	v0,1
806013bc:	16420020 	bne	s2,v0,80601440 <EnWonderTalk_TalkedTo+0x1b0>
806013c0:	8fbf003c 	lw	ra,60(sp)
806013c4:	3c058061 	lui	a1,0x8061
806013c8:	24a5d8f4 	addiu	a1,a1,-9996
806013cc:	27a40010 	addiu	a0,sp,16
806013d0:	0c182755 	jal	80609d54 <comboTextAppendStr>
806013d4:	8fb00010 	lw	s0,16(sp)
806013d8:	0c182770 	jal	80609dc0 <comboTextAppendClearColor>
806013dc:	27a40010 	addiu	a0,sp,16
806013e0:	3c058061 	lui	a1,0x8061
806013e4:	24a5d934 	addiu	a1,a1,-9932
806013e8:	0c182755 	jal	80609d54 <comboTextAppendStr>
806013ec:	27a40010 	addiu	a0,sp,16
806013f0:	2406000c 	li	a2,12
806013f4:	2405001d 	li	a1,29
806013f8:	0c182977 	jal	8060a5dc <comboTextAppendNpcReward>
806013fc:	27a40010 	addiu	a0,sp,16
80601400:	3c058061 	lui	a1,0x8061
80601404:	24a5d940 	addiu	a1,a1,-9920
80601408:	0c182755 	jal	80609d54 <comboTextAppendStr>
8060140c:	27a40010 	addiu	a0,sp,16
80601410:	2406008a 	li	a2,138
80601414:	2405001e 	li	a1,30
80601418:	0c182977 	jal	8060a5dc <comboTextAppendNpcReward>
8060141c:	27a40010 	addiu	a0,sp,16
80601420:	3c058061 	lui	a1,0x8061
80601424:	27a40010 	addiu	a0,sp,16
80601428:	0c182755 	jal	80609d54 <comboTextAppendStr>
8060142c:	24a5d948 	addiu	a1,a1,-9912
80601430:	0c182716 	jal	80609c58 <comboTextAutoLineBreaks>
80601434:	02002025 	move	a0,s0
80601438:	24020001 	li	v0,1
8060143c:	8fbf003c 	lw	ra,60(sp)
80601440:	8fbe0038 	lw	s8,56(sp)
80601444:	8fb70034 	lw	s7,52(sp)
80601448:	8fb60030 	lw	s6,48(sp)
8060144c:	8fb5002c 	lw	s5,44(sp)
80601450:	8fb40028 	lw	s4,40(sp)
80601454:	8fb30024 	lw	s3,36(sp)
80601458:	8fb20020 	lw	s2,32(sp)
8060145c:	8fb1001c 	lw	s1,28(sp)
80601460:	8fb00018 	lw	s0,24(sp)
80601464:	03e00008 	jr	ra
80601468:	27bd0040 	addiu	sp,sp,64
8060146c:	24140003 	li	s4,3
80601470:	1000ffa4 	b	80601304 <EnWonderTalk_TalkedTo+0x74>
80601474:	24130006 	li	s3,6

80601478 <BlitTexture.constprop.0>:
80601478:	00064080 	sll	t0,a2,0x2
8060147c:	44880000 	mtc1	t0,$f0
80601480:	3c0d8061 	lui	t5,0x8061
80601484:	27bdffd0 	addiu	sp,sp,-48
80601488:	c5a2d958 	lwc1	$f2,-9896(t5)
8060148c:	46800020 	cvt.s.w	$f0,$f0
80601490:	87aa0042 	lh	t2,66(sp)
80601494:	46020002 	mul.s	$f0,$f0,$f2
80601498:	00000000 	nop
8060149c:	000a5080 	sll	t2,t2,0x2
806014a0:	8c8202b0 	lw	v0,688(a0)
806014a4:	448a1000 	mtc1	t2,$f2
806014a8:	3c03e700 	lui	v1,0xe700
806014ac:	00064840 	sll	t1,a2,0x1
806014b0:	afb10010 	sw	s1,16(sp)
806014b4:	afbe002c 	sw	s8,44(sp)
806014b8:	afb70028 	sw	s7,40(sp)
806014bc:	afb60024 	sw	s6,36(sp)
806014c0:	afb50020 	sw	s5,32(sp)
806014c4:	afb4001c 	sw	s4,28(sp)
806014c8:	afb30018 	sw	s3,24(sp)
806014cc:	afb20014 	sw	s2,20(sp)
806014d0:	afb0000c 	sw	s0,12(sp)
806014d4:	468010a0 	cvt.s.w	$f2,$f2
806014d8:	ac430000 	sw	v1,0(v0)
806014dc:	25290007 	addiu	t1,t1,7
806014e0:	3c03e800 	lui	v1,0xe800
806014e4:	46020000 	add.s	$f0,$f0,$f2
806014e8:	ac430008 	sw	v1,8(v0)
806014ec:	000948c3 	sra	t1,t1,0x3
806014f0:	3c038061 	lui	v1,0x8061
806014f4:	c462d95c 	lwc1	$f2,-9892(v1)
806014f8:	ac400004 	sw	zero,4(v0)
806014fc:	244b0010 	addiu	t3,v0,16
80601500:	ac40000c 	sw	zero,12(v0)
80601504:	00094a40 	sll	t1,t1,0x9
80601508:	3c02f518 	lui	v0,0xf518
8060150c:	24cfffff 	addiu	t7,a2,-1
80601510:	01224825 	or	t1,t1,v0
80601514:	3c020700 	lui	v0,0x700
80601518:	000f7380 	sll	t6,t7,0xe
8060151c:	2442000c 	addiu	v0,v0,12
80601520:	4600103e 	c.le.s	$f2,$f0
80601524:	35d1000c 	ori	s1,t6,0xc
80601528:	4501006b 	bc1t	806016d8 <BlitTexture.constprop.0+0x260>
8060152c:	01c27025 	or	t6,t6,v0
80601530:	4600000d 	trunc.w.s	$f0,$f0
80601534:	44080000 	mfc1	t0,$f0
80601538:	3c0200ff 	lui	v0,0xff
8060153c:	3442f000 	ori	v0,v0,0xf000
80601540:	00084300 	sll	t0,t0,0xc
80601544:	01024024 	and	t0,t0,v0
80601548:	87a20046 	lh	v0,70(sp)
8060154c:	00073883 	sra	a3,a3,0x2
80601550:	00021080 	sll	v0,v0,0x2
80601554:	44820000 	mtc1	v0,$f0
80601558:	00076100 	sll	t4,a3,0x4
8060155c:	3c18fd18 	lui	t8,0xfd18
80601560:	c5a6d958 	lwc1	$f6,-9896(t5)
80601564:	c464d95c 	lwc1	$f4,-9892(v1)
80601568:	3c0d0627 	lui	t5,0x627
8060156c:	afac0004 	sw	t4,4(sp)
80601570:	01f87825 	or	t7,t7,t8
80601574:	468000a0 	cvt.s.w	$f2,$f0
80601578:	000a5300 	sll	t2,t2,0xc
8060157c:	01601025 	move	v0,t3
80601580:	00063100 	sll	a2,a2,0x4
80601584:	00006025 	move	t4,zero
80601588:	3c120700 	lui	s2,0x700
8060158c:	3c13e600 	lui	s3,0xe600
80601590:	3c14f400 	lui	s4,0xf400
80601594:	3c15e700 	lui	s5,0xe700
80601598:	3c16f200 	lui	s6,0xf200
8060159c:	3c17e800 	lui	s7,0xe800
806015a0:	3c198000 	lui	t9,0x8000
806015a4:	3c1ee400 	lui	s8,0xe400
806015a8:	3c10e100 	lui	s0,0xe100
806015ac:	3c18f100 	lui	t8,0xf100
806015b0:	25ad0627 	addiu	t5,t5,1575
806015b4:	afac0000 	sw	t4,0(sp)
806015b8:	258c0010 	addiu	t4,t4,16
806015bc:	448c0000 	mtc1	t4,$f0
806015c0:	ac4f0000 	sw	t7,0(v0)
806015c4:	46800020 	cvt.s.w	$f0,$f0
806015c8:	46060002 	mul.s	$f0,$f0,$f6
806015cc:	00000000 	nop
806015d0:	ac450004 	sw	a1,4(v0)
806015d4:	ac490008 	sw	t1,8(v0)
806015d8:	ac52000c 	sw	s2,12(v0)
806015dc:	ac530010 	sw	s3,16(v0)
806015e0:	46020000 	add.s	$f0,$f0,$f2
806015e4:	ac400014 	sw	zero,20(v0)
806015e8:	ac540018 	sw	s4,24(v0)
806015ec:	4600203e 	c.le.s	$f4,$f0
806015f0:	ac4e001c 	sw	t6,28(v0)
806015f4:	ac550020 	sw	s5,32(v0)
806015f8:	ac400024 	sw	zero,36(v0)
806015fc:	ac490028 	sw	t1,40(v0)
80601600:	ac40002c 	sw	zero,44(v0)
80601604:	ac560030 	sw	s6,48(v0)
80601608:	ac510034 	sw	s1,52(v0)
8060160c:	ac570038 	sw	s7,56(v0)
80601610:	45010037 	bc1t	806016f0 <BlitTexture.constprop.0+0x278>
80601614:	ac40003c 	sw	zero,60(v0)
80601618:	4600000d 	trunc.w.s	$f0,$f0
8060161c:	44030000 	mfc1	v1,$f0
80601620:	c7a00000 	lwc1	$f0,0(sp)
80601624:	30630fff 	andi	v1,v1,0xfff
80601628:	46800020 	cvt.s.w	$f0,$f0
8060162c:	46060002 	mul.s	$f0,$f0,$f6
80601630:	00000000 	nop
80601634:	00681825 	or	v1,v1,t0
80601638:	007e1825 	or	v1,v1,s8
8060163c:	46020000 	add.s	$f0,$f0,$f2
80601640:	4600203e 	c.le.s	$f4,$f0
80601644:	00000000 	nop
80601648:	4501002e 	bc1t	80601704 <BlitTexture.constprop.0+0x28c>
8060164c:	ac430040 	sw	v1,64(v0)
80601650:	4600000d 	trunc.w.s	$f0,$f0
80601654:	44030000 	mfc1	v1,$f0
80601658:	00000000 	nop
8060165c:	30630fff 	andi	v1,v1,0xfff
80601660:	006a1825 	or	v1,v1,t2
80601664:	ac430044 	sw	v1,68(v0)
80601668:	8fa30004 	lw	v1,4(sp)
8060166c:	ac500048 	sw	s0,72(v0)
80601670:	ac40004c 	sw	zero,76(v0)
80601674:	ac580050 	sw	t8,80(v0)
80601678:	ac4d0054 	sw	t5,84(v0)
8060167c:	00a62821 	addu	a1,a1,a2
80601680:	1583ffcc 	bne	t4,v1,806015b4 <BlitTexture.constprop.0+0x13c>
80601684:	24420058 	addiu	v0,v0,88
80601688:	24020058 	li	v0,88
8060168c:	00e20018 	mult	a3,v0
80601690:	8fbe002c 	lw	s8,44(sp)
80601694:	8fb70028 	lw	s7,40(sp)
80601698:	8fb60024 	lw	s6,36(sp)
8060169c:	8fb50020 	lw	s5,32(sp)
806016a0:	00001812 	mflo	v1
806016a4:	2462ffa8 	addiu	v0,v1,-88
806016a8:	01621021 	addu	v0,t3,v0
806016ac:	01635821 	addu	t3,t3,v1
806016b0:	8fb4001c 	lw	s4,28(sp)
806016b4:	8fb30018 	lw	s3,24(sp)
806016b8:	8fb20014 	lw	s2,20(sp)
806016bc:	8fb10010 	lw	s1,16(sp)
806016c0:	8fb0000c 	lw	s0,12(sp)
806016c4:	ac8b02b0 	sw	t3,688(a0)
806016c8:	ac580050 	sw	t8,80(v0)
806016cc:	ac4d0054 	sw	t5,84(v0)
806016d0:	03e00008 	jr	ra
806016d4:	27bd0030 	addiu	sp,sp,48
806016d8:	46020001 	sub.s	$f0,$f0,$f2
806016dc:	3c028000 	lui	v0,0x8000
806016e0:	4600000d 	trunc.w.s	$f0,$f0
806016e4:	44080000 	mfc1	t0,$f0
806016e8:	1000ff93 	b	80601538 <BlitTexture.constprop.0+0xc0>
806016ec:	01024025 	or	t0,t0,v0
806016f0:	46040001 	sub.s	$f0,$f0,$f4
806016f4:	4600000d 	trunc.w.s	$f0,$f0
806016f8:	44030000 	mfc1	v1,$f0
806016fc:	1000ffc8 	b	80601620 <BlitTexture.constprop.0+0x1a8>
80601700:	00791825 	or	v1,v1,t9
80601704:	46040001 	sub.s	$f0,$f0,$f4
80601708:	4600000d 	trunc.w.s	$f0,$f0
8060170c:	44030000 	mfc1	v1,$f0
80601710:	1000ffd2 	b	8060165c <BlitTexture.constprop.0+0x1e4>
80601714:	00791825 	or	v1,v1,t9

80601718 <EnMag_BeforeUpdate>:
80601718:	3c028062 	lui	v0,0x8062
8060171c:	8c425e48 	lw	v0,24136(v0)
80601720:	1040000b 	beqz	v0,80601750 <EnMag_BeforeUpdate+0x38>
80601724:	3c020001 	lui	v0,0x1
80601728:	00a22821 	addu	a1,a1,v0
8060172c:	90a21e15 	lbu	v0,7701(a1)
80601730:	14400007 	bnez	v0,80601750 <EnMag_BeforeUpdate+0x38>
80601734:	3c028012 	lui	v0,0x8012
80601738:	24030002 	li	v1,2
8060173c:	ac43b92c 	sw	v1,-18132(v0)
80601740:	24020014 	li	v0,20
80601744:	a0a21e15 	sb	v0,7701(a1)
80601748:	24020004 	li	v0,4
8060174c:	a0a21e5e 	sb	v0,7774(a1)
80601750:	03e00008 	jr	ra
80601754:	00000000 	nop

80601758 <EnMag_AfterDraw>:
80601758:	27bdffd8 	addiu	sp,sp,-40
8060175c:	afb1001c 	sw	s1,28(sp)
80601760:	3c118061 	lui	s1,0x8061
80601764:	8e225d2c 	lw	v0,23852(s1)
80601768:	afb20020 	sw	s2,32(sp)
8060176c:	afb00018 	sw	s0,24(sp)
80601770:	afbf0024 	sw	ra,36(sp)
80601774:	00808025 	move	s0,a0
80601778:	1440000a 	bnez	v0,806017a4 <EnMag_AfterDraw+0x4c>
8060177c:	00a09025 	move	s2,a1
80601780:	24051115 	li	a1,4373
80601784:	0c182615 	jal	80609854 <comboLoadObject>
80601788:	00002025 	move	a0,zero
8060178c:	0c033688 	jal	800cda20 <malloc>
80601790:	00402025 	move	a0,v0
80601794:	00402025 	move	a0,v0
80601798:	24051115 	li	a1,4373
8060179c:	0c182615 	jal	80609854 <comboLoadObject>
806017a0:	ae225d2c 	sw	v0,23852(s1)
806017a4:	8e440000 	lw	a0,0(s2)
806017a8:	3c020001 	lui	v0,0x1
806017ac:	02028021 	addu	s0,s0,v0
806017b0:	8c8202b0 	lw	v0,688(a0)
806017b4:	3c03d900 	lui	v1,0xd900
806017b8:	c600e2f0 	lwc1	$f0,-7440(s0)
806017bc:	ac430000 	sw	v1,0(v0)
806017c0:	3c03e300 	lui	v1,0xe300
806017c4:	24651a01 	addiu	a1,v1,6657
806017c8:	ac450008 	sw	a1,8(v0)
806017cc:	24050030 	li	a1,48
806017d0:	ac45000c 	sw	a1,12(v0)
806017d4:	24651801 	addiu	a1,v1,6145
806017d8:	ac450010 	sw	a1,16(v0)
806017dc:	240500c0 	li	a1,192
806017e0:	ac450014 	sw	a1,20(v0)
806017e4:	3c05e200 	lui	a1,0xe200
806017e8:	24a71e01 	addiu	a3,a1,7681
806017ec:	ac470018 	sw	a3,24(v0)
806017f0:	24a71d00 	addiu	a3,a1,7424
806017f4:	ac470020 	sw	a3,32(v0)
806017f8:	24070004 	li	a3,4
806017fc:	ac470024 	sw	a3,36(v0)
80601800:	3c07fc11 	lui	a3,0xfc11
80601804:	34e79623 	ori	a3,a3,0x9623
80601808:	ac470028 	sw	a3,40(v0)
8060180c:	3c07ff2f 	lui	a3,0xff2f
80601810:	34e7ffff 	ori	a3,a3,0xffff
80601814:	ac47002c 	sw	a3,44(v0)
80601818:	24671700 	addiu	a3,v1,5888
8060181c:	ac470030 	sw	a3,48(v0)
80601820:	24671402 	addiu	a3,v1,5122
80601824:	ac470038 	sw	a3,56(v0)
80601828:	24070c00 	li	a3,3072
8060182c:	ac47003c 	sw	a3,60(v0)
80601830:	24670d01 	addiu	a3,v1,3329
80601834:	ac470040 	sw	a3,64(v0)
80601838:	24670c00 	addiu	a3,v1,3072
8060183c:	ac470048 	sw	a3,72(v0)
80601840:	24670f00 	addiu	a3,v1,3840
80601844:	ac470050 	sw	a3,80(v0)
80601848:	24a5001c 	addiu	a1,a1,28
8060184c:	24671001 	addiu	a3,v1,4097
80601850:	ac470058 	sw	a3,88(v0)
80601854:	ac450070 	sw	a1,112(v0)
80601858:	24670800 	addiu	a3,v1,2048
8060185c:	3c050050 	lui	a1,0x50
80601860:	ac470060 	sw	a3,96(v0)
80601864:	24a54240 	addiu	a1,a1,16960
80601868:	24670a01 	addiu	a3,v1,2561
8060186c:	4600000d 	trunc.w.s	$f0,$f0
80601870:	24631201 	addiu	v1,v1,4609
80601874:	ac400004 	sw	zero,4(v0)
80601878:	ac40001c 	sw	zero,28(v0)
8060187c:	ac400034 	sw	zero,52(v0)
80601880:	ac400044 	sw	zero,68(v0)
80601884:	ac40004c 	sw	zero,76(v0)
80601888:	ac400054 	sw	zero,84(v0)
8060188c:	ac40005c 	sw	zero,92(v0)
80601890:	ac400064 	sw	zero,100(v0)
80601894:	ac470068 	sw	a3,104(v0)
80601898:	ac40006c 	sw	zero,108(v0)
8060189c:	44060000 	mfc1	a2,$f0
806018a0:	ac450074 	sw	a1,116(v0)
806018a4:	24450080 	addiu	a1,v0,128
806018a8:	ac8502b0 	sw	a1,688(a0)
806018ac:	ac430078 	sw	v1,120(v0)
806018b0:	24032000 	li	v1,8192
806018b4:	10c0002a 	beqz	a2,80601960 <EnMag_AfterDraw+0x208>
806018b8:	ac43007c 	sw	v1,124(v0)
806018bc:	24430088 	addiu	v1,v0,136
806018c0:	ac8302b0 	sw	v1,688(a0)
806018c4:	3c03fa00 	lui	v1,0xfa00
806018c8:	ac430080 	sw	v1,128(v0)
806018cc:	2403ff00 	li	v1,-256
806018d0:	00c33025 	or	a2,a2,v1
806018d4:	ac460084 	sw	a2,132(v0)
806018d8:	24020032 	li	v0,50
806018dc:	afa20014 	sw	v0,20(sp)
806018e0:	3c050600 	lui	a1,0x600
806018e4:	2402001e 	li	v0,30
806018e8:	afa20010 	sw	v0,16(sp)
806018ec:	240700a0 	li	a3,160
806018f0:	240600a0 	li	a2,160
806018f4:	0c18051e 	jal	80601478 <BlitTexture.constprop.0>
806018f8:	24a50300 	addiu	a1,a1,768
806018fc:	8c8202b0 	lw	v0,688(a0)
80601900:	3c050601 	lui	a1,0x601
80601904:	24430008 	addiu	v1,v0,8
80601908:	ac8302b0 	sw	v1,688(a0)
8060190c:	3c03db06 	lui	v1,0xdb06
80601910:	24630018 	addiu	v1,v1,24
80601914:	ac430000 	sw	v1,0(v0)
80601918:	8e235d2c 	lw	v1,23852(s1)
8060191c:	24070070 	li	a3,112
80601920:	ac430004 	sw	v1,4(v0)
80601924:	24020041 	li	v0,65
80601928:	afa20014 	sw	v0,20(sp)
8060192c:	240200a5 	li	v0,165
80601930:	afa20010 	sw	v0,16(sp)
80601934:	24060080 	li	a2,128
80601938:	0c18051e 	jal	80601478 <BlitTexture.constprop.0>
8060193c:	24a51e48 	addiu	a1,a1,7752
80601940:	24020055 	li	v0,85
80601944:	afa20014 	sw	v0,20(sp)
80601948:	240200be 	li	v0,190
8060194c:	afa20010 	sw	v0,16(sp)
80601950:	24070040 	li	a3,64
80601954:	24060090 	li	a2,144
80601958:	0c18051e 	jal	80601478 <BlitTexture.constprop.0>
8060195c:	3c050600 	lui	a1,0x600
80601960:	8fbf0024 	lw	ra,36(sp)
80601964:	8fb20020 	lw	s2,32(sp)
80601968:	8fb1001c 	lw	s1,28(sp)
8060196c:	8fb00018 	lw	s0,24(sp)
80601970:	03e00008 	jr	ra
80601974:	27bd0028 	addiu	sp,sp,40

80601978 <EnToryo_GiveItem>:
80601978:	8ca21c44 	lw	v0,7236(a1)
8060197c:	27bdffc8 	addiu	sp,sp,-56
80601980:	8c42066c 	lw	v0,1644(v0)
80601984:	afb20020 	sw	s2,32(sp)
80601988:	30420400 	andi	v0,v0,0x400
8060198c:	afb1001c 	sw	s1,28(sp)
80601990:	afb00018 	sw	s0,24(sp)
80601994:	f7b60030 	sdc1	$f22,48(sp)
80601998:	f7b40028 	sdc1	$f20,40(sp)
8060199c:	c7b60048 	lwc1	$f22,72(sp)
806019a0:	4487a000 	mtc1	a3,$f20
806019a4:	afbf0024 	sw	ra,36(sp)
806019a8:	00808825 	move	s1,a0
806019ac:	00a08025 	move	s0,a1
806019b0:	14400003 	bnez	v0,806019c0 <EnToryo_GiveItem+0x48>
806019b4:	00c09025 	move	s2,a2
806019b8:	0c035886 	jal	800d6218 <Message_Close>
806019bc:	00a02025 	move	a0,a1
806019c0:	02403825 	move	a3,s2
806019c4:	24060046 	li	a2,70
806019c8:	00002825 	move	a1,zero
806019cc:	0c18316d 	jal	8060c5b4 <comboOverride>
806019d0:	24040002 	li	a0,2
806019d4:	24040005 	li	a0,5
806019d8:	0c180106 	jal	80600418 <comboRemoveTradeItemAdult>
806019dc:	afa20010 	sw	v0,16(sp)
806019e0:	e7b60048 	swc1	$f22,72(sp)
806019e4:	8fa60010 	lw	a2,16(sp)
806019e8:	8fbf0024 	lw	ra,36(sp)
806019ec:	8fb20020 	lw	s2,32(sp)
806019f0:	d7b60030 	ldc1	$f22,48(sp)
806019f4:	4407a000 	mfc1	a3,$f20
806019f8:	02002825 	move	a1,s0
806019fc:	d7b40028 	ldc1	$f20,40(sp)
80601a00:	8fb00018 	lw	s0,24(sp)
80601a04:	02202025 	move	a0,s1
80601a08:	8fb1001c 	lw	s1,28(sp)
80601a0c:	08008af5 	j	80022bd4 <GiveItem>
80601a10:	27bd0038 	addiu	sp,sp,56

80601a14 <EnGm_GetState>:
80601a14:	3c038012 	lui	v1,0x8012
80601a18:	2463a5d0 	addiu	v1,v1,-23088
80601a1c:	8c650004 	lw	a1,4(v1)
80601a20:	24040001 	li	a0,1
80601a24:	10a40006 	beq	a1,a0,80601a40 <EnGm_GetState+0x2c>
80601a28:	00001025 	move	v0,zero
80601a2c:	94630f0e 	lhu	v1,3854(v1)
80601a30:	30630004 	andi	v1,v1,0x4
80601a34:	10600002 	beqz	v1,80601a40 <EnGm_GetState+0x2c>
80601a38:	24020001 	li	v0,1
80601a3c:	24020003 	li	v0,3
80601a40:	03e00008 	jr	ra
80601a44:	00000000 	nop

80601a48 <EnGm_GiveItem>:
80601a48:	27bdffd0 	addiu	sp,sp,-48
80601a4c:	f7b60028 	sdc1	$f22,40(sp)
80601a50:	f7b40020 	sdc1	$f20,32(sp)
80601a54:	c7b60040 	lwc1	$f22,64(sp)
80601a58:	4487a000 	mtc1	a3,$f20
80601a5c:	afb10018 	sw	s1,24(sp)
80601a60:	afb00014 	sw	s0,20(sp)
80601a64:	00a08825 	move	s1,a1
80601a68:	00808025 	move	s0,a0
80601a6c:	00c03825 	move	a3,a2
80601a70:	00002825 	move	a1,zero
80601a74:	24060025 	li	a2,37
80601a78:	afbf001c 	sw	ra,28(sp)
80601a7c:	0c18316d 	jal	8060c5b4 <comboOverride>
80601a80:	24040002 	li	a0,2
80601a84:	e7b60040 	swc1	$f22,64(sp)
80601a88:	8fbf001c 	lw	ra,28(sp)
80601a8c:	d7b60028 	ldc1	$f22,40(sp)
80601a90:	4407a000 	mfc1	a3,$f20
80601a94:	02202825 	move	a1,s1
80601a98:	d7b40020 	ldc1	$f20,32(sp)
80601a9c:	8fb10018 	lw	s1,24(sp)
80601aa0:	02002025 	move	a0,s0
80601aa4:	8fb00014 	lw	s0,20(sp)
80601aa8:	00403025 	move	a2,v0
80601aac:	08008af5 	j	80022bd4 <GiveItem>
80601ab0:	27bd0030 	addiu	sp,sp,48

80601ab4 <EnGm_HasGivenItem>:
80601ab4:	27bdffe8 	addiu	sp,sp,-24
80601ab8:	afbf0014 	sw	ra,20(sp)
80601abc:	0c008aec 	jal	80022bb0 <Actor_HasParent>
80601ac0:	00000000 	nop
80601ac4:	10400008 	beqz	v0,80601ae8 <EnGm_HasGivenItem+0x34>
80601ac8:	8fbf0014 	lw	ra,20(sp)
80601acc:	3c028012 	lui	v0,0x8012
80601ad0:	2442a5d0 	addiu	v0,v0,-23088
80601ad4:	94430f0e 	lhu	v1,3854(v0)
80601ad8:	34630004 	ori	v1,v1,0x4
80601adc:	a4430f0e 	sh	v1,3854(v0)
80601ae0:	24020001 	li	v0,1
80601ae4:	8fbf0014 	lw	ra,20(sp)
80601ae8:	03e00008 	jr	ra
80601aec:	27bd0018 	addiu	sp,sp,24

80601af0 <EnGm_TalkedTo>:
80601af0:	27bdffd8 	addiu	sp,sp,-40
80601af4:	afb0001c 	sw	s0,28(sp)
80601af8:	3c108061 	lui	s0,0x8061
80601afc:	92025d30 	lbu	v0,23856(s0)
80601b00:	afbf0024 	sw	ra,36(sp)
80601b04:	1040001b 	beqz	v0,80601b74 <EnGm_TalkedTo+0x84>
80601b08:	afb10020 	sw	s1,32(sp)
80601b0c:	3402fe88 	li	v0,0xfe88
80601b10:	a2005d30 	sb	zero,23856(s0)
80601b14:	27a40010 	addiu	a0,sp,16
80601b18:	00a28021 	addu	s0,a1,v0
80601b1c:	0c18276a 	jal	80609da8 <comboTextAppendHeader>
80601b20:	afb00010 	sw	s0,16(sp)
80601b24:	3c058061 	lui	a1,0x8061
80601b28:	24a5d960 	addiu	a1,a1,-9888
80601b2c:	0c182755 	jal	80609d54 <comboTextAppendStr>
80601b30:	27a40010 	addiu	a0,sp,16
80601b34:	24060028 	li	a2,40
80601b38:	24050025 	li	a1,37
80601b3c:	0c182977 	jal	8060a5dc <comboTextAppendNpcReward>
80601b40:	27a40010 	addiu	a0,sp,16
80601b44:	3c058061 	lui	a1,0x8061
80601b48:	24a5d974 	addiu	a1,a1,-9868
80601b4c:	0c182755 	jal	80609d54 <comboTextAppendStr>
80601b50:	27a40010 	addiu	a0,sp,16
80601b54:	0c182716 	jal	80609c58 <comboTextAutoLineBreaks>
80601b58:	02002025 	move	a0,s0
80601b5c:	24020001 	li	v0,1
80601b60:	8fbf0024 	lw	ra,36(sp)
80601b64:	8fb10020 	lw	s1,32(sp)
80601b68:	8fb0001c 	lw	s0,28(sp)
80601b6c:	03e00008 	jr	ra
80601b70:	27bd0028 	addiu	sp,sp,40
80601b74:	0c008a4c 	jal	80022930 <ActorTalkedTo>
80601b78:	00808825 	move	s1,a0
80601b7c:	1040fff9 	beqz	v0,80601b64 <EnGm_TalkedTo+0x74>
80601b80:	8fbf0024 	lw	ra,36(sp)
80601b84:	9624010e 	lhu	a0,270(s1)
80601b88:	2403304f 	li	v1,12367
80601b8c:	1483fff5 	bne	a0,v1,80601b64 <EnGm_TalkedTo+0x74>
80601b90:	24020001 	li	v0,1
80601b94:	a2025d30 	sb	v0,23856(s0)
80601b98:	1000fff1 	b	80601b60 <EnGm_TalkedTo+0x70>
80601b9c:	00001025 	move	v0,zero

80601ba0 <EnBox_Item.isra.0>:
80601ba0:	94a500a4 	lhu	a1,164(a1)
80601ba4:	24030010 	li	v1,16
80601ba8:	00c01025 	move	v0,a2
80601bac:	14a30006 	bne	a1,v1,80601bc8 <EnBox_Item.isra.0+0x28>
80601bb0:	3086001f 	andi	a2,a0,0x1f
80601bb4:	2403000a 	li	v1,10
80601bb8:	14c30003 	bne	a2,v1,80601bc8 <EnBox_Item.isra.0+0x28>
80601bbc:	2403ff8b 	li	v1,-117
80601bc0:	1043000c 	beq	v0,v1,80601bf4 <EnBox_Item.isra.0+0x54>
80601bc4:	00000000 	nop
80601bc8:	27bdffe0 	addiu	sp,sp,-32
80601bcc:	10e00002 	beqz	a3,80601bd8 <EnBox_Item.isra.0+0x38>
80601bd0:	afbf001c 	sw	ra,28(sp)
80601bd4:	24070003 	li	a3,3
80601bd8:	afa70010 	sw	a3,16(sp)
80601bdc:	00002025 	move	a0,zero
80601be0:	0c183126 	jal	8060c498 <comboOverrideEx>
80601be4:	00403825 	move	a3,v0
80601be8:	8fbf001c 	lw	ra,28(sp)
80601bec:	03e00008 	jr	ra
80601bf0:	27bd0020 	addiu	sp,sp,32
80601bf4:	03e00008 	jr	ra
80601bf8:	00000000 	nop

80601bfc <EnBox_GiveItem>:
80601bfc:	27bdffe0 	addiu	sp,sp,-32
80601c00:	afb00014 	sw	s0,20(sp)
80601c04:	00808025 	move	s0,a0
80601c08:	9484001c 	lhu	a0,28(a0)
80601c0c:	afb10018 	sw	s1,24(sp)
80601c10:	24070001 	li	a3,1
80601c14:	afbf001c 	sw	ra,28(sp)
80601c18:	0c1806e8 	jal	80601ba0 <EnBox_Item.isra.0>
80601c1c:	00a08825 	move	s1,a1
80601c20:	8fbf001c 	lw	ra,28(sp)
80601c24:	02202825 	move	a1,s1
80601c28:	02002025 	move	a0,s0
80601c2c:	8fb10018 	lw	s1,24(sp)
80601c30:	8fb00014 	lw	s0,20(sp)
80601c34:	00403025 	move	a2,v0
80601c38:	08008b3d 	j	80022cf4 <GiveItemDefaultRange>
80601c3c:	27bd0020 	addiu	sp,sp,32

80601c40 <EnBox_InitWrapper>:
80601c40:	27bdffe0 	addiu	sp,sp,-32
80601c44:	afb10018 	sw	s1,24(sp)
80601c48:	00a08825 	move	s1,a1
80601c4c:	3c058086 	lui	a1,0x8086
80601c50:	afb00014 	sw	s0,20(sp)
80601c54:	34a587e8 	ori	a1,a1,0x87e8
80601c58:	00808025 	move	s0,a0
80601c5c:	afbf001c 	sw	ra,28(sp)
80601c60:	0c1830f9 	jal	8060c3e4 <actorAddr>
80601c64:	2404000a 	li	a0,10
80601c68:	02202825 	move	a1,s1
80601c6c:	0040f809 	jalr	v0
80601c70:	02002025 	move	a0,s0
80601c74:	9604001c 	lhu	a0,28(s0)
80601c78:	02202825 	move	a1,s1
80601c7c:	2406ffff 	li	a2,-1
80601c80:	0c1806e8 	jal	80601ba0 <EnBox_Item.isra.0>
80601c84:	00003825 	move	a3,zero
80601c88:	8fbf001c 	lw	ra,28(sp)
80601c8c:	02202825 	move	a1,s1
80601c90:	02002025 	move	a0,s0
80601c94:	8fb10018 	lw	s1,24(sp)
80601c98:	8fb00014 	lw	s0,20(sp)
80601c9c:	00403025 	move	a2,v0
80601ca0:	081829a7 	j	8060a69c <comboCsmcInit>
80601ca4:	27bd0020 	addiu	sp,sp,32

80601ca8 <EnBox_DrawWrapper>:
80601ca8:	27bdffe0 	addiu	sp,sp,-32
80601cac:	afb00014 	sw	s0,20(sp)
80601cb0:	00808025 	move	s0,a0
80601cb4:	9484001c 	lhu	a0,28(a0)
80601cb8:	00003825 	move	a3,zero
80601cbc:	2406ffff 	li	a2,-1
80601cc0:	afbf001c 	sw	ra,28(sp)
80601cc4:	afb10018 	sw	s1,24(sp)
80601cc8:	0c1806e8 	jal	80601ba0 <EnBox_Item.isra.0>
80601ccc:	00a08825 	move	s1,a1
80601cd0:	00403025 	move	a2,v0
80601cd4:	02202825 	move	a1,s1
80601cd8:	0c1829f9 	jal	8060a7e4 <comboCsmcPreDraw>
80601cdc:	02002025 	move	a0,s0
80601ce0:	3c058086 	lui	a1,0x8086
80601ce4:	34a59e68 	ori	a1,a1,0x9e68
80601ce8:	0c1830f9 	jal	8060c3e4 <actorAddr>
80601cec:	2404000a 	li	a0,10
80601cf0:	8fbf001c 	lw	ra,28(sp)
80601cf4:	02202825 	move	a1,s1
80601cf8:	02002025 	move	a0,s0
80601cfc:	8fb10018 	lw	s1,24(sp)
80601d00:	8fb00014 	lw	s0,20(sp)
80601d04:	0040c825 	move	t9,v0
80601d08:	03200008 	jr	t9
80601d0c:	27bd0020 	addiu	sp,sp,32

80601d10 <EnHs_GiveItem>:
80601d10:	8ca21c44 	lw	v0,7236(a1)
80601d14:	27bdffc8 	addiu	sp,sp,-56
80601d18:	8c42066c 	lw	v0,1644(v0)
80601d1c:	afb20020 	sw	s2,32(sp)
80601d20:	30420400 	andi	v0,v0,0x400
80601d24:	afb1001c 	sw	s1,28(sp)
80601d28:	afb00018 	sw	s0,24(sp)
80601d2c:	f7b60030 	sdc1	$f22,48(sp)
80601d30:	f7b40028 	sdc1	$f20,40(sp)
80601d34:	c7b60048 	lwc1	$f22,72(sp)
80601d38:	4487a000 	mtc1	a3,$f20
80601d3c:	afbf0024 	sw	ra,36(sp)
80601d40:	00808825 	move	s1,a0
80601d44:	00a08025 	move	s0,a1
80601d48:	14400003 	bnez	v0,80601d58 <EnHs_GiveItem+0x48>
80601d4c:	00c09025 	move	s2,a2
80601d50:	0c035886 	jal	800d6218 <Message_Close>
80601d54:	00a02025 	move	a0,a1
80601d58:	02403825 	move	a3,s2
80601d5c:	24060043 	li	a2,67
80601d60:	00002825 	move	a1,zero
80601d64:	0c18316d 	jal	8060c5b4 <comboOverride>
80601d68:	24040002 	li	a0,2
80601d6c:	24040002 	li	a0,2
80601d70:	0c180106 	jal	80600418 <comboRemoveTradeItemAdult>
80601d74:	afa20010 	sw	v0,16(sp)
80601d78:	e7b60048 	swc1	$f22,72(sp)
80601d7c:	8fa60010 	lw	a2,16(sp)
80601d80:	8fbf0024 	lw	ra,36(sp)
80601d84:	8fb20020 	lw	s2,32(sp)
80601d88:	d7b60030 	ldc1	$f22,48(sp)
80601d8c:	4407a000 	mfc1	a3,$f20
80601d90:	02002825 	move	a1,s0
80601d94:	d7b40028 	ldc1	$f20,40(sp)
80601d98:	8fb00018 	lw	s0,24(sp)
80601d9c:	02202025 	move	a0,s1
80601da0:	8fb1001c 	lw	s1,28(sp)
80601da4:	08008af5 	j	80022bd4 <GiveItem>
80601da8:	27bd0038 	addiu	sp,sp,56

80601dac <EnHs_InitHook>:
80601dac:	3c028012 	lui	v0,0x8012
80601db0:	9442a6b6 	lhu	v0,-22858(v0)
80601db4:	24030004 	li	v1,4
80601db8:	30420014 	andi	v0,v0,0x14
80601dbc:	10430003 	beq	v0,v1,80601dcc <EnHs_InitHook+0x20>
80601dc0:	00000000 	nop
80601dc4:	080083ad 	j	80020eb4 <ActorDestroy>
80601dc8:	00000000 	nop
80601dcc:	03e00008 	jr	ra
80601dd0:	00000000 	nop

80601dd4 <EnGb_GiveItem>:
80601dd4:	27bdffd0 	addiu	sp,sp,-48
80601dd8:	f7b60028 	sdc1	$f22,40(sp)
80601ddc:	f7b40020 	sdc1	$f20,32(sp)
80601de0:	c7b60040 	lwc1	$f22,64(sp)
80601de4:	4487a000 	mtc1	a3,$f20
80601de8:	afb10018 	sw	s1,24(sp)
80601dec:	afb00014 	sw	s0,20(sp)
80601df0:	00a08825 	move	s1,a1
80601df4:	00808025 	move	s0,a0
80601df8:	00c03825 	move	a3,a2
80601dfc:	00002825 	move	a1,zero
80601e00:	24060022 	li	a2,34
80601e04:	afbf001c 	sw	ra,28(sp)
80601e08:	0c18316d 	jal	8060c5b4 <comboOverride>
80601e0c:	24040002 	li	a0,2
80601e10:	e7b60040 	swc1	$f22,64(sp)
80601e14:	8fbf001c 	lw	ra,28(sp)
80601e18:	d7b60028 	ldc1	$f22,40(sp)
80601e1c:	4407a000 	mfc1	a3,$f20
80601e20:	02202825 	move	a1,s1
80601e24:	d7b40020 	ldc1	$f20,32(sp)
80601e28:	8fb10018 	lw	s1,24(sp)
80601e2c:	02002025 	move	a0,s0
80601e30:	8fb00014 	lw	s0,20(sp)
80601e34:	00403025 	move	a2,v0
80601e38:	08008af5 	j	80022bd4 <GiveItem>
80601e3c:	27bd0030 	addiu	sp,sp,48

80601e40 <EnDivingGame_GiveItem>:
80601e40:	27bdffd0 	addiu	sp,sp,-48
80601e44:	f7b60028 	sdc1	$f22,40(sp)
80601e48:	f7b40020 	sdc1	$f20,32(sp)
80601e4c:	c7b60040 	lwc1	$f22,64(sp)
80601e50:	4487a000 	mtc1	a3,$f20
80601e54:	afb10018 	sw	s1,24(sp)
80601e58:	afb00014 	sw	s0,20(sp)
80601e5c:	00a08825 	move	s1,a1
80601e60:	00808025 	move	s0,a0
80601e64:	00c03825 	move	a3,a2
80601e68:	00002825 	move	a1,zero
80601e6c:	24060003 	li	a2,3
80601e70:	afbf001c 	sw	ra,28(sp)
80601e74:	0c18316d 	jal	8060c5b4 <comboOverride>
80601e78:	24040002 	li	a0,2
80601e7c:	e7b60040 	swc1	$f22,64(sp)
80601e80:	8fbf001c 	lw	ra,28(sp)
80601e84:	d7b60028 	ldc1	$f22,40(sp)
80601e88:	4407a000 	mfc1	a3,$f20
80601e8c:	02202825 	move	a1,s1
80601e90:	d7b40020 	ldc1	$f20,32(sp)
80601e94:	8fb10018 	lw	s1,24(sp)
80601e98:	02002025 	move	a0,s0
80601e9c:	8fb00014 	lw	s0,20(sp)
80601ea0:	00403025 	move	a2,v0
80601ea4:	08008af5 	j	80022bd4 <GiveItem>
80601ea8:	27bd0030 	addiu	sp,sp,48

80601eac <EnGirlA_Draw>:
80601eac:	948201a8 	lhu	v0,424(a0)
80601eb0:	27bdffe0 	addiu	sp,sp,-32
80601eb4:	44820000 	mtc1	v0,$f0
80601eb8:	3c028061 	lui	v0,0x8061
80601ebc:	46800320 	cvt.s.w	$f12,$f0
80601ec0:	c440d998 	lwc1	$f0,-9832(v0)
80601ec4:	3c028061 	lui	v0,0x8061
80601ec8:	46006302 	mul.s	$f12,$f12,$f0
80601ecc:	00000000 	nop
80601ed0:	c440d99c 	lwc1	$f0,-9828(v0)
80601ed4:	3c028061 	lui	v0,0x8061
80601ed8:	afb00018 	sw	s0,24(sp)
80601edc:	afa50010 	sw	a1,16(sp)
80601ee0:	46006302 	mul.s	$f12,$f12,$f0
80601ee4:	00000000 	nop
80601ee8:	c440d9a0 	lwc1	$f0,-9824(v0)
80601eec:	00808025 	move	s0,a0
80601ef0:	afbf001c 	sw	ra,28(sp)
80601ef4:	46006302 	mul.s	$f12,$f12,$f0
80601ef8:	00000000 	nop
80601efc:	0c02aae5 	jal	800aab94 <ModelViewRotateY>
80601f00:	24050001 	li	a1,1
80601f04:	8fa40010 	lw	a0,16(sp)
80601f08:	8fbf001c 	lw	ra,28(sp)
80601f0c:	8e060194 	lw	a2,404(s0)
80601f10:	02002825 	move	a1,s0
80601f14:	8fb00018 	lw	s0,24(sp)
80601f18:	00003825 	move	a3,zero
80601f1c:	081817fb 	j	80605fec <comboDrawGI>
80601f20:	27bd0020 	addiu	sp,sp,32

80601f24 <EnGirlA_AfterInit2>:
80601f24:	3c028060 	lui	v0,0x8060
80601f28:	24425e8c 	addiu	v0,v0,24204
80601f2c:	03e00008 	jr	ra
80601f30:	ac8201ac 	sw	v0,428(a0)

80601f34 <checkSetEvent>:
80601f34:	27bdffe0 	addiu	sp,sp,-32
80601f38:	afb00014 	sw	s0,20(sp)
80601f3c:	00808025 	move	s0,a0
80601f40:	00a02025 	move	a0,a1
80601f44:	afb10018 	sw	s1,24(sp)
80601f48:	afbf001c 	sw	ra,28(sp)
80601f4c:	0c00a22d 	jal	800288b4 <GetEventChk>
80601f50:	00a08825 	move	s1,a1
80601f54:	10400009 	beqz	v0,80601f7c <checkSetEvent+0x48>
80601f58:	02002025 	move	a0,s0
80601f5c:	0c0083ad 	jal	80020eb4 <ActorDestroy>
80601f60:	00000000 	nop
80601f64:	24020001 	li	v0,1
80601f68:	8fbf001c 	lw	ra,28(sp)
80601f6c:	8fb10018 	lw	s1,24(sp)
80601f70:	8fb00014 	lw	s0,20(sp)
80601f74:	03e00008 	jr	ra
80601f78:	27bd0020 	addiu	sp,sp,32
80601f7c:	0c008aec 	jal	80022bb0 <Actor_HasParent>
80601f80:	00000000 	nop
80601f84:	1040fff9 	beqz	v0,80601f6c <checkSetEvent+0x38>
80601f88:	8fbf001c 	lw	ra,28(sp)
80601f8c:	0c00a238 	jal	800288e0 <SetEventChk>
80601f90:	02202025 	move	a0,s1
80601f94:	1000fff1 	b	80601f5c <checkSetEvent+0x28>
80601f98:	02002025 	move	a0,s0

80601f9c <EnXc_Update>:
80601f9c:	9482001c 	lhu	v0,28(a0)
80601fa0:	27bdffd8 	addiu	sp,sp,-40
80601fa4:	24030008 	li	v1,8
80601fa8:	afb1001c 	sw	s1,28(sp)
80601fac:	afb00018 	sw	s0,24(sp)
80601fb0:	afbf0024 	sw	ra,36(sp)
80601fb4:	afb20020 	sw	s2,32(sp)
80601fb8:	00808025 	move	s0,a0
80601fbc:	1043006a 	beq	v0,v1,80602168 <EnXc_Update+0x1cc>
80601fc0:	00a08825 	move	s1,a1
80601fc4:	2c430009 	sltiu	v1,v0,9
80601fc8:	1060000c 	beqz	v1,80601ffc <EnXc_Update+0x60>
80601fcc:	24030006 	li	v1,6
80601fd0:	1043001b 	beq	v0,v1,80602040 <EnXc_Update+0xa4>
80601fd4:	24030007 	li	v1,7
80601fd8:	10430039 	beq	v0,v1,806020c0 <EnXc_Update+0x124>
80601fdc:	00000000 	nop
80601fe0:	8fbf0024 	lw	ra,36(sp)
80601fe4:	8fb20020 	lw	s2,32(sp)
80601fe8:	8fb1001c 	lw	s1,28(sp)
80601fec:	02002025 	move	a0,s0
80601ff0:	8fb00018 	lw	s0,24(sp)
80601ff4:	080083ad 	j	80020eb4 <ActorDestroy>
80601ff8:	27bd0028 	addiu	sp,sp,40
80601ffc:	24030009 	li	v1,9
80602000:	1443fff7 	bne	v0,v1,80601fe0 <EnXc_Update+0x44>
80602004:	3c028012 	lui	v0,0x8012
80602008:	8c42a674 	lw	v0,-22924(v0)
8060200c:	30420001 	andi	v0,v0,0x1
80602010:	1440007b 	bnez	v0,80602200 <EnXc_Update+0x264>
80602014:	00000000 	nop
80602018:	0c0083ad 	jal	80020eb4 <ActorDestroy>
8060201c:	02002025 	move	a0,s0
80602020:	24050055 	li	a1,85
80602024:	0c1807cd 	jal	80601f34 <checkSetEvent>
80602028:	02002025 	move	a0,s0
8060202c:	1440001f 	bnez	v0,806020ac <EnXc_Update+0x110>
80602030:	8fbf0024 	lw	ra,36(sp)
80602034:	24070085 	li	a3,133
80602038:	1000000f 	b	80602078 <EnXc_Update+0xdc>
8060203c:	24060024 	li	a2,36
80602040:	0c1807cd 	jal	80601f34 <checkSetEvent>
80602044:	24050050 	li	a1,80
80602048:	14400018 	bnez	v0,806020ac <EnXc_Update+0x110>
8060204c:	8fbf0024 	lw	ra,36(sp)
80602050:	8e221c44 	lw	v0,7236(s1)
80602054:	c442002c 	lwc1	$f2,44(v0)
80602058:	3c028061 	lui	v0,0x8061
8060205c:	c440d9a4 	lwc1	$f0,-9820(v0)
80602060:	4600103c 	c.lt.s	$f2,$f0
80602064:	00000000 	nop
80602068:	45000011 	bc1f	806020b0 <EnXc_Update+0x114>
8060206c:	8fb20020 	lw	s2,32(sp)
80602070:	24070080 	li	a3,128
80602074:	24060018 	li	a2,24
80602078:	00002825 	move	a1,zero
8060207c:	0c18316d 	jal	8060c5b4 <comboOverride>
80602080:	24040002 	li	a0,2
80602084:	3c038061 	lui	v1,0x8061
80602088:	c460d80c 	lwc1	$f0,-10228(v1)
8060208c:	3c038061 	lui	v1,0x8061
80602090:	8c67d810 	lw	a3,-10224(v1)
80602094:	e7a00010 	swc1	$f0,16(sp)
80602098:	00403025 	move	a2,v0
8060209c:	02202825 	move	a1,s1
806020a0:	0c008af5 	jal	80022bd4 <GiveItem>
806020a4:	02002025 	move	a0,s0
806020a8:	8fbf0024 	lw	ra,36(sp)
806020ac:	8fb20020 	lw	s2,32(sp)
806020b0:	8fb1001c 	lw	s1,28(sp)
806020b4:	8fb00018 	lw	s0,24(sp)
806020b8:	03e00008 	jr	ra
806020bc:	27bd0028 	addiu	sp,sp,40
806020c0:	0c1807cd 	jal	80601f34 <checkSetEvent>
806020c4:	24050051 	li	a1,81
806020c8:	1440fff8 	bnez	v0,806020ac <EnXc_Update+0x110>
806020cc:	8fbf0024 	lw	ra,36(sp)
806020d0:	8e221c44 	lw	v0,7236(s1)
806020d4:	c4440024 	lwc1	$f4,36(v0)
806020d8:	c4420028 	lwc1	$f2,40(v0)
806020dc:	c440002c 	lwc1	$f0,44(v0)
806020e0:	3c028061 	lui	v0,0x8061
806020e4:	c446d9a8 	lwc1	$f6,-9816(v0)
806020e8:	4606203e 	c.le.s	$f4,$f6
806020ec:	00000000 	nop
806020f0:	4501ffee 	bc1t	806020ac <EnXc_Update+0x110>
806020f4:	3c028061 	lui	v0,0x8061
806020f8:	c446d9ac 	lwc1	$f6,-9812(v0)
806020fc:	4604303e 	c.le.s	$f6,$f4
80602100:	00000000 	nop
80602104:	4501ffe9 	bc1t	806020ac <EnXc_Update+0x110>
80602108:	3c028061 	lui	v0,0x8061
8060210c:	c444d9b0 	lwc1	$f4,-9808(v0)
80602110:	4604103e 	c.le.s	$f2,$f4
80602114:	00000000 	nop
80602118:	4501ffe4 	bc1t	806020ac <EnXc_Update+0x110>
8060211c:	3c028061 	lui	v0,0x8061
80602120:	c444d9b4 	lwc1	$f4,-9804(v0)
80602124:	4602203e 	c.le.s	$f4,$f2
80602128:	00000000 	nop
8060212c:	4501ffdf 	bc1t	806020ac <EnXc_Update+0x110>
80602130:	3c028061 	lui	v0,0x8061
80602134:	c442d9b8 	lwc1	$f2,-9800(v0)
80602138:	4602003e 	c.le.s	$f0,$f2
8060213c:	00000000 	nop
80602140:	4501ffda 	bc1t	806020ac <EnXc_Update+0x110>
80602144:	3c028061 	lui	v0,0x8061
80602148:	c442d9bc 	lwc1	$f2,-9796(v0)
8060214c:	4600103e 	c.le.s	$f2,$f0
80602150:	00000000 	nop
80602154:	4501ffd6 	bc1t	806020b0 <EnXc_Update+0x114>
80602158:	8fb20020 	lw	s2,32(sp)
8060215c:	24070081 	li	a3,129
80602160:	1000ffc5 	b	80602078 <EnXc_Update+0xdc>
80602164:	24060029 	li	a2,41
80602168:	0c1807cd 	jal	80601f34 <checkSetEvent>
8060216c:	24050052 	li	a1,82
80602170:	1440ffce 	bnez	v0,806020ac <EnXc_Update+0x110>
80602174:	8fbf0024 	lw	ra,36(sp)
80602178:	24050002 	li	a1,2
8060217c:	02202025 	move	a0,s1
80602180:	0c008183 	jal	8002060c <GetChestFlag>
80602184:	8e321c44 	lw	s2,7236(s1)
80602188:	1040ffc8 	beqz	v0,806020ac <EnXc_Update+0x110>
8060218c:	8fbf0024 	lw	ra,36(sp)
80602190:	8e42066c 	lw	v0,1644(s2)
80602194:	30420400 	andi	v0,v0,0x400
80602198:	10400003 	beqz	v0,806021a8 <EnXc_Update+0x20c>
8060219c:	3c128061 	lui	s2,0x8061
806021a0:	1000ffc1 	b	806020a8 <EnXc_Update+0x10c>
806021a4:	ae405d34 	sw	zero,23860(s2)
806021a8:	8e425d34 	lw	v0,23860(s2)
806021ac:	10400012 	beqz	v0,806021f8 <EnXc_Update+0x25c>
806021b0:	24420001 	addiu	v0,v0,1
806021b4:	24070082 	li	a3,130
806021b8:	2406002d 	li	a2,45
806021bc:	00002825 	move	a1,zero
806021c0:	0c18316d 	jal	8060c5b4 <comboOverride>
806021c4:	24040002 	li	a0,2
806021c8:	3c038061 	lui	v1,0x8061
806021cc:	c460d890 	lwc1	$f0,-10096(v1)
806021d0:	3c038061 	lui	v1,0x8061
806021d4:	8c67d810 	lw	a3,-10224(v1)
806021d8:	e7a00010 	swc1	$f0,16(sp)
806021dc:	00403025 	move	a2,v0
806021e0:	02202825 	move	a1,s1
806021e4:	0c008af5 	jal	80022bd4 <GiveItem>
806021e8:	02002025 	move	a0,s0
806021ec:	ae405d34 	sw	zero,23860(s2)
806021f0:	8e425d34 	lw	v0,23860(s2)
806021f4:	24420001 	addiu	v0,v0,1
806021f8:	1000ffab 	b	806020a8 <EnXc_Update+0x10c>
806021fc:	ae425d34 	sw	v0,23860(s2)
80602200:	0c00a22d 	jal	800288b4 <GetEventChk>
80602204:	24040055 	li	a0,85
80602208:	1440ff83 	bnez	v0,80602018 <EnXc_Update+0x7c>
8060220c:	24050055 	li	a1,85
80602210:	1000ff84 	b	80602024 <EnXc_Update+0x88>
80602214:	00000000 	nop

80602218 <EnXc_Init>:
80602218:	3c038012 	lui	v1,0x8012
8060221c:	8c65a5d4 	lw	a1,-23084(v1)
80602220:	24030001 	li	v1,1
80602224:	14a30007 	bne	a1,v1,80602244 <EnXc_Init+0x2c>
80602228:	ac800134 	sw	zero,308(a0)
8060222c:	9482001c 	lhu	v0,28(a0)
80602230:	3042fff7 	andi	v0,v0,0xfff7
80602234:	10400003 	beqz	v0,80602244 <EnXc_Init+0x2c>
80602238:	00000000 	nop
8060223c:	080083ad 	j	80020eb4 <ActorDestroy>
80602240:	00000000 	nop
80602244:	03e00008 	jr	ra
80602248:	00000000 	nop

8060224c <EnHy_GiveItem>:
8060224c:	27bdffd0 	addiu	sp,sp,-48
80602250:	2402003e 	li	v0,62
80602254:	afb10018 	sw	s1,24(sp)
80602258:	afb00014 	sw	s0,20(sp)
8060225c:	f7b60028 	sdc1	$f22,40(sp)
80602260:	f7b40020 	sdc1	$f20,32(sp)
80602264:	c7b60040 	lwc1	$f22,64(sp)
80602268:	4487a000 	mtc1	a3,$f20
8060226c:	afbf001c 	sw	ra,28(sp)
80602270:	00808025 	move	s0,a0
80602274:	14c20007 	bne	a2,v0,80602294 <EnHy_GiveItem+0x48>
80602278:	00a08825 	move	s1,a1
8060227c:	24060021 	li	a2,33
80602280:	2407003e 	li	a3,62
80602284:	00002825 	move	a1,zero
80602288:	0c18316d 	jal	8060c5b4 <comboOverride>
8060228c:	24040002 	li	a0,2
80602290:	00403025 	move	a2,v0
80602294:	e7b60040 	swc1	$f22,64(sp)
80602298:	8fbf001c 	lw	ra,28(sp)
8060229c:	d7b60028 	ldc1	$f22,40(sp)
806022a0:	4407a000 	mfc1	a3,$f20
806022a4:	02202825 	move	a1,s1
806022a8:	d7b40020 	ldc1	$f20,32(sp)
806022ac:	8fb10018 	lw	s1,24(sp)
806022b0:	02002025 	move	a0,s0
806022b4:	8fb00014 	lw	s0,20(sp)
806022b8:	08008af5 	j	80022bd4 <GiveItem>
806022bc:	27bd0030 	addiu	sp,sp,48

806022c0 <EnGe1_IsPeaceful>:
806022c0:	3c028012 	lui	v0,0x8012
806022c4:	8c42a674 	lw	v0,-22924(v0)
806022c8:	00021582 	srl	v0,v0,0x16
806022cc:	03e00008 	jr	ra
806022d0:	30420001 	andi	v0,v0,0x1

806022d4 <EnGe1_GiveItem>:
806022d4:	27bdffd0 	addiu	sp,sp,-48
806022d8:	28c20032 	slti	v0,a2,50
806022dc:	afb10018 	sw	s1,24(sp)
806022e0:	afb00014 	sw	s0,20(sp)
806022e4:	f7b60028 	sdc1	$f22,40(sp)
806022e8:	f7b40020 	sdc1	$f20,32(sp)
806022ec:	c7b60040 	lwc1	$f22,64(sp)
806022f0:	4487a000 	mtc1	a3,$f20
806022f4:	afbf001c 	sw	ra,28(sp)
806022f8:	00808025 	move	s0,a0
806022fc:	10400007 	beqz	v0,8060231c <EnGe1_GiveItem+0x48>
80602300:	00a08825 	move	s1,a1
80602304:	28c20030 	slti	v0,a2,48
80602308:	5440000d 	bnezl	v0,80602340 <EnGe1_GiveItem+0x6c>
8060230c:	e7b60040 	swc1	$f22,64(sp)
80602310:	00c03825 	move	a3,a2
80602314:	10000005 	b	8060232c <EnGe1_GiveItem+0x58>
80602318:	24060034 	li	a2,52
8060231c:	2402003e 	li	v0,62
80602320:	14c20006 	bne	a2,v0,8060233c <EnGe1_GiveItem+0x68>
80602324:	2407003e 	li	a3,62
80602328:	24060033 	li	a2,51
8060232c:	00002825 	move	a1,zero
80602330:	0c18316d 	jal	8060c5b4 <comboOverride>
80602334:	24040002 	li	a0,2
80602338:	00403025 	move	a2,v0
8060233c:	e7b60040 	swc1	$f22,64(sp)
80602340:	8fbf001c 	lw	ra,28(sp)
80602344:	d7b60028 	ldc1	$f22,40(sp)
80602348:	4407a000 	mfc1	a3,$f20
8060234c:	02202825 	move	a1,s1
80602350:	d7b40020 	ldc1	$f20,32(sp)
80602354:	8fb10018 	lw	s1,24(sp)
80602358:	02002025 	move	a0,s0
8060235c:	8fb00014 	lw	s0,20(sp)
80602360:	08008af5 	j	80022bd4 <GiveItem>
80602364:	27bd0030 	addiu	sp,sp,48

80602368 <EnDekubaba_GiveItemDefaultRange>:
80602368:	27bdffd8 	addiu	sp,sp,-40
8060236c:	afb00014 	sw	s0,20(sp)
80602370:	00808025 	move	s0,a0
80602374:	00002025 	move	a0,zero
80602378:	afb30020 	sw	s3,32(sp)
8060237c:	afb2001c 	sw	s2,28(sp)
80602380:	afb10018 	sw	s1,24(sp)
80602384:	8cb31c44 	lw	s3,7236(a1)
80602388:	afbf0024 	sw	ra,36(sp)
8060238c:	00a08825 	move	s1,a1
80602390:	0c01c508 	jal	80071420 <GetItemCollectBehavior>
80602394:	00c09025 	move	s2,a2
80602398:	240300ff 	li	v1,255
8060239c:	5443000b 	bnel	v0,v1,806023cc <EnDekubaba_GiveItemDefaultRange+0x64>
806023a0:	8e020090 	lw	v0,144(s0)
806023a4:	8fbf0024 	lw	ra,36(sp)
806023a8:	8fb30020 	lw	s3,32(sp)
806023ac:	02403025 	move	a2,s2
806023b0:	02202825 	move	a1,s1
806023b4:	8fb2001c 	lw	s2,28(sp)
806023b8:	8fb10018 	lw	s1,24(sp)
806023bc:	02002025 	move	a0,s0
806023c0:	8fb00014 	lw	s0,20(sp)
806023c4:	08008b3d 	j	80022cf4 <GiveItemDefaultRange>
806023c8:	27bd0028 	addiu	sp,sp,40
806023cc:	44801000 	mtc1	zero,$f2
806023d0:	44820000 	mtc1	v0,$f0
806023d4:	00000000 	nop
806023d8:	4602003c 	c.lt.s	$f0,$f2
806023dc:	00000000 	nop
806023e0:	45000004 	bc1f	806023f4 <EnDekubaba_GiveItemDefaultRange+0x8c>
806023e4:	3c038061 	lui	v1,0x8061
806023e8:	3c038000 	lui	v1,0x8000
806023ec:	00621026 	xor	v0,v1,v0
806023f0:	3c038061 	lui	v1,0x8061
806023f4:	c460d80c 	lwc1	$f0,-10228(v1)
806023f8:	44822000 	mtc1	v0,$f4
806023fc:	00000000 	nop
80602400:	4600203c 	c.lt.s	$f4,$f0
80602404:	00000000 	nop
80602408:	45000022 	bc1f	80602494 <EnDekubaba_GiveItemDefaultRange+0x12c>
8060240c:	8fbf0024 	lw	ra,36(sp)
80602410:	c6000028 	lwc1	$f0,40(s0)
80602414:	c6640028 	lwc1	$f4,40(s3)
80602418:	46040001 	sub.s	$f0,$f0,$f4
8060241c:	4602003c 	c.lt.s	$f0,$f2
80602420:	44020000 	mfc1	v0,$f0
80602424:	45000004 	bc1f	80602438 <EnDekubaba_GiveItemDefaultRange+0xd0>
80602428:	3c038061 	lui	v1,0x8061
8060242c:	3c038000 	lui	v1,0x8000
80602430:	00621026 	xor	v0,v1,v0
80602434:	3c038061 	lui	v1,0x8061
80602438:	c460d9c0 	lwc1	$f0,-9792(v1)
8060243c:	44821000 	mtc1	v0,$f2
80602440:	00000000 	nop
80602444:	4600103c 	c.lt.s	$f2,$f0
80602448:	00000000 	nop
8060244c:	45000011 	bc1f	80602494 <EnDekubaba_GiveItemDefaultRange+0x12c>
80602450:	8fbf0024 	lw	ra,36(sp)
80602454:	00121040 	sll	v0,s2,0x1
80602458:	00521021 	addu	v0,v0,s2
8060245c:	00021040 	sll	v0,v0,0x1
80602460:	3c068061 	lui	a2,0x8061
80602464:	8fb2001c 	lw	s2,28(sp)
80602468:	ae130118 	sw	s3,280(s0)
8060246c:	2442fffa 	addiu	v0,v0,-6
80602470:	8fb00014 	lw	s0,20(sp)
80602474:	24c650d0 	addiu	a2,a2,20688
80602478:	02602825 	move	a1,s3
8060247c:	02202025 	move	a0,s1
80602480:	8fb30020 	lw	s3,32(sp)
80602484:	8fb10018 	lw	s1,24(sp)
80602488:	00c23021 	addu	a2,a2,v0
8060248c:	0818170a 	j	80605c28 <AddItemWithIcon>
80602490:	27bd0028 	addiu	sp,sp,40
80602494:	8fb30020 	lw	s3,32(sp)
80602498:	8fb2001c 	lw	s2,28(sp)
8060249c:	8fb10018 	lw	s1,24(sp)
806024a0:	8fb00014 	lw	s0,20(sp)
806024a4:	03e00008 	jr	ra
806024a8:	27bd0028 	addiu	sp,sp,40

806024ac <EnMs_GiveItem>:
806024ac:	27bdffd0 	addiu	sp,sp,-48
806024b0:	afb10018 	sw	s1,24(sp)
806024b4:	afb00014 	sw	s0,20(sp)
806024b8:	f7b60028 	sdc1	$f22,40(sp)
806024bc:	f7b40020 	sdc1	$f20,32(sp)
806024c0:	c7b60040 	lwc1	$f22,64(sp)
806024c4:	4487a000 	mtc1	a3,$f20
806024c8:	00808025 	move	s0,a0
806024cc:	00a08825 	move	s1,a1
806024d0:	00c03825 	move	a3,a2
806024d4:	00002825 	move	a1,zero
806024d8:	2406000f 	li	a2,15
806024dc:	afbf001c 	sw	ra,28(sp)
806024e0:	0c18316d 	jal	8060c5b4 <comboOverride>
806024e4:	24040002 	li	a0,2
806024e8:	24040001 	li	a0,1
806024ec:	3c038012 	lui	v1,0x8012
806024f0:	e7b60040 	swc1	$f22,64(sp)
806024f4:	8fbf001c 	lw	ra,28(sp)
806024f8:	d7b60028 	ldc1	$f22,40(sp)
806024fc:	4407a000 	mfc1	a3,$f20
80602500:	a064a66b 	sb	a0,-22933(v1)
80602504:	d7b40020 	ldc1	$f20,32(sp)
80602508:	02202825 	move	a1,s1
8060250c:	02002025 	move	a0,s0
80602510:	8fb10018 	lw	s1,24(sp)
80602514:	8fb00014 	lw	s0,20(sp)
80602518:	00403025 	move	a2,v0
8060251c:	08008af5 	j	80022bd4 <GiveItem>
80602520:	27bd0030 	addiu	sp,sp,48

80602524 <EnGirlA_AfterInit2_Trampoline>:
80602524:	02002025 	move	a0,s0
80602528:	8fb00018 	lw	s0,24(sp)
8060252c:	081807c9 	j	80601f24 <EnGirlA_AfterInit2>
80602530:	27bd0030 	addiu	sp,sp,48

80602534 <EnBomBowlMan_AfterHandler>:
80602534:	3c028012 	lui	v0,0x8012
80602538:	8c42a670 	lw	v0,-22928(v0)
8060253c:	30420038 	andi	v0,v0,0x38
80602540:	10400003 	beqz	v0,80602550 <EnBomBowlMan_AfterHandler+0x1c>
80602544:	00000000 	nop
80602548:	0800a238 	j	800288e0 <SetEventChk>
8060254c:	24040022 	li	a0,34
80602550:	03e00008 	jr	ra
80602554:	00000000 	nop

80602558 <EnMk_GiveItem>:
80602558:	8ca21c44 	lw	v0,7236(a1)
8060255c:	27bdffd0 	addiu	sp,sp,-48
80602560:	8c42066c 	lw	v0,1644(v0)
80602564:	afb20018 	sw	s2,24(sp)
80602568:	30420400 	andi	v0,v0,0x400
8060256c:	afb10014 	sw	s1,20(sp)
80602570:	afb00010 	sw	s0,16(sp)
80602574:	f7b60028 	sdc1	$f22,40(sp)
80602578:	f7b40020 	sdc1	$f20,32(sp)
8060257c:	c7b60040 	lwc1	$f22,64(sp)
80602580:	4487a000 	mtc1	a3,$f20
80602584:	afbf001c 	sw	ra,28(sp)
80602588:	00809025 	move	s2,a0
8060258c:	00a08825 	move	s1,a1
80602590:	14400003 	bnez	v0,806025a0 <EnMk_GiveItem+0x48>
80602594:	00c08025 	move	s0,a2
80602598:	0c035886 	jal	800d6218 <Message_Close>
8060259c:	00a02025 	move	a0,a1
806025a0:	24020025 	li	v0,37
806025a4:	12020016 	beq	s0,v0,80602600 <EnMk_GiveItem+0xa8>
806025a8:	2402003e 	li	v0,62
806025ac:	56020008 	bnel	s0,v0,806025d0 <EnMk_GiveItem+0x78>
806025b0:	e7b60040 	swc1	$f22,64(sp)
806025b4:	2407003e 	li	a3,62
806025b8:	24060032 	li	a2,50
806025bc:	00002825 	move	a1,zero
806025c0:	0c18316d 	jal	8060c5b4 <comboOverride>
806025c4:	24040002 	li	a0,2
806025c8:	00408025 	move	s0,v0
806025cc:	e7b60040 	swc1	$f22,64(sp)
806025d0:	8fbf001c 	lw	ra,28(sp)
806025d4:	d7b60028 	ldc1	$f22,40(sp)
806025d8:	4407a000 	mfc1	a3,$f20
806025dc:	02003025 	move	a2,s0
806025e0:	d7b40020 	ldc1	$f20,32(sp)
806025e4:	8fb00010 	lw	s0,16(sp)
806025e8:	02202825 	move	a1,s1
806025ec:	02402025 	move	a0,s2
806025f0:	8fb10014 	lw	s1,20(sp)
806025f4:	8fb20018 	lw	s2,24(sp)
806025f8:	08008af5 	j	80022bd4 <GiveItem>
806025fc:	27bd0030 	addiu	sp,sp,48
80602600:	24070025 	li	a3,37
80602604:	24060049 	li	a2,73
80602608:	00002825 	move	a1,zero
8060260c:	0c18316d 	jal	8060c5b4 <comboOverride>
80602610:	24040002 	li	a0,2
80602614:	24040008 	li	a0,8
80602618:	0c180106 	jal	80600418 <comboRemoveTradeItemAdult>
8060261c:	00408025 	move	s0,v0
80602620:	1000ffeb 	b	806025d0 <EnMk_GiveItem+0x78>
80602624:	e7b60040 	swc1	$f22,64(sp)

80602628 <EnMk_EyeballFrogHandler>:
80602628:	27bdffe0 	addiu	sp,sp,-32
8060262c:	afb00018 	sw	s0,24(sp)
80602630:	afa50024 	sw	a1,36(sp)
80602634:	afbf001c 	sw	ra,28(sp)
80602638:	0c008aec 	jal	80022bb0 <Actor_HasParent>
8060263c:	00808025 	move	s0,a0
80602640:	1040000b 	beqz	v0,80602670 <EnMk_EyeballFrogHandler+0x48>
80602644:	8fa50024 	lw	a1,36(sp)
80602648:	3c0580aa 	lui	a1,0x80aa
8060264c:	ae000118 	sw	zero,280(s0)
80602650:	34a5cd6c 	ori	a1,a1,0xcd6c
80602654:	0c1830f9 	jal	8060c3e4 <actorAddr>
80602658:	2404014a 	li	a0,330
8060265c:	ae020274 	sw	v0,628(s0)
80602660:	8fbf001c 	lw	ra,28(sp)
80602664:	8fb00018 	lw	s0,24(sp)
80602668:	03e00008 	jr	ra
8060266c:	27bd0020 	addiu	sp,sp,32
80602670:	3c028061 	lui	v0,0x8061
80602674:	8c47d9c4 	lw	a3,-9788(v0)
80602678:	24060025 	li	a2,37
8060267c:	afa70010 	sw	a3,16(sp)
80602680:	0c180956 	jal	80602558 <EnMk_GiveItem>
80602684:	02002025 	move	a0,s0
80602688:	1000fff6 	b	80602664 <EnMk_EyeballFrogHandler+0x3c>
8060268c:	8fbf001c 	lw	ra,28(sp)

80602690 <EnMag_BeforeUpdate_Trampoline>:
80602690:	27bdffb0 	addiu	sp,sp,-80
80602694:	afbf0004 	sw	ra,4(sp)
80602698:	afa40008 	sw	a0,8(sp)
8060269c:	afa5000c 	sw	a1,12(sp)
806026a0:	afa60010 	sw	a2,16(sp)
806026a4:	afa70014 	sw	a3,20(sp)
806026a8:	afa80018 	sw	t0,24(sp)
806026ac:	afa9001c 	sw	t1,28(sp)
806026b0:	afaa0020 	sw	t2,32(sp)
806026b4:	afab0024 	sw	t3,36(sp)
806026b8:	afac0028 	sw	t4,40(sp)
806026bc:	afad002c 	sw	t5,44(sp)
806026c0:	afae0030 	sw	t6,48(sp)
806026c4:	afaf0034 	sw	t7,52(sp)
806026c8:	afb80038 	sw	t8,56(sp)
806026cc:	afb9003c 	sw	t9,60(sp)
806026d0:	afa20040 	sw	v0,64(sp)
806026d4:	afa30044 	sw	v1,68(sp)
806026d8:	0c1805c6 	jal	80601718 <EnMag_BeforeUpdate>
806026dc:	00000000 	nop
806026e0:	8fbf0004 	lw	ra,4(sp)
806026e4:	8fa40008 	lw	a0,8(sp)
806026e8:	8fa5000c 	lw	a1,12(sp)
806026ec:	8fa60010 	lw	a2,16(sp)
806026f0:	8fa70014 	lw	a3,20(sp)
806026f4:	8fa80018 	lw	t0,24(sp)
806026f8:	8fa9001c 	lw	t1,28(sp)
806026fc:	8faa0020 	lw	t2,32(sp)
80602700:	8fab0024 	lw	t3,36(sp)
80602704:	8fac0028 	lw	t4,40(sp)
80602708:	8fad002c 	lw	t5,44(sp)
8060270c:	8fae0030 	lw	t6,48(sp)
80602710:	8faf0034 	lw	t7,52(sp)
80602714:	8fb80038 	lw	t8,56(sp)
80602718:	8fb9003c 	lw	t9,60(sp)
8060271c:	8fa20040 	lw	v0,64(sp)
80602720:	8fa30044 	lw	v1,68(sp)
80602724:	27bd0050 	addiu	sp,sp,80
80602728:	afa50044 	sw	a1,68(sp)
8060272c:	03e00008 	jr	ra
80602730:	8fa40044 	lw	a0,68(sp)

80602734 <EnMag_AfterDraw_Trampoline>:
80602734:	8fa40040 	lw	a0,64(sp)
80602738:	8fa50044 	lw	a1,68(sp)
8060273c:	081805d6 	j	80601758 <EnMag_AfterDraw>
80602740:	27bd0040 	addiu	sp,sp,64

80602744 <EnTa_GetActiveItem_Chicken>:
80602744:	27bdffe8 	addiu	sp,sp,-24
80602748:	afb00010 	sw	s0,16(sp)
8060274c:	afbf0014 	sw	ra,20(sp)
80602750:	0c008ac1 	jal	80022b04 <GetActiveItem>
80602754:	00a02025 	move	a0,a1
80602758:	00408025 	move	s0,v0
8060275c:	24020003 	li	v0,3
80602760:	16020004 	bne	s0,v0,80602774 <EnTa_GetActiveItem_Chicken+0x30>
80602764:	8fbf0014 	lw	ra,20(sp)
80602768:	0c180126 	jal	80600498 <comboRemoveTradeItemChild>
8060276c:	24040001 	li	a0,1
80602770:	8fbf0014 	lw	ra,20(sp)
80602774:	02001025 	move	v0,s0
80602778:	8fb00010 	lw	s0,16(sp)
8060277c:	03e00008 	jr	ra
80602780:	27bd0018 	addiu	sp,sp,24

80602784 <EnTa_GiveItem_MilkBottle>:
80602784:	27bdffd0 	addiu	sp,sp,-48
80602788:	f7b60028 	sdc1	$f22,40(sp)
8060278c:	f7b40020 	sdc1	$f20,32(sp)
80602790:	c7b60040 	lwc1	$f22,64(sp)
80602794:	4487a000 	mtc1	a3,$f20
80602798:	afb10018 	sw	s1,24(sp)
8060279c:	afb00014 	sw	s0,20(sp)
806027a0:	00a08825 	move	s1,a1
806027a4:	00808025 	move	s0,a0
806027a8:	00c03825 	move	a3,a2
806027ac:	00002825 	move	a1,zero
806027b0:	2406001c 	li	a2,28
806027b4:	afbf001c 	sw	ra,28(sp)
806027b8:	0c18316d 	jal	8060c5b4 <comboOverride>
806027bc:	24040002 	li	a0,2
806027c0:	e7b60040 	swc1	$f22,64(sp)
806027c4:	8fbf001c 	lw	ra,28(sp)
806027c8:	d7b60028 	ldc1	$f22,40(sp)
806027cc:	4407a000 	mfc1	a3,$f20
806027d0:	02202825 	move	a1,s1
806027d4:	d7b40020 	ldc1	$f20,32(sp)
806027d8:	8fb10018 	lw	s1,24(sp)
806027dc:	02002025 	move	a0,s0
806027e0:	8fb00014 	lw	s0,20(sp)
806027e4:	00403025 	move	a2,v0
806027e8:	08008af5 	j	80022bd4 <GiveItem>
806027ec:	27bd0030 	addiu	sp,sp,48

806027f0 <EnOwl_StartCutscene>:
806027f0:	3c028061 	lui	v0,0x8061
806027f4:	c4820090 	lwc1	$f2,144(a0)
806027f8:	c440d80c 	lwc1	$f0,-10228(v0)
806027fc:	4600103c 	c.lt.s	$f2,$f0
80602800:	00000000 	nop
80602804:	45000013 	bc1f	80602854 <EnOwl_StartCutscene+0x64>
80602808:	3c030001 	lui	v1,0x1
8060280c:	9482001c 	lhu	v0,28(a0)
80602810:	00a32821 	addu	a1,a1,v1
80602814:	24030014 	li	v1,20
80602818:	a0a31e15 	sb	v1,7701(a1)
8060281c:	00021183 	sra	v0,v0,0x6
80602820:	2403002c 	li	v1,44
80602824:	a0a31e5e 	sb	v1,7774(a1)
80602828:	3042003f 	andi	v0,v0,0x3f
8060282c:	24030007 	li	v1,7
80602830:	5043000a 	beql	v0,v1,8060285c <EnOwl_StartCutscene+0x6c>
80602834:	24020002 	li	v0,2
80602838:	2442fff8 	addiu	v0,v0,-8
8060283c:	2c420002 	sltiu	v0,v0,2
80602840:	10400004 	beqz	v0,80602854 <EnOwl_StartCutscene+0x64>
80602844:	24020005 	li	v0,5
80602848:	a0a21e1a 	sb	v0,7706(a1)
8060284c:	24020054 	li	v0,84
80602850:	a0a21e1b 	sb	v0,7707(a1)
80602854:	03e00008 	jr	ra
80602858:	00000000 	nop
8060285c:	a0a21e1a 	sb	v0,7706(a1)
80602860:	1000fffb 	b	80602850 <EnOwl_StartCutscene+0x60>
80602864:	2402007e 	li	v0,126

80602868 <EnOwl_AfterInit>:
80602868:	9482001c 	lhu	v0,28(a0)
8060286c:	00021183 	sra	v0,v0,0x6
80602870:	3042003f 	andi	v0,v0,0x3f
80602874:	2442fff9 	addiu	v0,v0,-7
80602878:	2c420003 	sltiu	v0,v0,3
8060287c:	14400003 	bnez	v0,8060288c <EnOwl_AfterInit+0x24>
80602880:	00000000 	nop
80602884:	080083ad 	j	80020eb4 <ActorDestroy>
80602888:	00000000 	nop
8060288c:	03e00008 	jr	ra
80602890:	00000000 	nop

80602894 <EnZk_HasGiveItem>:
80602894:	27bdffe8 	addiu	sp,sp,-24
80602898:	afb00010 	sw	s0,16(sp)
8060289c:	afbf0014 	sw	ra,20(sp)
806028a0:	0c008aec 	jal	80022bb0 <Actor_HasParent>
806028a4:	00808025 	move	s0,a0
806028a8:	1040000a 	beqz	v0,806028d4 <EnZk_HasGiveItem+0x40>
806028ac:	8fbf0014 	lw	ra,20(sp)
806028b0:	3c028012 	lui	v0,0x8012
806028b4:	2442a5d0 	addiu	v0,v0,-23088
806028b8:	ae000118 	sw	zero,280(s0)
806028bc:	8c43011c 	lw	v1,284(v0)
806028c0:	3c040010 	lui	a0,0x10
806028c4:	00641825 	or	v1,v1,a0
806028c8:	ac43011c 	sw	v1,284(v0)
806028cc:	24020001 	li	v0,1
806028d0:	8fbf0014 	lw	ra,20(sp)
806028d4:	8fb00010 	lw	s0,16(sp)
806028d8:	03e00008 	jr	ra
806028dc:	27bd0018 	addiu	sp,sp,24

806028e0 <EnZk_GiveItem>:
806028e0:	8ca21c44 	lw	v0,7236(a1)
806028e4:	27bdffd0 	addiu	sp,sp,-48
806028e8:	8c42066c 	lw	v0,1644(v0)
806028ec:	afb20018 	sw	s2,24(sp)
806028f0:	30420400 	andi	v0,v0,0x400
806028f4:	afb10014 	sw	s1,20(sp)
806028f8:	f7b60028 	sdc1	$f22,40(sp)
806028fc:	f7b40020 	sdc1	$f20,32(sp)
80602900:	c7b60040 	lwc1	$f22,64(sp)
80602904:	4487a000 	mtc1	a3,$f20
80602908:	afbf001c 	sw	ra,28(sp)
8060290c:	afb00010 	sw	s0,16(sp)
80602910:	00809025 	move	s2,a0
80602914:	14400003 	bnez	v0,80602924 <EnZk_GiveItem+0x44>
80602918:	00a08825 	move	s1,a1
8060291c:	0c035886 	jal	800d6218 <Message_Close>
80602920:	00a02025 	move	a0,a1
80602924:	3c028012 	lui	v0,0x8012
80602928:	8c43a6ec 	lw	v1,-22804(v0)
8060292c:	3c020010 	lui	v0,0x10
80602930:	00431024 	and	v0,v0,v1
80602934:	14400014 	bnez	v0,80602988 <EnZk_GiveItem+0xa8>
80602938:	24070024 	li	a3,36
8060293c:	2407002d 	li	a3,45
80602940:	24060005 	li	a2,5
80602944:	00002825 	move	a1,zero
80602948:	0c18316d 	jal	8060c5b4 <comboOverride>
8060294c:	24040002 	li	a0,2
80602950:	00408025 	move	s0,v0
80602954:	e7b60040 	swc1	$f22,64(sp)
80602958:	8fbf001c 	lw	ra,28(sp)
8060295c:	d7b60028 	ldc1	$f22,40(sp)
80602960:	4407a000 	mfc1	a3,$f20
80602964:	02003025 	move	a2,s0
80602968:	d7b40020 	ldc1	$f20,32(sp)
8060296c:	8fb00010 	lw	s0,16(sp)
80602970:	02202825 	move	a1,s1
80602974:	02402025 	move	a0,s2
80602978:	8fb10014 	lw	s1,20(sp)
8060297c:	8fb20018 	lw	s2,24(sp)
80602980:	08008af5 	j	80022bd4 <GiveItem>
80602984:	27bd0030 	addiu	sp,sp,48
80602988:	24060048 	li	a2,72
8060298c:	00002825 	move	a1,zero
80602990:	0c18316d 	jal	8060c5b4 <comboOverride>
80602994:	24040002 	li	a0,2
80602998:	24040007 	li	a0,7
8060299c:	0c180106 	jal	80600418 <comboRemoveTradeItemAdult>
806029a0:	00408025 	move	s0,v0
806029a4:	1000ffec 	b	80602958 <EnZk_GiveItem+0x78>
806029a8:	e7b60040 	swc1	$f22,64(sp)

806029ac <EmptyBombFix>:
806029ac:	a0400141 	sb	zero,321(v0)
806029b0:	a0400142 	sb	zero,322(v0)
806029b4:	a0400144 	sb	zero,324(v0)
806029b8:	03e00008 	jr	ra
806029bc:	ac40011c 	sw	zero,284(v0)

806029c0 <EnNiwLady_GiveItem>:
806029c0:	8ca21c44 	lw	v0,7236(a1)
806029c4:	27bdffd0 	addiu	sp,sp,-48
806029c8:	8c42066c 	lw	v0,1644(v0)
806029cc:	afb20018 	sw	s2,24(sp)
806029d0:	30420400 	andi	v0,v0,0x400
806029d4:	afb10014 	sw	s1,20(sp)
806029d8:	afb00010 	sw	s0,16(sp)
806029dc:	f7b60028 	sdc1	$f22,40(sp)
806029e0:	f7b40020 	sdc1	$f20,32(sp)
806029e4:	c7b60040 	lwc1	$f22,64(sp)
806029e8:	4487a000 	mtc1	a3,$f20
806029ec:	afbf001c 	sw	ra,28(sp)
806029f0:	00809025 	move	s2,a0
806029f4:	00a08825 	move	s1,a1
806029f8:	14400003 	bnez	v0,80602a08 <EnNiwLady_GiveItem+0x48>
806029fc:	00c08025 	move	s0,a2
80602a00:	0c035886 	jal	800d6218 <Message_Close>
80602a04:	00a02025 	move	a0,a1
80602a08:	2402000f 	li	v0,15
80602a0c:	12020019 	beq	s0,v0,80602a74 <EnNiwLady_GiveItem+0xb4>
80602a10:	2a020010 	slti	v0,s0,16
80602a14:	10400011 	beqz	v0,80602a5c <EnNiwLady_GiveItem+0x9c>
80602a18:	2602ffe3 	addiu	v0,s0,-29
80602a1c:	2402000e 	li	v0,14
80602a20:	1202001b 	beq	s0,v0,80602a90 <EnNiwLady_GiveItem+0xd0>
80602a24:	2407000e 	li	a3,14
80602a28:	e7b60040 	swc1	$f22,64(sp)
80602a2c:	8fbf001c 	lw	ra,28(sp)
80602a30:	d7b60028 	ldc1	$f22,40(sp)
80602a34:	4407a000 	mfc1	a3,$f20
80602a38:	02003025 	move	a2,s0
80602a3c:	d7b40020 	ldc1	$f20,32(sp)
80602a40:	8fb00010 	lw	s0,16(sp)
80602a44:	02202825 	move	a1,s1
80602a48:	02402025 	move	a0,s2
80602a4c:	8fb10014 	lw	s1,20(sp)
80602a50:	8fb20018 	lw	s2,24(sp)
80602a54:	08008af5 	j	80022bd4 <GiveItem>
80602a58:	27bd0030 	addiu	sp,sp,48
80602a5c:	3042ffff 	andi	v0,v0,0xffff
80602a60:	2c420002 	sltiu	v0,v0,2
80602a64:	1040fff0 	beqz	v0,80602a28 <EnNiwLady_GiveItem+0x68>
80602a68:	02003825 	move	a3,s0
80602a6c:	10000003 	b	80602a7c <EnNiwLady_GiveItem+0xbc>
80602a70:	24060041 	li	a2,65
80602a74:	2407000f 	li	a3,15
80602a78:	24060001 	li	a2,1
80602a7c:	00002825 	move	a1,zero
80602a80:	0c18316d 	jal	8060c5b4 <comboOverride>
80602a84:	24040002 	li	a0,2
80602a88:	1000ffe7 	b	80602a28 <EnNiwLady_GiveItem+0x68>
80602a8c:	00408025 	move	s0,v0
80602a90:	24060042 	li	a2,66
80602a94:	00002825 	move	a1,zero
80602a98:	0c18316d 	jal	8060c5b4 <comboOverride>
80602a9c:	24040002 	li	a0,2
80602aa0:	24040001 	li	a0,1
80602aa4:	0c180106 	jal	80600418 <comboRemoveTradeItemAdult>
80602aa8:	00408025 	move	s0,v0
80602aac:	1000ffdf 	b	80602a2c <EnNiwLady_GiveItem+0x6c>
80602ab0:	e7b60040 	swc1	$f22,64(sp)

80602ab4 <EnNiwLady_GetActiveItem>:
80602ab4:	27bdffe8 	addiu	sp,sp,-24
80602ab8:	afbf0014 	sw	ra,20(sp)
80602abc:	0c008ac1 	jal	80022b04 <GetActiveItem>
80602ac0:	00000000 	nop
80602ac4:	24030006 	li	v1,6
80602ac8:	14430007 	bne	v0,v1,80602ae8 <EnNiwLady_GetActiveItem+0x34>
80602acc:	8fbf0014 	lw	ra,20(sp)
80602ad0:	3c038012 	lui	v1,0x8012
80602ad4:	9463b4c4 	lhu	v1,-19260(v1)
80602ad8:	30631000 	andi	v1,v1,0x1000
80602adc:	50600002 	beqzl	v1,80602ae8 <EnNiwLady_GetActiveItem+0x34>
80602ae0:	2402ffff 	li	v0,-1
80602ae4:	8fbf0014 	lw	ra,20(sp)
80602ae8:	03e00008 	jr	ra
80602aec:	27bd0018 	addiu	sp,sp,24

80602af0 <EnBomBowlPit_GiveItem>:
80602af0:	27bdffd8 	addiu	sp,sp,-40
80602af4:	afb00018 	sw	s0,24(sp)
80602af8:	f7b40020 	sdc1	$f20,32(sp)
80602afc:	00808025 	move	s0,a0
80602b00:	c7b40038 	lwc1	$f20,56(sp)
80602b04:	9484014a 	lhu	a0,330(a0)
80602b08:	afbf001c 	sw	ra,28(sp)
80602b0c:	afa50014 	sw	a1,20(sp)
80602b10:	0c180fe3 	jal	80603f8c <EnExItem_RewardByIndex>
80602b14:	afa70010 	sw	a3,16(sp)
80602b18:	e7b40038 	swc1	$f20,56(sp)
80602b1c:	8fa70010 	lw	a3,16(sp)
80602b20:	8fa50014 	lw	a1,20(sp)
80602b24:	8fbf001c 	lw	ra,28(sp)
80602b28:	d7b40020 	ldc1	$f20,32(sp)
80602b2c:	02002025 	move	a0,s0
80602b30:	8fb00018 	lw	s0,24(sp)
80602b34:	00403025 	move	a2,v0
80602b38:	08008af5 	j	80022bd4 <GiveItem>
80602b3c:	27bd0028 	addiu	sp,sp,40

80602b40 <Trampoline_EnOwl_AfterInit>:
80602b40:	02002025 	move	a0,s0
80602b44:	8fb00028 	lw	s0,40(sp)
80602b48:	08180a1a 	j	80602868 <EnOwl_AfterInit>
80602b4c:	27bd0050 	addiu	sp,sp,80

80602b50 <EnSth_GiveItem>:
80602b50:	27bdffd0 	addiu	sp,sp,-48
80602b54:	2403003e 	li	v1,62
80602b58:	afb10018 	sw	s1,24(sp)
80602b5c:	afb00014 	sw	s0,20(sp)
80602b60:	f7b60028 	sdc1	$f22,40(sp)
80602b64:	f7b40020 	sdc1	$f20,32(sp)
80602b68:	c7b60040 	lwc1	$f22,64(sp)
80602b6c:	4487a000 	mtc1	a3,$f20
80602b70:	afbf001c 	sw	ra,28(sp)
80602b74:	00808025 	move	s0,a0
80602b78:	10c30028 	beq	a2,v1,80602c1c <EnSth_GiveItem+0xcc>
80602b7c:	00a08825 	move	s1,a1
80602b80:	28c3003f 	slti	v1,a2,63
80602b84:	10600012 	beqz	v1,80602bd0 <EnSth_GiveItem+0x80>
80602b88:	00c01025 	move	v0,a2
80602b8c:	24030003 	li	v1,3
80602b90:	10c3001f 	beq	a2,v1,80602c10 <EnSth_GiveItem+0xc0>
80602b94:	24030039 	li	v1,57
80602b98:	10c3001b 	beq	a2,v1,80602c08 <EnSth_GiveItem+0xb8>
80602b9c:	24070039 	li	a3,57
80602ba0:	e7b60040 	swc1	$f22,64(sp)
80602ba4:	8fbf001c 	lw	ra,28(sp)
80602ba8:	d7b60028 	ldc1	$f22,40(sp)
80602bac:	4407a000 	mfc1	a3,$f20
80602bb0:	02202825 	move	a1,s1
80602bb4:	d7b40020 	ldc1	$f20,32(sp)
80602bb8:	8fb10018 	lw	s1,24(sp)
80602bbc:	02002025 	move	a0,s0
80602bc0:	8fb00014 	lw	s0,20(sp)
80602bc4:	00403025 	move	a2,v0
80602bc8:	08008af5 	j	80022bd4 <GiveItem>
80602bcc:	27bd0030 	addiu	sp,sp,48
80602bd0:	24030045 	li	v1,69
80602bd4:	10c30005 	beq	a2,v1,80602bec <EnSth_GiveItem+0x9c>
80602bd8:	24030046 	li	v1,70
80602bdc:	14c3fff0 	bne	a2,v1,80602ba0 <EnSth_GiveItem+0x50>
80602be0:	24070046 	li	a3,70
80602be4:	10000003 	b	80602bf4 <EnSth_GiveItem+0xa4>
80602be8:	24060015 	li	a2,21
80602bec:	24070045 	li	a3,69
80602bf0:	24060013 	li	a2,19
80602bf4:	00002825 	move	a1,zero
80602bf8:	0c18316d 	jal	8060c5b4 <comboOverride>
80602bfc:	24040002 	li	a0,2
80602c00:	1000ffe8 	b	80602ba4 <EnSth_GiveItem+0x54>
80602c04:	e7b60040 	swc1	$f22,64(sp)
80602c08:	1000fffa 	b	80602bf4 <EnSth_GiveItem+0xa4>
80602c0c:	24060014 	li	a2,20
80602c10:	24070003 	li	a3,3
80602c14:	1000fff7 	b	80602bf4 <EnSth_GiveItem+0xa4>
80602c18:	24060016 	li	a2,22
80602c1c:	2407003e 	li	a3,62
80602c20:	1000fff4 	b	80602bf4 <EnSth_GiveItem+0xa4>
80602c24:	24060017 	li	a2,23

80602c28 <EnKo_GiveItem>:
80602c28:	8ca21c44 	lw	v0,7236(a1)
80602c2c:	27bdffc8 	addiu	sp,sp,-56
80602c30:	8c42066c 	lw	v0,1644(v0)
80602c34:	afb20020 	sw	s2,32(sp)
80602c38:	30420400 	andi	v0,v0,0x400
80602c3c:	afb1001c 	sw	s1,28(sp)
80602c40:	afb00018 	sw	s0,24(sp)
80602c44:	f7b60030 	sdc1	$f22,48(sp)
80602c48:	f7b40028 	sdc1	$f20,40(sp)
80602c4c:	c7b60048 	lwc1	$f22,72(sp)
80602c50:	4487a000 	mtc1	a3,$f20
80602c54:	afbf0024 	sw	ra,36(sp)
80602c58:	00808825 	move	s1,a0
80602c5c:	00a08025 	move	s0,a1
80602c60:	14400003 	bnez	v0,80602c70 <EnKo_GiveItem+0x48>
80602c64:	00c09025 	move	s2,a2
80602c68:	0c035886 	jal	800d6218 <Message_Close>
80602c6c:	00a02025 	move	a0,a1
80602c70:	02403825 	move	a3,s2
80602c74:	24060045 	li	a2,69
80602c78:	00002825 	move	a1,zero
80602c7c:	0c18316d 	jal	8060c5b4 <comboOverride>
80602c80:	24040002 	li	a0,2
80602c84:	24040004 	li	a0,4
80602c88:	0c180106 	jal	80600418 <comboRemoveTradeItemAdult>
80602c8c:	afa20010 	sw	v0,16(sp)
80602c90:	e7b60048 	swc1	$f22,72(sp)
80602c94:	8fa60010 	lw	a2,16(sp)
80602c98:	8fbf0024 	lw	ra,36(sp)
80602c9c:	8fb20020 	lw	s2,32(sp)
80602ca0:	d7b60030 	ldc1	$f22,48(sp)
80602ca4:	4407a000 	mfc1	a3,$f20
80602ca8:	02002825 	move	a1,s0
80602cac:	d7b40028 	ldc1	$f20,40(sp)
80602cb0:	8fb00018 	lw	s0,24(sp)
80602cb4:	02202025 	move	a0,s1
80602cb8:	8fb1001c 	lw	s1,28(sp)
80602cbc:	08008af5 	j	80022bd4 <GiveItem>
80602cc0:	27bd0038 	addiu	sp,sp,56

80602cc4 <EnKo_SpawnHook>:
80602cc4:	3c058012 	lui	a1,0x8012
80602cc8:	8ca2a5d0 	lw	v0,-23088(a1)
80602ccc:	2c4304df 	sltiu	v1,v0,1247
80602cd0:	10600008 	beqz	v1,80602cf4 <EnKo_SpawnHook+0x30>
80602cd4:	240305e0 	li	v1,1504
80602cd8:	2c4304d6 	sltiu	v1,v0,1238
80602cdc:	10600009 	beqz	v1,80602d04 <EnKo_SpawnHook+0x40>
80602ce0:	2443fe57 	addiu	v1,v0,-425
80602ce4:	2406fff7 	li	a2,-9
80602ce8:	00661824 	and	v1,v1,a2
80602cec:	1060000b 	beqz	v1,80602d1c <EnKo_SpawnHook+0x58>
80602cf0:	2403011e 	li	v1,286
80602cf4:	1043000a 	beq	v0,v1,80602d20 <EnKo_SpawnHook+0x5c>
80602cf8:	24a5a5d0 	addiu	a1,a1,-23088
80602cfc:	080083ad 	j	80020eb4 <ActorDestroy>
80602d00:	00000000 	nop
80602d04:	2442fb2a 	addiu	v0,v0,-1238
80602d08:	24030111 	li	v1,273
80602d0c:	00431006 	srlv	v0,v1,v0
80602d10:	30420001 	andi	v0,v0,0x1
80602d14:	1040fff9 	beqz	v0,80602cfc <EnKo_SpawnHook+0x38>
80602d18:	00000000 	nop
80602d1c:	24a5a5d0 	addiu	a1,a1,-23088
80602d20:	94a200e6 	lhu	v0,230(a1)
80602d24:	30420010 	andi	v0,v0,0x10
80602d28:	1040fff4 	beqz	v0,80602cfc <EnKo_SpawnHook+0x38>
80602d2c:	00000000 	nop
80602d30:	03e00008 	jr	ra
80602d34:	00000000 	nop

80602d38 <EnDu_GiveItem>:
80602d38:	27bdffd0 	addiu	sp,sp,-48
80602d3c:	afb10018 	sw	s1,24(sp)
80602d40:	afb00014 	sw	s0,20(sp)
80602d44:	f7b40020 	sdc1	$f20,32(sp)
80602d48:	00808025 	move	s0,a0
80602d4c:	4487a000 	mtc1	a3,$f20
80602d50:	00a08825 	move	s1,a1
80602d54:	00c03825 	move	a3,a2
80602d58:	00002825 	move	a1,zero
80602d5c:	24060002 	li	a2,2
80602d60:	24040002 	li	a0,2
80602d64:	f7b60028 	sdc1	$f22,40(sp)
80602d68:	afbf001c 	sw	ra,28(sp)
80602d6c:	0c18316d 	jal	8060c5b4 <comboOverride>
80602d70:	c7b60040 	lwc1	$f22,64(sp)
80602d74:	3c038012 	lui	v1,0x8012
80602d78:	2463a5d0 	addiu	v1,v1,-23088
80602d7c:	94640ef4 	lhu	a0,3828(v1)
80602d80:	e7b60040 	swc1	$f22,64(sp)
80602d84:	34840001 	ori	a0,a0,0x1
80602d88:	8fbf001c 	lw	ra,28(sp)
80602d8c:	d7b60028 	ldc1	$f22,40(sp)
80602d90:	4407a000 	mfc1	a3,$f20
80602d94:	a4640ef4 	sh	a0,3828(v1)
80602d98:	d7b40020 	ldc1	$f20,32(sp)
80602d9c:	02202825 	move	a1,s1
80602da0:	02002025 	move	a0,s0
80602da4:	8fb10018 	lw	s1,24(sp)
80602da8:	8fb00014 	lw	s0,20(sp)
80602dac:	00403025 	move	a2,v0
80602db0:	08008af5 	j	80022bd4 <GiveItem>
80602db4:	27bd0030 	addiu	sp,sp,48

80602db8 <EnDntJiji_GiveItem>:
80602db8:	27bdffd0 	addiu	sp,sp,-48
80602dbc:	28c20079 	slti	v0,a2,121
80602dc0:	afb10018 	sw	s1,24(sp)
80602dc4:	afb00014 	sw	s0,20(sp)
80602dc8:	f7b60028 	sdc1	$f22,40(sp)
80602dcc:	f7b40020 	sdc1	$f20,32(sp)
80602dd0:	c7b60040 	lwc1	$f22,64(sp)
80602dd4:	4487a000 	mtc1	a3,$f20
80602dd8:	afbf001c 	sw	ra,28(sp)
80602ddc:	00808025 	move	s0,a0
80602de0:	1040000b 	beqz	v0,80602e10 <EnDntJiji_GiveItem+0x58>
80602de4:	00a08825 	move	s1,a1
80602de8:	28c20077 	slti	v0,a2,119
80602dec:	5440000e 	bnezl	v0,80602e28 <EnDntJiji_GiveItem+0x70>
80602df0:	e7b60040 	swc1	$f22,64(sp)
80602df4:	00c03825 	move	a3,a2
80602df8:	2406000d 	li	a2,13
80602dfc:	00002825 	move	a1,zero
80602e00:	0c18316d 	jal	8060c5b4 <comboOverride>
80602e04:	24040002 	li	a0,2
80602e08:	10000006 	b	80602e24 <EnDntJiji_GiveItem+0x6c>
80602e0c:	00403025 	move	a2,v0
80602e10:	24c2ff87 	addiu	v0,a2,-121
80602e14:	3042ffff 	andi	v0,v0,0xffff
80602e18:	2c420002 	sltiu	v0,v0,2
80602e1c:	1440000c 	bnez	v0,80602e50 <EnDntJiji_GiveItem+0x98>
80602e20:	00c03825 	move	a3,a2
80602e24:	e7b60040 	swc1	$f22,64(sp)
80602e28:	8fbf001c 	lw	ra,28(sp)
80602e2c:	d7b60028 	ldc1	$f22,40(sp)
80602e30:	4407a000 	mfc1	a3,$f20
80602e34:	02202825 	move	a1,s1
80602e38:	d7b40020 	ldc1	$f20,32(sp)
80602e3c:	8fb10018 	lw	s1,24(sp)
80602e40:	02002025 	move	a0,s0
80602e44:	8fb00014 	lw	s0,20(sp)
80602e48:	08008af5 	j	80022bd4 <GiveItem>
80602e4c:	27bd0030 	addiu	sp,sp,48
80602e50:	1000ffea 	b	80602dfc <EnDntJiji_GiveItem+0x44>
80602e54:	2406000e 	li	a2,14

80602e58 <EnSa_HandlerNull>:
80602e58:	03e00008 	jr	ra
80602e5c:	00000000 	nop

80602e60 <EnSa_HandlerMeadow_GiveItem>:
80602e60:	27bdffd8 	addiu	sp,sp,-40
80602e64:	afb10020 	sw	s1,32(sp)
80602e68:	afb0001c 	sw	s0,28(sp)
80602e6c:	afbf0024 	sw	ra,36(sp)
80602e70:	00808025 	move	s0,a0
80602e74:	0c008aec 	jal	80022bb0 <Actor_HasParent>
80602e78:	00a08825 	move	s1,a1
80602e7c:	1040000b 	beqz	v0,80602eac <EnSa_HandlerMeadow_GiveItem+0x4c>
80602e80:	24070088 	li	a3,136
80602e84:	0c00a238 	jal	800288e0 <SetEventChk>
80602e88:	24040058 	li	a0,88
80602e8c:	3c028060 	lui	v0,0x8060
80602e90:	24422e58 	addiu	v0,v0,11864
80602e94:	ae020180 	sw	v0,384(s0)
80602e98:	8fbf0024 	lw	ra,36(sp)
80602e9c:	8fb10020 	lw	s1,32(sp)
80602ea0:	8fb0001c 	lw	s0,28(sp)
80602ea4:	03e00008 	jr	ra
80602ea8:	27bd0028 	addiu	sp,sp,40
80602eac:	24060038 	li	a2,56
80602eb0:	00002825 	move	a1,zero
80602eb4:	0c18316d 	jal	8060c5b4 <comboOverride>
80602eb8:	24040002 	li	a0,2
80602ebc:	3c038061 	lui	v1,0x8061
80602ec0:	c460d890 	lwc1	$f0,-10096(v1)
80602ec4:	3c038061 	lui	v1,0x8061
80602ec8:	8c67d810 	lw	a3,-10224(v1)
80602ecc:	e7a00010 	swc1	$f0,16(sp)
80602ed0:	00403025 	move	a2,v0
80602ed4:	02202825 	move	a1,s1
80602ed8:	0c008af5 	jal	80022bd4 <GiveItem>
80602edc:	02002025 	move	a0,s0
80602ee0:	1000ffee 	b	80602e9c <EnSa_HandlerMeadow_GiveItem+0x3c>
80602ee4:	8fbf0024 	lw	ra,36(sp)

80602ee8 <EnSa_HandlerMeadow>:
80602ee8:	27bdffe0 	addiu	sp,sp,-32
80602eec:	afb00014 	sw	s0,20(sp)
80602ef0:	00808025 	move	s0,a0
80602ef4:	24040058 	li	a0,88
80602ef8:	afb10018 	sw	s1,24(sp)
80602efc:	afbf001c 	sw	ra,28(sp)
80602f00:	0c00a22d 	jal	800288b4 <GetEventChk>
80602f04:	00a08825 	move	s1,a1
80602f08:	50400009 	beqzl	v0,80602f30 <EnSa_HandlerMeadow+0x48>
80602f0c:	8e221c44 	lw	v0,7236(s1)
80602f10:	3c028060 	lui	v0,0x8060
80602f14:	24422e58 	addiu	v0,v0,11864
80602f18:	ae020180 	sw	v0,384(s0)
80602f1c:	8fbf001c 	lw	ra,28(sp)
80602f20:	8fb10018 	lw	s1,24(sp)
80602f24:	8fb00014 	lw	s0,20(sp)
80602f28:	03e00008 	jr	ra
80602f2c:	27bd0020 	addiu	sp,sp,32
80602f30:	c442002c 	lwc1	$f2,44(v0)
80602f34:	3c028061 	lui	v0,0x8061
80602f38:	c440d9c8 	lwc1	$f0,-9784(v0)
80602f3c:	4600103c 	c.lt.s	$f2,$f0
80602f40:	00000000 	nop
80602f44:	4500fff6 	bc1f	80602f20 <EnSa_HandlerMeadow+0x38>
80602f48:	8fbf001c 	lw	ra,28(sp)
80602f4c:	3c028060 	lui	v0,0x8060
80602f50:	24422e60 	addiu	v0,v0,11872
80602f54:	ae020180 	sw	v0,384(s0)
80602f58:	02202825 	move	a1,s1
80602f5c:	02002025 	move	a0,s0
80602f60:	8fb10018 	lw	s1,24(sp)
80602f64:	8fb00014 	lw	s0,20(sp)
80602f68:	08180b98 	j	80602e60 <EnSa_HandlerMeadow_GiveItem>
80602f6c:	27bd0020 	addiu	sp,sp,32

80602f70 <EnIk_NabooruDeath>:
80602f70:	27bdffe0 	addiu	sp,sp,-32
80602f74:	afb10018 	sw	s1,24(sp)
80602f78:	00a08825 	move	s1,a1
80602f7c:	3c0580a6 	lui	a1,0x80a6
80602f80:	afb00014 	sw	s0,20(sp)
80602f84:	34a585cc 	ori	a1,a1,0x85cc
80602f88:	00808025 	move	s0,a0
80602f8c:	afbf001c 	sw	ra,28(sp)
80602f90:	0c1830f9 	jal	8060c3e4 <actorAddr>
80602f94:	24040113 	li	a0,275
80602f98:	0040f809 	jalr	v0
80602f9c:	02002025 	move	a0,s0
80602fa0:	02002825 	move	a1,s0
80602fa4:	0c0096d3 	jal	80025b4c <Enemy_StartFinishingBlow>
80602fa8:	02202025 	move	a0,s1
80602fac:	8fbf001c 	lw	ra,28(sp)
80602fb0:	24020020 	li	v0,32
80602fb4:	8fb10018 	lw	s1,24(sp)
80602fb8:	a20200af 	sb	v0,175(s0)
80602fbc:	8fb00014 	lw	s0,20(sp)
80602fc0:	03e00008 	jr	ra
80602fc4:	27bd0020 	addiu	sp,sp,32

80602fc8 <EnWonderTalk2_AfterInit_Trampoline>:
80602fc8:	00c02025 	move	a0,a2
80602fcc:	8fa5001c 	lw	a1,28(sp)
80602fd0:	08180c4e 	j	80603138 <EnWonderTalk2_AfterInit>
80602fd4:	27bd0018 	addiu	sp,sp,24

80602fd8 <EnDs_GiveItem>:
80602fd8:	8ca21c44 	lw	v0,7236(a1)
80602fdc:	27bdffc8 	addiu	sp,sp,-56
80602fe0:	8c42066c 	lw	v0,1644(v0)
80602fe4:	afb20020 	sw	s2,32(sp)
80602fe8:	30420400 	andi	v0,v0,0x400
80602fec:	afb1001c 	sw	s1,28(sp)
80602ff0:	afb00018 	sw	s0,24(sp)
80602ff4:	f7b60030 	sdc1	$f22,48(sp)
80602ff8:	f7b40028 	sdc1	$f20,40(sp)
80602ffc:	c7b60048 	lwc1	$f22,72(sp)
80603000:	4487a000 	mtc1	a3,$f20
80603004:	afbf0024 	sw	ra,36(sp)
80603008:	00808825 	move	s1,a0
8060300c:	00a08025 	move	s0,a1
80603010:	14400003 	bnez	v0,80603020 <EnDs_GiveItem+0x48>
80603014:	00c09025 	move	s2,a2
80603018:	0c035886 	jal	800d6218 <Message_Close>
8060301c:	00a02025 	move	a0,a1
80603020:	02403825 	move	a3,s2
80603024:	24060044 	li	a2,68
80603028:	00002825 	move	a1,zero
8060302c:	0c18316d 	jal	8060c5b4 <comboOverride>
80603030:	24040002 	li	a0,2
80603034:	24040003 	li	a0,3
80603038:	0c180106 	jal	80600418 <comboRemoveTradeItemAdult>
8060303c:	afa20010 	sw	v0,16(sp)
80603040:	e7b60048 	swc1	$f22,72(sp)
80603044:	8fa60010 	lw	a2,16(sp)
80603048:	8fbf0024 	lw	ra,36(sp)
8060304c:	8fb20020 	lw	s2,32(sp)
80603050:	d7b60030 	ldc1	$f22,48(sp)
80603054:	4407a000 	mfc1	a3,$f20
80603058:	02002825 	move	a1,s0
8060305c:	d7b40028 	ldc1	$f20,40(sp)
80603060:	8fb00018 	lw	s0,24(sp)
80603064:	02202025 	move	a0,s1
80603068:	8fb1001c 	lw	s1,28(sp)
8060306c:	08008af5 	j	80022bd4 <GiveItem>
80603070:	27bd0038 	addiu	sp,sp,56

80603074 <EnSsh_TalkedTo>:
80603074:	9482001c 	lhu	v0,28(a0)
80603078:	14400003 	bnez	v0,80603088 <EnSsh_TalkedTo+0x14>
8060307c:	00000000 	nop
80603080:	08008a4c 	j	80022930 <ActorTalkedTo>
80603084:	00000000 	nop
80603088:	27bdffd8 	addiu	sp,sp,-40
8060308c:	afb1001c 	sw	s1,28(sp)
80603090:	3c118061 	lui	s1,0x8061
80603094:	8e235d38 	lw	v1,23864(s1)
80603098:	afbf0024 	sw	ra,36(sp)
8060309c:	afb20020 	sw	s2,32(sp)
806030a0:	1060001d 	beqz	v1,80603118 <EnSsh_TalkedTo+0xa4>
806030a4:	afb00018 	sw	s0,24(sp)
806030a8:	2442ffff 	addiu	v0,v0,-1
806030ac:	3c038061 	lui	v1,0x8061
806030b0:	2463d9cc 	addiu	v1,v1,-9780
806030b4:	00021040 	sll	v0,v0,0x1
806030b8:	00431021 	addu	v0,v0,v1
806030bc:	94460000 	lhu	a2,0(v0)
806030c0:	00808025 	move	s0,a0
806030c4:	00a09025 	move	s2,a1
806030c8:	2407004d 	li	a3,77
806030cc:	00002825 	move	a1,zero
806030d0:	24040002 	li	a0,2
806030d4:	afa00010 	sw	zero,16(sp)
806030d8:	0c183126 	jal	8060c498 <comboOverrideEx>
806030dc:	ae205d38 	sw	zero,23864(s1)
806030e0:	9603001c 	lhu	v1,28(s0)
806030e4:	00402825 	move	a1,v0
806030e8:	00033080 	sll	a2,v1,0x2
806030ec:	00c33021 	addu	a2,a2,v1
806030f0:	00063040 	sll	a2,a2,0x1
806030f4:	0c182938 	jal	8060a4e0 <comboTextHijackSkullReward>
806030f8:	02402025 	move	a0,s2
806030fc:	24020001 	li	v0,1
80603100:	8fbf0024 	lw	ra,36(sp)
80603104:	8fb20020 	lw	s2,32(sp)
80603108:	8fb1001c 	lw	s1,28(sp)
8060310c:	8fb00018 	lw	s0,24(sp)
80603110:	03e00008 	jr	ra
80603114:	27bd0028 	addiu	sp,sp,40
80603118:	0c008a4c 	jal	80022930 <ActorTalkedTo>
8060311c:	00000000 	nop
80603120:	1040fff8 	beqz	v0,80603104 <EnSsh_TalkedTo+0x90>
80603124:	8fbf0024 	lw	ra,36(sp)
80603128:	24020001 	li	v0,1
8060312c:	ae225d38 	sw	v0,23864(s1)
80603130:	1000fff3 	b	80603100 <EnSsh_TalkedTo+0x8c>
80603134:	00001025 	move	v0,zero

80603138 <EnWonderTalk2_AfterInit>:
80603138:	9482001c 	lhu	v0,28(a0)
8060313c:	24034000 	li	v1,16384
80603140:	3042f000 	andi	v0,v0,0xf000
80603144:	14430003 	bne	v0,v1,80603154 <EnWonderTalk2_AfterInit+0x1c>
80603148:	00000000 	nop
8060314c:	080083ad 	j	80020eb4 <ActorDestroy>
80603150:	00000000 	nop
80603154:	03e00008 	jr	ra
80603158:	00000000 	nop

8060315c <EnPoRelay_GetHeartPieceFlag>:
8060315c:	27bdffe0 	addiu	sp,sp,-32
80603160:	afb10018 	sw	s1,24(sp)
80603164:	afb00014 	sw	s0,20(sp)
80603168:	00a08825 	move	s1,a1
8060316c:	00808025 	move	s0,a0
80603170:	afbf001c 	sw	ra,28(sp)
80603174:	0c0081ab 	jal	800206ac <SetRoomClear>
80603178:	24050004 	li	a1,4
8060317c:	8fbf001c 	lw	ra,28(sp)
80603180:	02202825 	move	a1,s1
80603184:	02002025 	move	a0,s0
80603188:	8fb10018 	lw	s1,24(sp)
8060318c:	8fb00014 	lw	s0,20(sp)
80603190:	080081ba 	j	800206e8 <GetCollectibleFlag>
80603194:	27bd0020 	addiu	sp,sp,32

80603198 <EnSkj_GiveItem_TreeHP>:
80603198:	27bdffd0 	addiu	sp,sp,-48
8060319c:	f7b60028 	sdc1	$f22,40(sp)
806031a0:	f7b40020 	sdc1	$f20,32(sp)
806031a4:	c7b60040 	lwc1	$f22,64(sp)
806031a8:	4487a000 	mtc1	a3,$f20
806031ac:	afb10018 	sw	s1,24(sp)
806031b0:	afb00014 	sw	s0,20(sp)
806031b4:	00a08825 	move	s1,a1
806031b8:	00808025 	move	s0,a0
806031bc:	00c03825 	move	a3,a2
806031c0:	00002825 	move	a1,zero
806031c4:	2406000b 	li	a2,11
806031c8:	afbf001c 	sw	ra,28(sp)
806031cc:	0c18316d 	jal	8060c5b4 <comboOverride>
806031d0:	24040002 	li	a0,2
806031d4:	e7b60040 	swc1	$f22,64(sp)
806031d8:	8fbf001c 	lw	ra,28(sp)
806031dc:	d7b60028 	ldc1	$f22,40(sp)
806031e0:	4407a000 	mfc1	a3,$f20
806031e4:	02202825 	move	a1,s1
806031e8:	d7b40020 	ldc1	$f20,32(sp)
806031ec:	8fb10018 	lw	s1,24(sp)
806031f0:	02002025 	move	a0,s0
806031f4:	8fb00014 	lw	s0,20(sp)
806031f8:	00403025 	move	a2,v0
806031fc:	08008af5 	j	80022bd4 <GiveItem>
80603200:	27bd0030 	addiu	sp,sp,48

80603204 <EnSkj_GiveItem_MemoryGame>:
80603204:	27bdffd0 	addiu	sp,sp,-48
80603208:	2402003e 	li	v0,62
8060320c:	afb10018 	sw	s1,24(sp)
80603210:	afb00014 	sw	s0,20(sp)
80603214:	f7b60028 	sdc1	$f22,40(sp)
80603218:	f7b40020 	sdc1	$f20,32(sp)
8060321c:	c7b60040 	lwc1	$f22,64(sp)
80603220:	4487a000 	mtc1	a3,$f20
80603224:	afbf001c 	sw	ra,28(sp)
80603228:	00808025 	move	s0,a0
8060322c:	14c20007 	bne	a2,v0,8060324c <EnSkj_GiveItem_MemoryGame+0x48>
80603230:	00a08825 	move	s1,a1
80603234:	2406000c 	li	a2,12
80603238:	2407003e 	li	a3,62
8060323c:	00002825 	move	a1,zero
80603240:	0c18316d 	jal	8060c5b4 <comboOverride>
80603244:	24040002 	li	a0,2
80603248:	00403025 	move	a2,v0
8060324c:	e7b60040 	swc1	$f22,64(sp)
80603250:	8fbf001c 	lw	ra,28(sp)
80603254:	d7b60028 	ldc1	$f22,40(sp)
80603258:	4407a000 	mfc1	a3,$f20
8060325c:	02202825 	move	a1,s1
80603260:	d7b40020 	ldc1	$f20,32(sp)
80603264:	8fb10018 	lw	s1,24(sp)
80603268:	02002025 	move	a0,s0
8060326c:	8fb00014 	lw	s0,20(sp)
80603270:	08008af5 	j	80022bd4 <GiveItem>
80603274:	27bd0030 	addiu	sp,sp,48

80603278 <EnSi_Override.isra.0>:
80603278:	308200ff 	andi	v0,a0,0xff
8060327c:	24030010 	li	v1,16
80603280:	1043000b 	beq	v0,v1,806032b0 <EnSi_Override.isra.0+0x38>
80603284:	24060004 	li	a2,4
80603288:	2c430011 	sltiu	v1,v0,17
8060328c:	10600010 	beqz	v1,806032d0 <EnSi_Override.isra.0+0x58>
80603290:	24030004 	li	v1,4
80603294:	10430006 	beq	v0,v1,806032b0 <EnSi_Override.isra.0+0x38>
80603298:	24060002 	li	a2,2
8060329c:	2c430005 	sltiu	v1,v0,5
806032a0:	10600003 	beqz	v1,806032b0 <EnSi_Override.isra.0+0x38>
806032a4:	24060003 	li	a2,3
806032a8:	38420001 	xori	v0,v0,0x1
806032ac:	0002302b 	sltu	a2,zero,v0
806032b0:	24840100 	addiu	a0,a0,256
806032b4:	00042142 	srl	a0,a0,0x5
806032b8:	308400f8 	andi	a0,a0,0xf8
806032bc:	00c43021 	addu	a2,a2,a0
806032c0:	2407005b 	li	a3,91
806032c4:	00002825 	move	a1,zero
806032c8:	0818316d 	j	8060c5b4 <comboOverride>
806032cc:	24040003 	li	a0,3
806032d0:	24030040 	li	v1,64
806032d4:	1043fff6 	beq	v0,v1,806032b0 <EnSi_Override.isra.0+0x38>
806032d8:	24060006 	li	a2,6
806032dc:	24030080 	li	v1,128
806032e0:	1443fff3 	bne	v0,v1,806032b0 <EnSi_Override.isra.0+0x38>
806032e4:	24060005 	li	a2,5
806032e8:	1000fff1 	b	806032b0 <EnSi_Override.isra.0+0x38>
806032ec:	24060007 	li	a2,7

806032f0 <EnSi_GiveItem>:
806032f0:	27bdffe0 	addiu	sp,sp,-32
806032f4:	afb00014 	sw	s0,20(sp)
806032f8:	00808025 	move	s0,a0
806032fc:	94a4001c 	lhu	a0,28(a1)
80603300:	afbf001c 	sw	ra,28(sp)
80603304:	0c180c9e 	jal	80603278 <EnSi_Override.isra.0>
80603308:	afb10018 	sw	s1,24(sp)
8060330c:	00408825 	move	s1,v0
80603310:	02002025 	move	a0,s0
80603314:	240500b4 	li	a1,180
80603318:	0c037385 	jal	800dce14 <PlayerDisplayTextBox>
8060331c:	00003025 	move	a2,zero
80603320:	8fbf001c 	lw	ra,28(sp)
80603324:	02202825 	move	a1,s1
80603328:	02002025 	move	a0,s0
8060332c:	8fb10018 	lw	s1,24(sp)
80603330:	8fb00014 	lw	s0,20(sp)
80603334:	08182ac3 	j	8060ab0c <comboAddItem>
80603338:	27bd0020 	addiu	sp,sp,32

8060333c <EnSi_Draw>:
8060333c:	27bdffe0 	addiu	sp,sp,-32
80603340:	afb00014 	sw	s0,20(sp)
80603344:	00808025 	move	s0,a0
80603348:	9484001c 	lhu	a0,28(a0)
8060334c:	afb10018 	sw	s1,24(sp)
80603350:	afbf001c 	sw	ra,28(sp)
80603354:	0c180c9e 	jal	80603278 <EnSi_Override.isra.0>
80603358:	00a08825 	move	s1,a1
8060335c:	8fbf001c 	lw	ra,28(sp)
80603360:	02002825 	move	a1,s0
80603364:	02202025 	move	a0,s1
80603368:	8fb00014 	lw	s0,20(sp)
8060336c:	8fb10018 	lw	s1,24(sp)
80603370:	00003825 	move	a3,zero
80603374:	00403025 	move	a2,v0
80603378:	081817fb 	j	80605fec <comboDrawGI>
8060337c:	27bd0020 	addiu	sp,sp,32

80603380 <EnSyatekiMan_GiveItem>:
80603380:	27bdffd0 	addiu	sp,sp,-48
80603384:	24020060 	li	v0,96
80603388:	afb10018 	sw	s1,24(sp)
8060338c:	afb00014 	sw	s0,20(sp)
80603390:	f7b60028 	sdc1	$f22,40(sp)
80603394:	f7b40020 	sdc1	$f20,32(sp)
80603398:	c7b60040 	lwc1	$f22,64(sp)
8060339c:	4487a000 	mtc1	a3,$f20
806033a0:	afbf001c 	sw	ra,28(sp)
806033a4:	00808025 	move	s0,a0
806033a8:	10c20016 	beq	a2,v0,80603404 <EnSyatekiMan_GiveItem+0x84>
806033ac:	00a08825 	move	s1,a1
806033b0:	28c20061 	slti	v0,a2,97
806033b4:	10400010 	beqz	v0,806033f8 <EnSyatekiMan_GiveItem+0x78>
806033b8:	24c2ffd0 	addiu	v0,a2,-48
806033bc:	3042ffff 	andi	v0,v0,0xffff
806033c0:	2c420002 	sltiu	v0,v0,2
806033c4:	14400016 	bnez	v0,80603420 <EnSyatekiMan_GiveItem+0xa0>
806033c8:	00c03825 	move	a3,a2
806033cc:	e7b60040 	swc1	$f22,64(sp)
806033d0:	8fbf001c 	lw	ra,28(sp)
806033d4:	d7b60028 	ldc1	$f22,40(sp)
806033d8:	4407a000 	mfc1	a3,$f20
806033dc:	02202825 	move	a1,s1
806033e0:	d7b40020 	ldc1	$f20,32(sp)
806033e4:	8fb10018 	lw	s1,24(sp)
806033e8:	02002025 	move	a0,s0
806033ec:	8fb00014 	lw	s0,20(sp)
806033f0:	08008af5 	j	80022bd4 <GiveItem>
806033f4:	27bd0030 	addiu	sp,sp,48
806033f8:	2402007b 	li	v0,123
806033fc:	54c2fff4 	bnel	a2,v0,806033d0 <EnSyatekiMan_GiveItem+0x50>
80603400:	e7b60040 	swc1	$f22,64(sp)
80603404:	00c03825 	move	a3,a2
80603408:	2406001f 	li	a2,31
8060340c:	00002825 	move	a1,zero
80603410:	0c18316d 	jal	8060c5b4 <comboOverride>
80603414:	24040002 	li	a0,2
80603418:	1000ffec 	b	806033cc <EnSyatekiMan_GiveItem+0x4c>
8060341c:	00403025 	move	a2,v0
80603420:	1000fffa 	b	8060340c <EnSyatekiMan_GiveItem+0x8c>
80603424:	24060020 	li	a2,32

80603428 <EnZl4_Update6>:
80603428:	27bdffe0 	addiu	sp,sp,-32
8060342c:	afb10018 	sw	s1,24(sp)
80603430:	00808825 	move	s1,a0
80603434:	24040040 	li	a0,64
80603438:	afbf001c 	sw	ra,28(sp)
8060343c:	afb00014 	sw	s0,20(sp)
80603440:	0c00a238 	jal	800288e0 <SetEventChk>
80603444:	00a08025 	move	s0,a1
80603448:	0c00a238 	jal	800288e0 <SetEventChk>
8060344c:	24040059 	li	a0,89
80603450:	0c0083ad 	jal	80020eb4 <ActorDestroy>
80603454:	02202025 	move	a0,s1
80603458:	3c020001 	lui	v0,0x1
8060345c:	02022821 	addu	a1,s0,v0
80603460:	24020014 	li	v0,20
80603464:	a0a21e15 	sb	v0,7701(a1)
80603468:	2402002c 	li	v0,44
8060346c:	a0a21e5e 	sb	v0,7774(a1)
80603470:	8fbf001c 	lw	ra,28(sp)
80603474:	24020005 	li	v0,5
80603478:	a0a21e1a 	sb	v0,7706(a1)
8060347c:	2402ff94 	li	v0,-108
80603480:	8fb10018 	lw	s1,24(sp)
80603484:	8fb00014 	lw	s0,20(sp)
80603488:	a0a21e1b 	sb	v0,7707(a1)
8060348c:	03e00008 	jr	ra
80603490:	27bd0020 	addiu	sp,sp,32

80603494 <EnZl4_Update5>:
80603494:	27bdffe0 	addiu	sp,sp,-32
80603498:	afb00014 	sw	s0,20(sp)
8060349c:	00808025 	move	s0,a0
806034a0:	24a420d8 	addiu	a0,a1,8408
806034a4:	afb10018 	sw	s1,24(sp)
806034a8:	afbf001c 	sw	ra,28(sp)
806034ac:	0c037519 	jal	800dd464 <Message_GetState>
806034b0:	00a08825 	move	s1,a1
806034b4:	24030002 	li	v1,2
806034b8:	14430008 	bne	v0,v1,806034dc <EnZl4_Update5+0x48>
806034bc:	8fbf001c 	lw	ra,28(sp)
806034c0:	02202825 	move	a1,s1
806034c4:	0c180d0a 	jal	80603428 <EnZl4_Update6>
806034c8:	02002025 	move	a0,s0
806034cc:	3c028060 	lui	v0,0x8060
806034d0:	24423428 	addiu	v0,v0,13352
806034d4:	ae020130 	sw	v0,304(s0)
806034d8:	8fbf001c 	lw	ra,28(sp)
806034dc:	8fb10018 	lw	s1,24(sp)
806034e0:	8fb00014 	lw	s0,20(sp)
806034e4:	03e00008 	jr	ra
806034e8:	27bd0020 	addiu	sp,sp,32

806034ec <EnZl4_Update>:
806034ec:	27bdffe0 	addiu	sp,sp,-32
806034f0:	24022005 	li	v0,8197
806034f4:	afb00018 	sw	s0,24(sp)
806034f8:	afbf001c 	sw	ra,28(sp)
806034fc:	a482010e 	sh	v0,270(a0)
80603500:	afa50010 	sw	a1,16(sp)
80603504:	0c008a4c 	jal	80022930 <ActorTalkedTo>
80603508:	00808025 	move	s0,a0
8060350c:	10400008 	beqz	v0,80603530 <EnZl4_Update+0x44>
80603510:	8fa50010 	lw	a1,16(sp)
80603514:	8fbf001c 	lw	ra,28(sp)
80603518:	3c028060 	lui	v0,0x8060
8060351c:	2442366c 	addiu	v0,v0,13932
80603520:	ae020130 	sw	v0,304(s0)
80603524:	8fb00018 	lw	s0,24(sp)
80603528:	03e00008 	jr	ra
8060352c:	27bd0020 	addiu	sp,sp,32
80603530:	3c028061 	lui	v0,0x8061
80603534:	8fbf001c 	lw	ra,28(sp)
80603538:	02002025 	move	a0,s0
8060353c:	8c46d9d8 	lw	a2,-9768(v0)
80603540:	8fb00018 	lw	s0,24(sp)
80603544:	08008a9a 	j	80022a68 <ActorEnableTalk>
80603548:	27bd0020 	addiu	sp,sp,32

8060354c <EnZl4_Update4>:
8060354c:	27bdffd8 	addiu	sp,sp,-40
80603550:	afb10020 	sw	s1,32(sp)
80603554:	afb0001c 	sw	s0,28(sp)
80603558:	afbf0024 	sw	ra,36(sp)
8060355c:	00808025 	move	s0,a0
80603560:	0c008aec 	jal	80022bb0 <Actor_HasParent>
80603564:	00a08825 	move	s1,a1
80603568:	1040000d 	beqz	v0,806035a0 <EnZl4_Update4+0x54>
8060356c:	24070086 	li	a3,134
80603570:	ae000118 	sw	zero,280(s0)
80603574:	02202825 	move	a1,s1
80603578:	0c180d25 	jal	80603494 <EnZl4_Update5>
8060357c:	02002025 	move	a0,s0
80603580:	3c028060 	lui	v0,0x8060
80603584:	24423494 	addiu	v0,v0,13460
80603588:	ae020130 	sw	v0,304(s0)
8060358c:	8fbf0024 	lw	ra,36(sp)
80603590:	8fb10020 	lw	s1,32(sp)
80603594:	8fb0001c 	lw	s0,28(sp)
80603598:	03e00008 	jr	ra
8060359c:	27bd0028 	addiu	sp,sp,40
806035a0:	2406001a 	li	a2,26
806035a4:	00002825 	move	a1,zero
806035a8:	0c18316d 	jal	8060c5b4 <comboOverride>
806035ac:	24040002 	li	a0,2
806035b0:	3c038061 	lui	v1,0x8061
806035b4:	c460d9dc 	lwc1	$f0,-9764(v1)
806035b8:	3c038061 	lui	v1,0x8061
806035bc:	8c67d810 	lw	a3,-10224(v1)
806035c0:	e7a00010 	swc1	$f0,16(sp)
806035c4:	00403025 	move	a2,v0
806035c8:	02202825 	move	a1,s1
806035cc:	0c008af5 	jal	80022bd4 <GiveItem>
806035d0:	02002025 	move	a0,s0
806035d4:	1000ffee 	b	80603590 <EnZl4_Update4+0x44>
806035d8:	8fbf0024 	lw	ra,36(sp)

806035dc <EnZl4_Update3>:
806035dc:	27bdffd8 	addiu	sp,sp,-40
806035e0:	afb10020 	sw	s1,32(sp)
806035e4:	afb0001c 	sw	s0,28(sp)
806035e8:	afbf0024 	sw	ra,36(sp)
806035ec:	00808025 	move	s0,a0
806035f0:	0c008aec 	jal	80022bb0 <Actor_HasParent>
806035f4:	00a08825 	move	s1,a1
806035f8:	1040000d 	beqz	v0,80603630 <EnZl4_Update3+0x54>
806035fc:	2407000b 	li	a3,11
80603600:	ae000118 	sw	zero,280(s0)
80603604:	02202825 	move	a1,s1
80603608:	0c180d53 	jal	8060354c <EnZl4_Update4>
8060360c:	02002025 	move	a0,s0
80603610:	3c028060 	lui	v0,0x8060
80603614:	2442354c 	addiu	v0,v0,13644
80603618:	ae020130 	sw	v0,304(s0)
8060361c:	8fbf0024 	lw	ra,36(sp)
80603620:	8fb10020 	lw	s1,32(sp)
80603624:	8fb0001c 	lw	s0,28(sp)
80603628:	03e00008 	jr	ra
8060362c:	27bd0028 	addiu	sp,sp,40
80603630:	24060019 	li	a2,25
80603634:	00002825 	move	a1,zero
80603638:	0c18316d 	jal	8060c5b4 <comboOverride>
8060363c:	24040002 	li	a0,2
80603640:	3c038061 	lui	v1,0x8061
80603644:	c460d9dc 	lwc1	$f0,-9764(v1)
80603648:	3c038061 	lui	v1,0x8061
8060364c:	8c67d810 	lw	a3,-10224(v1)
80603650:	e7a00010 	swc1	$f0,16(sp)
80603654:	00403025 	move	a2,v0
80603658:	02202825 	move	a1,s1
8060365c:	0c008af5 	jal	80022bd4 <GiveItem>
80603660:	02002025 	move	a0,s0
80603664:	1000ffee 	b	80603620 <EnZl4_Update3+0x44>
80603668:	8fbf0024 	lw	ra,36(sp)

8060366c <EnZl4_Update2>:
8060366c:	27bdffe8 	addiu	sp,sp,-24
80603670:	afb00010 	sw	s0,16(sp)
80603674:	00808025 	move	s0,a0
80603678:	00a02025 	move	a0,a1
8060367c:	afbf0014 	sw	ra,20(sp)
80603680:	0c035886 	jal	800d6218 <Message_Close>
80603684:	afa5001c 	sw	a1,28(sp)
80603688:	8fa5001c 	lw	a1,28(sp)
8060368c:	0c180d77 	jal	806035dc <EnZl4_Update3>
80603690:	02002025 	move	a0,s0
80603694:	8fbf0014 	lw	ra,20(sp)
80603698:	3c028060 	lui	v0,0x8060
8060369c:	244235dc 	addiu	v0,v0,13788
806036a0:	ae020130 	sw	v0,304(s0)
806036a4:	8fb00010 	lw	s0,16(sp)
806036a8:	03e00008 	jr	ra
806036ac:	27bd0018 	addiu	sp,sp,24

806036b0 <EnMa1_HandlerNull>:
806036b0:	03e00008 	jr	ra
806036b4:	00000000 	nop

806036b8 <EnMa1_HandlerOcarina2>:
806036b8:	27bdffd8 	addiu	sp,sp,-40
806036bc:	afb10020 	sw	s1,32(sp)
806036c0:	afb0001c 	sw	s0,28(sp)
806036c4:	afbf0024 	sw	ra,36(sp)
806036c8:	00808025 	move	s0,a0
806036cc:	0c008aec 	jal	80022bb0 <Actor_HasParent>
806036d0:	00a08825 	move	s1,a1
806036d4:	14400013 	bnez	v0,80603724 <EnMa1_HandlerOcarina2+0x6c>
806036d8:	24070087 	li	a3,135
806036dc:	2406001b 	li	a2,27
806036e0:	00002825 	move	a1,zero
806036e4:	0c18316d 	jal	8060c5b4 <comboOverride>
806036e8:	24040002 	li	a0,2
806036ec:	3c038061 	lui	v1,0x8061
806036f0:	c460d8e0 	lwc1	$f0,-10016(v1)
806036f4:	3c038061 	lui	v1,0x8061
806036f8:	8c67d810 	lw	a3,-10224(v1)
806036fc:	e7a00010 	swc1	$f0,16(sp)
80603700:	00403025 	move	a2,v0
80603704:	02202825 	move	a1,s1
80603708:	0c008af5 	jal	80022bd4 <GiveItem>
8060370c:	02002025 	move	a0,s0
80603710:	8fbf0024 	lw	ra,36(sp)
80603714:	8fb10020 	lw	s1,32(sp)
80603718:	8fb0001c 	lw	s0,28(sp)
8060371c:	03e00008 	jr	ra
80603720:	27bd0028 	addiu	sp,sp,40
80603724:	0c00a238 	jal	800288e0 <SetEventChk>
80603728:	24040062 	li	a0,98
8060372c:	3c028060 	lui	v0,0x8060
80603730:	244236b0 	addiu	v0,v0,14000
80603734:	1000fff6 	b	80603710 <EnMa1_HandlerOcarina2+0x58>
80603738:	ae020180 	sw	v0,384(s0)

8060373c <EnMa1_HandlerOcarina>:
8060373c:	3c020001 	lui	v0,0x1
80603740:	00a21021 	addu	v0,a1,v0
80603744:	24030004 	li	v1,4
80603748:	a44304c6 	sh	v1,1222(v0)
8060374c:	3c028060 	lui	v0,0x8060
80603750:	244236b8 	addiu	v0,v0,14008
80603754:	08180dae 	j	806036b8 <EnMa1_HandlerOcarina2>
80603758:	ac820180 	sw	v0,384(a0)

8060375c <EnMa1_HandlerEgg>:
8060375c:	27bdffd8 	addiu	sp,sp,-40
80603760:	afb10020 	sw	s1,32(sp)
80603764:	afb0001c 	sw	s0,28(sp)
80603768:	afbf0024 	sw	ra,36(sp)
8060376c:	00808025 	move	s0,a0
80603770:	0c008aec 	jal	80022bb0 <Actor_HasParent>
80603774:	00a08825 	move	s1,a1
80603778:	10400012 	beqz	v0,806037c4 <EnMa1_HandlerEgg+0x68>
8060377c:	24070019 	li	a3,25
80603780:	02202825 	move	a1,s1
80603784:	0c008ab4 	jal	80022ad0 <Message_IsClosed>
80603788:	02002025 	move	a0,s0
8060378c:	10400009 	beqz	v0,806037b4 <EnMa1_HandlerEgg+0x58>
80603790:	8fbf0024 	lw	ra,36(sp)
80603794:	0c00a238 	jal	800288e0 <SetEventChk>
80603798:	24040010 	li	a0,16
8060379c:	0c00a238 	jal	800288e0 <SetEventChk>
806037a0:	24040012 	li	a0,18
806037a4:	3c028060 	lui	v0,0x8060
806037a8:	244236b0 	addiu	v0,v0,14000
806037ac:	ae020180 	sw	v0,384(s0)
806037b0:	8fbf0024 	lw	ra,36(sp)
806037b4:	8fb10020 	lw	s1,32(sp)
806037b8:	8fb0001c 	lw	s0,28(sp)
806037bc:	03e00008 	jr	ra
806037c0:	27bd0028 	addiu	sp,sp,40
806037c4:	00003025 	move	a2,zero
806037c8:	00002825 	move	a1,zero
806037cc:	0c18316d 	jal	8060c5b4 <comboOverride>
806037d0:	24040002 	li	a0,2
806037d4:	3c038061 	lui	v1,0x8061
806037d8:	8c67d9e0 	lw	a3,-9760(v1)
806037dc:	00403025 	move	a2,v0
806037e0:	afa70010 	sw	a3,16(sp)
806037e4:	02202825 	move	a1,s1
806037e8:	0c008af5 	jal	80022bd4 <GiveItem>
806037ec:	02002025 	move	a0,s0
806037f0:	1000fff0 	b	806037b4 <EnMa1_HandlerEgg+0x58>
806037f4:	8fbf0024 	lw	ra,36(sp)

806037f8 <EnItem00_GiveItemDefaultRange>:
806037f8:	9482001c 	lhu	v0,28(a0)
806037fc:	27bdffd8 	addiu	sp,sp,-40
80603800:	24030006 	li	v1,6
80603804:	afb40020 	sw	s4,32(sp)
80603808:	afb20018 	sw	s2,24(sp)
8060380c:	afb10014 	sw	s1,20(sp)
80603810:	afb00010 	sw	s0,16(sp)
80603814:	8cb41c44 	lw	s4,7236(a1)
80603818:	afbf0024 	sw	ra,36(sp)
8060381c:	afb3001c 	sw	s3,28(sp)
80603820:	00808825 	move	s1,a0
80603824:	00a09025 	move	s2,a1
80603828:	10430004 	beq	v0,v1,8060383c <EnItem00_GiveItemDefaultRange+0x44>
8060382c:	00c08025 	move	s0,a2
80603830:	24030011 	li	v1,17
80603834:	14430012 	bne	v0,v1,80603880 <EnItem00_GiveItemDefaultRange+0x88>
80603838:	00061040 	sll	v0,a2,0x1
8060383c:	96260140 	lhu	a2,320(s1)
80603840:	964500a4 	lhu	a1,164(s2)
80603844:	02003825 	move	a3,s0
80603848:	0c18316d 	jal	8060c5b4 <comboOverride>
8060384c:	24040001 	li	a0,1
80603850:	00408025 	move	s0,v0
80603854:	8fbf0024 	lw	ra,36(sp)
80603858:	8fb40020 	lw	s4,32(sp)
8060385c:	8fb3001c 	lw	s3,28(sp)
80603860:	02003025 	move	a2,s0
80603864:	02402825 	move	a1,s2
80603868:	8fb00010 	lw	s0,16(sp)
8060386c:	8fb20018 	lw	s2,24(sp)
80603870:	02202025 	move	a0,s1
80603874:	8fb10014 	lw	s1,20(sp)
80603878:	08008b3d 	j	80022cf4 <GiveItemDefaultRange>
8060387c:	27bd0028 	addiu	sp,sp,40
80603880:	00461021 	addu	v0,v0,a2
80603884:	00021040 	sll	v0,v0,0x1
80603888:	3c138061 	lui	s3,0x8061
8060388c:	2442fffa 	addiu	v0,v0,-6
80603890:	267350d0 	addiu	s3,s3,20688
80603894:	02629821 	addu	s3,s3,v0
80603898:	0c01c508 	jal	80071420 <GetItemCollectBehavior>
8060389c:	92640000 	lbu	a0,0(s3)
806038a0:	240300ff 	li	v1,255
806038a4:	1043ffec 	beq	v0,v1,80603858 <EnItem00_GiveItemDefaultRange+0x60>
806038a8:	8fbf0024 	lw	ra,36(sp)
806038ac:	8fb00010 	lw	s0,16(sp)
806038b0:	ae340118 	sw	s4,280(s1)
806038b4:	02603025 	move	a2,s3
806038b8:	8fb10014 	lw	s1,20(sp)
806038bc:	8fb3001c 	lw	s3,28(sp)
806038c0:	02802825 	move	a1,s4
806038c4:	02402025 	move	a0,s2
806038c8:	8fb40020 	lw	s4,32(sp)
806038cc:	8fb20018 	lw	s2,24(sp)
806038d0:	0818170a 	j	80605c28 <AddItemWithIcon>
806038d4:	27bd0028 	addiu	sp,sp,40

806038d8 <EnItem00_DrawHeartPieceSmallKey>:
806038d8:	9483001c 	lhu	v1,28(a0)
806038dc:	27bdffd8 	addiu	sp,sp,-40
806038e0:	24020006 	li	v0,6
806038e4:	afb10014 	sw	s1,20(sp)
806038e8:	afb00010 	sw	s0,16(sp)
806038ec:	afbf001c 	sw	ra,28(sp)
806038f0:	afb20018 	sw	s2,24(sp)
806038f4:	f7b40020 	sdc1	$f20,32(sp)
806038f8:	00808025 	move	s0,a0
806038fc:	14620019 	bne	v1,v0,80603964 <EnItem00_DrawHeartPieceSmallKey+0x8c>
80603900:	00a08825 	move	s1,a1
80603904:	3c028061 	lui	v0,0x8061
80603908:	c454d9e4 	lwc1	$f20,-9756(v0)
8060390c:	2407003e 	li	a3,62
80603910:	962500a4 	lhu	a1,164(s1)
80603914:	96060140 	lhu	a2,320(s0)
80603918:	0c18316d 	jal	8060c5b4 <comboOverride>
8060391c:	24040001 	li	a0,1
80603920:	4406a000 	mfc1	a2,$f20
80603924:	00409025 	move	s2,v0
80603928:	24070001 	li	a3,1
8060392c:	4600a386 	mov.s	$f14,$f20
80603930:	0c02aa3f 	jal	800aa8fc <ModelViewScale>
80603934:	4600a306 	mov.s	$f12,$f20
80603938:	8fbf001c 	lw	ra,28(sp)
8060393c:	d7b40020 	ldc1	$f20,32(sp)
80603940:	02403025 	move	a2,s2
80603944:	02002825 	move	a1,s0
80603948:	8fb20018 	lw	s2,24(sp)
8060394c:	8fb00010 	lw	s0,16(sp)
80603950:	02202025 	move	a0,s1
80603954:	8fb10014 	lw	s1,20(sp)
80603958:	00003825 	move	a3,zero
8060395c:	081817fb 	j	80605fec <comboDrawGI>
80603960:	27bd0028 	addiu	sp,sp,40
80603964:	3c028061 	lui	v0,0x8061
80603968:	c454d9e8 	lwc1	$f20,-9752(v0)
8060396c:	1000ffe8 	b	80603910 <EnItem00_DrawHeartPieceSmallKey+0x38>
80603970:	24070042 	li	a3,66

80603974 <EnGo2_HandlerNull>:
80603974:	03e00008 	jr	ra
80603978:	00000000 	nop

8060397c <EnGo2_HandlerGiveBiggoronItem>:
8060397c:	27bdffd8 	addiu	sp,sp,-40
80603980:	afb20020 	sw	s2,32(sp)
80603984:	afb1001c 	sw	s1,28(sp)
80603988:	afb00018 	sw	s0,24(sp)
8060398c:	afbf0024 	sw	ra,36(sp)
80603990:	84900584 	lh	s0,1412(a0)
80603994:	00808825 	move	s1,a0
80603998:	0c008aec 	jal	80022bb0 <Actor_HasParent>
8060399c:	00a09025 	move	s2,a1
806039a0:	1040000a 	beqz	v0,806039cc <EnGo2_HandlerGiveBiggoronItem+0x50>
806039a4:	24020026 	li	v0,38
806039a8:	3c028060 	lui	v0,0x8060
806039ac:	24423974 	addiu	v0,v0,14708
806039b0:	ae220180 	sw	v0,384(s1)
806039b4:	8fbf0024 	lw	ra,36(sp)
806039b8:	8fb20020 	lw	s2,32(sp)
806039bc:	8fb1001c 	lw	s1,28(sp)
806039c0:	8fb00018 	lw	s0,24(sp)
806039c4:	03e00008 	jr	ra
806039c8:	27bd0028 	addiu	sp,sp,40
806039cc:	12020020 	beq	s0,v0,80603a50 <EnGo2_HandlerGiveBiggoronItem+0xd4>
806039d0:	24020057 	li	v0,87
806039d4:	12020026 	beq	s0,v0,80603a70 <EnGo2_HandlerGiveBiggoronItem+0xf4>
806039d8:	24020023 	li	v0,35
806039dc:	5602000b 	bnel	s0,v0,80603a0c <EnGo2_HandlerGiveBiggoronItem+0x90>
806039e0:	8e421c44 	lw	v0,7236(s2)
806039e4:	24040002 	li	a0,2
806039e8:	24070023 	li	a3,35
806039ec:	24060047 	li	a2,71
806039f0:	0c18316d 	jal	8060c5b4 <comboOverride>
806039f4:	00002825 	move	a1,zero
806039f8:	00408025 	move	s0,v0
806039fc:	24040006 	li	a0,6
80603a00:	0c180106 	jal	80600418 <comboRemoveTradeItemAdult>
80603a04:	00000000 	nop
80603a08:	8e421c44 	lw	v0,7236(s2)
80603a0c:	8c42066c 	lw	v0,1644(v0)
80603a10:	30420400 	andi	v0,v0,0x400
80603a14:	14400004 	bnez	v0,80603a28 <EnGo2_HandlerGiveBiggoronItem+0xac>
80603a18:	3c028061 	lui	v0,0x8061
80603a1c:	0c035886 	jal	800d6218 <Message_Close>
80603a20:	02402025 	move	a0,s2
80603a24:	3c028061 	lui	v0,0x8061
80603a28:	c440d890 	lwc1	$f0,-10096(v0)
80603a2c:	3c028061 	lui	v0,0x8061
80603a30:	8c47d810 	lw	a3,-10224(v0)
80603a34:	e7a00010 	swc1	$f0,16(sp)
80603a38:	02003025 	move	a2,s0
80603a3c:	02402825 	move	a1,s2
80603a40:	0c008af5 	jal	80022bd4 <GiveItem>
80603a44:	02202025 	move	a0,s1
80603a48:	1000ffdb 	b	806039b8 <EnGo2_HandlerGiveBiggoronItem+0x3c>
80603a4c:	8fbf0024 	lw	ra,36(sp)
80603a50:	24040002 	li	a0,2
80603a54:	24070026 	li	a3,38
80603a58:	2406004a 	li	a2,74
80603a5c:	0c18316d 	jal	8060c5b4 <comboOverride>
80603a60:	00002825 	move	a1,zero
80603a64:	00408025 	move	s0,v0
80603a68:	1000ffe5 	b	80603a00 <EnGo2_HandlerGiveBiggoronItem+0x84>
80603a6c:	24040009 	li	a0,9
80603a70:	24040002 	li	a0,2
80603a74:	24070057 	li	a3,87
80603a78:	2406004b 	li	a2,75
80603a7c:	0c18316d 	jal	8060c5b4 <comboOverride>
80603a80:	00002825 	move	a1,zero
80603a84:	00408025 	move	s0,v0
80603a88:	3c028012 	lui	v0,0x8012
80603a8c:	2442a5d0 	addiu	v0,v0,-23088
80603a90:	8c43011c 	lw	v1,284(v0)
80603a94:	3c040020 	lui	a0,0x20
80603a98:	00641825 	or	v1,v1,a0
80603a9c:	1000ffda 	b	80603a08 <EnGo2_HandlerGiveBiggoronItem+0x8c>
80603aa0:	ac43011c 	sw	v1,284(v0)

80603aa4 <EnGo2_GiveItem>:
80603aa4:	27bdffd0 	addiu	sp,sp,-48
80603aa8:	2402002c 	li	v0,44
80603aac:	afb10018 	sw	s1,24(sp)
80603ab0:	afb00014 	sw	s0,20(sp)
80603ab4:	f7b60028 	sdc1	$f22,40(sp)
80603ab8:	f7b40020 	sdc1	$f20,32(sp)
80603abc:	c7b60040 	lwc1	$f22,64(sp)
80603ac0:	4487a000 	mtc1	a3,$f20
80603ac4:	afbf001c 	sw	ra,28(sp)
80603ac8:	00808025 	move	s0,a0
80603acc:	10c20016 	beq	a2,v0,80603b28 <EnGo2_GiveItem+0x84>
80603ad0:	00a08825 	move	s1,a1
80603ad4:	24c2ffcd 	addiu	v0,a2,-51
80603ad8:	3042ffff 	andi	v0,v0,0xffff
80603adc:	2c420002 	sltiu	v0,v0,2
80603ae0:	10400006 	beqz	v0,80603afc <EnGo2_GiveItem+0x58>
80603ae4:	00c03825 	move	a3,a2
80603ae8:	2406002a 	li	a2,42
80603aec:	00002825 	move	a1,zero
80603af0:	0c18316d 	jal	8060c5b4 <comboOverride>
80603af4:	24040002 	li	a0,2
80603af8:	00403025 	move	a2,v0
80603afc:	e7b60040 	swc1	$f22,64(sp)
80603b00:	8fbf001c 	lw	ra,28(sp)
80603b04:	d7b60028 	ldc1	$f22,40(sp)
80603b08:	4407a000 	mfc1	a3,$f20
80603b0c:	02202825 	move	a1,s1
80603b10:	d7b40020 	ldc1	$f20,32(sp)
80603b14:	8fb10018 	lw	s1,24(sp)
80603b18:	02002025 	move	a0,s0
80603b1c:	8fb00014 	lw	s0,20(sp)
80603b20:	08008af5 	j	80022bd4 <GiveItem>
80603b24:	27bd0030 	addiu	sp,sp,48
80603b28:	3c028012 	lui	v0,0x8012
80603b2c:	2442a5d0 	addiu	v0,v0,-23088
80603b30:	8c43011c 	lw	v1,284(v0)
80603b34:	3c040040 	lui	a0,0x40
80603b38:	00641825 	or	v1,v1,a0
80603b3c:	ac43011c 	sw	v1,284(v0)
80603b40:	2407002c 	li	a3,44
80603b44:	1000ffe9 	b	80603aec <EnGo2_GiveItem+0x48>
80603b48:	24060004 	li	a2,4

80603b4c <EnGo2_GetMessageLinkGoron>:
80603b4c:	3c038012 	lui	v1,0x8012
80603b50:	2463a5d0 	addiu	v1,v1,-23088
80603b54:	8c62011c 	lw	v0,284(v1)
80603b58:	3c040040 	lui	a0,0x40
80603b5c:	00822024 	and	a0,a0,v0
80603b60:	10800006 	beqz	a0,80603b7c <EnGo2_GetMessageLinkGoron+0x30>
80603b64:	24023033 	li	v0,12339
80603b68:	8c6300a4 	lw	v1,164(v1)
80603b6c:	30630002 	andi	v1,v1,0x2
80603b70:	10600002 	beqz	v1,80603b7c <EnGo2_GetMessageLinkGoron+0x30>
80603b74:	24023038 	li	v0,12344
80603b78:	24023042 	li	v0,12354
80603b7c:	03e00008 	jr	ra
80603b80:	00000000 	nop

80603b84 <EnGo2_SetBiggoronMessageId>:
80603b84:	9482001c 	lhu	v0,28(a0)
80603b88:	27bdffe0 	addiu	sp,sp,-32
80603b8c:	3042001f 	andi	v0,v0,0x1f
80603b90:	24030002 	li	v1,2
80603b94:	afb00014 	sw	s0,20(sp)
80603b98:	afbf001c 	sw	ra,28(sp)
80603b9c:	afb10018 	sw	s1,24(sp)
80603ba0:	1443001b 	bne	v0,v1,80603c10 <EnGo2_SetBiggoronMessageId+0x8c>
80603ba4:	00808025 	move	s0,a0
80603ba8:	00a02025 	move	a0,a1
80603bac:	0c008ac1 	jal	80022b04 <GetActiveItem>
80603bb0:	00c08825 	move	s1,a2
80603bb4:	2403000e 	li	v1,14
80603bb8:	1043001a 	beq	v0,v1,80603c24 <EnGo2_SetBiggoronMessageId+0xa0>
80603bbc:	2403000f 	li	v1,15
80603bc0:	10430005 	beq	v0,v1,80603bd8 <EnGo2_SetBiggoronMessageId+0x54>
80603bc4:	2403000b 	li	v1,11
80603bc8:	5443000f 	bnel	v0,v1,80603c08 <EnGo2_SetBiggoronMessageId+0x84>
80603bcc:	24023053 	li	v0,12371
80603bd0:	10000008 	b	80603bf4 <EnGo2_SetBiggoronMessageId+0x70>
80603bd4:	24020023 	li	v0,35
80603bd8:	3c028012 	lui	v0,0x8012
80603bdc:	8c43a6ec 	lw	v1,-22804(v0)
80603be0:	3c020020 	lui	v0,0x20
80603be4:	00431024 	and	v0,v0,v1
80603be8:	14400007 	bnez	v0,80603c08 <EnGo2_SetBiggoronMessageId+0x84>
80603bec:	24023053 	li	v0,12371
80603bf0:	24020057 	li	v0,87
80603bf4:	a6020584 	sh	v0,1412(s0)
80603bf8:	3c028060 	lui	v0,0x8060
80603bfc:	2442397c 	addiu	v0,v0,14716
80603c00:	ae020180 	sw	v0,384(s0)
80603c04:	24023053 	li	v0,12371
80603c08:	a602010e 	sh	v0,270(s0)
80603c0c:	a622010e 	sh	v0,270(s1)
80603c10:	8fbf001c 	lw	ra,28(sp)
80603c14:	8fb10018 	lw	s1,24(sp)
80603c18:	8fb00014 	lw	s0,20(sp)
80603c1c:	03e00008 	jr	ra
80603c20:	27bd0020 	addiu	sp,sp,32
80603c24:	1000fff3 	b	80603bf4 <EnGo2_SetBiggoronMessageId+0x70>
80603c28:	24020026 	li	v0,38

80603c2c <EnGo2_InitWrapper>:
80603c2c:	94a300a4 	lhu	v1,164(a1)
80603c30:	27bdffe0 	addiu	sp,sp,-32
80603c34:	2402002c 	li	v0,44
80603c38:	afb10018 	sw	s1,24(sp)
80603c3c:	afb00014 	sw	s0,20(sp)
80603c40:	afbf001c 	sw	ra,28(sp)
80603c44:	00808825 	move	s1,a0
80603c48:	1462000a 	bne	v1,v0,80603c74 <EnGo2_InitWrapper+0x48>
80603c4c:	00a08025 	move	s0,a1
80603c50:	3c028012 	lui	v0,0x8012
80603c54:	8c42a5d4 	lw	v0,-23084(v0)
80603c58:	14400007 	bnez	v0,80603c78 <EnGo2_InitWrapper+0x4c>
80603c5c:	3c0580b5 	lui	a1,0x80b5
80603c60:	8fbf001c 	lw	ra,28(sp)
80603c64:	8fb10018 	lw	s1,24(sp)
80603c68:	8fb00014 	lw	s0,20(sp)
80603c6c:	080083ad 	j	80020eb4 <ActorDestroy>
80603c70:	27bd0020 	addiu	sp,sp,32
80603c74:	3c0580b5 	lui	a1,0x80b5
80603c78:	34a5a0f0 	ori	a1,a1,0xa0f0
80603c7c:	0c1830f9 	jal	8060c3e4 <actorAddr>
80603c80:	240401ae 	li	a0,430
80603c84:	8fbf001c 	lw	ra,28(sp)
80603c88:	02002825 	move	a1,s0
80603c8c:	02202025 	move	a0,s1
80603c90:	8fb00014 	lw	s0,20(sp)
80603c94:	8fb10018 	lw	s1,24(sp)
80603c98:	0040c825 	move	t9,v0
80603c9c:	03200008 	jr	t9
80603ca0:	27bd0020 	addiu	sp,sp,32

80603ca4 <EnGs_TalkedTo>:
80603ca4:	27bdffe8 	addiu	sp,sp,-24
80603ca8:	afb00010 	sw	s0,16(sp)
80603cac:	afa5001c 	sw	a1,28(sp)
80603cb0:	afbf0014 	sw	ra,20(sp)
80603cb4:	0c008a4c 	jal	80022930 <ActorTalkedTo>
80603cb8:	00808025 	move	s0,a0
80603cbc:	1040000c 	beqz	v0,80603cf0 <EnGs_TalkedTo+0x4c>
80603cc0:	8fa5001c 	lw	a1,28(sp)
80603cc4:	9604001c 	lhu	a0,28(s0)
80603cc8:	24020018 	li	v0,24
80603ccc:	3084001f 	andi	a0,a0,0x1f
80603cd0:	14820004 	bne	a0,v0,80603ce4 <EnGs_TalkedTo+0x40>
80603cd4:	3c028012 	lui	v0,0x8012
80603cd8:	9044b967 	lbu	a0,-18073(v0)
80603cdc:	3084001f 	andi	a0,a0,0x1f
80603ce0:	34840020 	ori	a0,a0,0x20
80603ce4:	0c182eec 	jal	8060bbb0 <comboHintGossip>
80603ce8:	00000000 	nop
80603cec:	24020001 	li	v0,1
80603cf0:	8fbf0014 	lw	ra,20(sp)
80603cf4:	8fb00010 	lw	s0,16(sp)
80603cf8:	03e00008 	jr	ra
80603cfc:	27bd0018 	addiu	sp,sp,24

80603d00 <EnFr_GiveItem>:
80603d00:	27bdffd0 	addiu	sp,sp,-48
80603d04:	2402003e 	li	v0,62
80603d08:	afb10018 	sw	s1,24(sp)
80603d0c:	afb00014 	sw	s0,20(sp)
80603d10:	f7b60028 	sdc1	$f22,40(sp)
80603d14:	f7b40020 	sdc1	$f20,32(sp)
80603d18:	c7b60040 	lwc1	$f22,64(sp)
80603d1c:	4487a000 	mtc1	a3,$f20
80603d20:	afbf001c 	sw	ra,28(sp)
80603d24:	00808025 	move	s0,a0
80603d28:	14c2000b 	bne	a2,v0,80603d58 <EnFr_GiveItem+0x58>
80603d2c:	00a08825 	move	s1,a1
80603d30:	0c00a22d 	jal	800288b4 <GetEventChk>
80603d34:	240400d0 	li	a0,208
80603d38:	2407003e 	li	a3,62
80603d3c:	14400002 	bnez	v0,80603d48 <EnFr_GiveItem+0x48>
80603d40:	2406002c 	li	a2,44
80603d44:	2406002b 	li	a2,43
80603d48:	00002825 	move	a1,zero
80603d4c:	0c18316d 	jal	8060c5b4 <comboOverride>
80603d50:	24040002 	li	a0,2
80603d54:	00403025 	move	a2,v0
80603d58:	e7b60040 	swc1	$f22,64(sp)
80603d5c:	8fbf001c 	lw	ra,28(sp)
80603d60:	d7b60028 	ldc1	$f22,40(sp)
80603d64:	4407a000 	mfc1	a3,$f20
80603d68:	02202825 	move	a1,s1
80603d6c:	d7b40020 	ldc1	$f20,32(sp)
80603d70:	8fb10018 	lw	s1,24(sp)
80603d74:	02002025 	move	a0,s0
80603d78:	8fb00014 	lw	s0,20(sp)
80603d7c:	08008af5 	j	80022bd4 <GiveItem>
80603d80:	27bd0030 	addiu	sp,sp,48

80603d84 <EnTk_RandFloat>:
80603d84:	3c028012 	lui	v0,0x8012
80603d88:	9442b4c2 	lhu	v0,-19262(v0)
80603d8c:	30421000 	andi	v0,v0,0x1000
80603d90:	10400003 	beqz	v0,80603da0 <EnTk_RandFloat+0x1c>
80603d94:	3c028061 	lui	v0,0x8061
80603d98:	08033733 	j	800cdccc <RandFloat>
80603d9c:	00000000 	nop
80603da0:	03e00008 	jr	ra
80603da4:	c440d9ec 	lwc1	$f0,-9748(v0)

80603da8 <EnTk_AfterInit>:
80603da8:	3c028012 	lui	v0,0x8012
80603dac:	2442a5d0 	addiu	v0,v0,-23088
80603db0:	8c4309f4 	lw	v1,2548(v0)
80603db4:	04600004 	bltz	v1,80603dc8 <EnTk_AfterInit+0x20>
80603db8:	00000000 	nop
80603dbc:	94430ef2 	lhu	v1,3826(v0)
80603dc0:	3063efff 	andi	v1,v1,0xefff
80603dc4:	a4430ef2 	sh	v1,3826(v0)
80603dc8:	03e00008 	jr	ra
80603dcc:	00000000 	nop

80603dd0 <EnAni_GiveItem>:
80603dd0:	27bdffd0 	addiu	sp,sp,-48
80603dd4:	f7b60028 	sdc1	$f22,40(sp)
80603dd8:	f7b40020 	sdc1	$f20,32(sp)
80603ddc:	c7b60040 	lwc1	$f22,64(sp)
80603de0:	4487a000 	mtc1	a3,$f20
80603de4:	afb10018 	sw	s1,24(sp)
80603de8:	afb00014 	sw	s0,20(sp)
80603dec:	00a08825 	move	s1,a1
80603df0:	00808025 	move	s0,a0
80603df4:	00c03825 	move	a3,a2
80603df8:	00002825 	move	a1,zero
80603dfc:	24060027 	li	a2,39
80603e00:	afbf001c 	sw	ra,28(sp)
80603e04:	0c18316d 	jal	8060c5b4 <comboOverride>
80603e08:	24040002 	li	a0,2
80603e0c:	e7b60040 	swc1	$f22,64(sp)
80603e10:	8fbf001c 	lw	ra,28(sp)
80603e14:	d7b60028 	ldc1	$f22,40(sp)
80603e18:	4407a000 	mfc1	a3,$f20
80603e1c:	02202825 	move	a1,s1
80603e20:	d7b40020 	ldc1	$f20,32(sp)
80603e24:	8fb10018 	lw	s1,24(sp)
80603e28:	02002025 	move	a0,s0
80603e2c:	8fb00014 	lw	s0,20(sp)
80603e30:	00403025 	move	a2,v0
80603e34:	08008af5 	j	80022bd4 <GiveItem>
80603e38:	27bd0030 	addiu	sp,sp,48

80603e3c <EnGe3_GiveItem>:
80603e3c:	27bdffd0 	addiu	sp,sp,-48
80603e40:	f7b60028 	sdc1	$f22,40(sp)
80603e44:	f7b40020 	sdc1	$f20,32(sp)
80603e48:	c7b60040 	lwc1	$f22,64(sp)
80603e4c:	4487a000 	mtc1	a3,$f20
80603e50:	afb10018 	sw	s1,24(sp)
80603e54:	afb00014 	sw	s0,20(sp)
80603e58:	00a08825 	move	s1,a1
80603e5c:	00808025 	move	s0,a0
80603e60:	00c03825 	move	a3,a2
80603e64:	00002825 	move	a1,zero
80603e68:	24060007 	li	a2,7
80603e6c:	afbf001c 	sw	ra,28(sp)
80603e70:	0c18316d 	jal	8060c5b4 <comboOverride>
80603e74:	24040002 	li	a0,2
80603e78:	e7b60040 	swc1	$f22,64(sp)
80603e7c:	8fbf001c 	lw	ra,28(sp)
80603e80:	d7b60028 	ldc1	$f22,40(sp)
80603e84:	4407a000 	mfc1	a3,$f20
80603e88:	02202825 	move	a1,s1
80603e8c:	d7b40020 	ldc1	$f20,32(sp)
80603e90:	8fb10018 	lw	s1,24(sp)
80603e94:	02002025 	move	a0,s0
80603e98:	8fb00014 	lw	s0,20(sp)
80603e9c:	00403025 	move	a2,v0
80603ea0:	08008af5 	j	80022bd4 <GiveItem>
80603ea4:	27bd0030 	addiu	sp,sp,48

80603ea8 <EnHeishi2_AfterZeldaLetter>:
80603ea8:	27bdffe8 	addiu	sp,sp,-24
80603eac:	afbf0014 	sw	ra,20(sp)
80603eb0:	0c035886 	jal	800d6218 <Message_Close>
80603eb4:	00000000 	nop
80603eb8:	8fbf0014 	lw	ra,20(sp)
80603ebc:	24040002 	li	a0,2
80603ec0:	08180126 	j	80600498 <comboRemoveTradeItemChild>
80603ec4:	27bd0018 	addiu	sp,sp,24

80603ec8 <EnDntNormal_Noop>:
80603ec8:	03e00008 	jr	ra
80603ecc:	00000000 	nop

80603ed0 <EnDntNormal_GiveReward>:
80603ed0:	27bdffd8 	addiu	sp,sp,-40
80603ed4:	afb10020 	sw	s1,32(sp)
80603ed8:	afb0001c 	sw	s0,28(sp)
80603edc:	afbf0024 	sw	ra,36(sp)
80603ee0:	00808025 	move	s0,a0
80603ee4:	0c008aec 	jal	80022bb0 <Actor_HasParent>
80603ee8:	00a08825 	move	s1,a1
80603eec:	1040000d 	beqz	v0,80603f24 <EnDntNormal_GiveReward+0x54>
80603ef0:	3c028012 	lui	v0,0x8012
80603ef4:	2442a5d0 	addiu	v0,v0,-23088
80603ef8:	94430ef2 	lhu	v1,3826(v0)
80603efc:	34632000 	ori	v1,v1,0x2000
80603f00:	a4430ef2 	sh	v1,3826(v0)
80603f04:	3c028060 	lui	v0,0x8060
80603f08:	24423ec8 	addiu	v0,v0,16072
80603f0c:	ae020204 	sw	v0,516(s0)
80603f10:	8fbf0024 	lw	ra,36(sp)
80603f14:	8fb10020 	lw	s1,32(sp)
80603f18:	8fb0001c 	lw	s0,28(sp)
80603f1c:	03e00008 	jr	ra
80603f20:	27bd0028 	addiu	sp,sp,40
80603f24:	8e241c44 	lw	a0,7236(s1)
80603f28:	3c03ffef 	lui	v1,0xffef
80603f2c:	8c82066c 	lw	v0,1644(a0)
80603f30:	3463fff7 	ori	v1,v1,0xfff7
80603f34:	00431024 	and	v0,v0,v1
80603f38:	ac82066c 	sw	v0,1644(a0)
80603f3c:	24070005 	li	a3,5
80603f40:	24060008 	li	a2,8
80603f44:	00002825 	move	a1,zero
80603f48:	0c18316d 	jal	8060c5b4 <comboOverride>
80603f4c:	24040002 	li	a0,2
80603f50:	3c038061 	lui	v1,0x8061
80603f54:	8c67d9f0 	lw	a3,-9744(v1)
80603f58:	00403025 	move	a2,v0
80603f5c:	afa70010 	sw	a3,16(sp)
80603f60:	02202825 	move	a1,s1
80603f64:	0c008af5 	jal	80022bd4 <GiveItem>
80603f68:	02002025 	move	a0,s0
80603f6c:	1000ffe9 	b	80603f14 <EnDntNormal_GiveReward+0x44>
80603f70:	8fbf0024 	lw	ra,36(sp)

80603f74 <EnToryo_DefaultText>:
80603f74:	2402200f 	li	v0,8207
80603f78:	24010001 	li	at,1
80603f7c:	ac8101d4 	sw	at,468(a0)
80603f80:	8fbf0014 	lw	ra,20(sp)
80603f84:	03e00008 	jr	ra
80603f88:	27bd0020 	addiu	sp,sp,32

80603f8c <EnExItem_RewardByIndex>:
80603f8c:	2c820014 	sltiu	v0,a0,20
80603f90:	1040001e 	beqz	v0,8060400c <EnExItem_RewardByIndex+0x80>
80603f94:	00042080 	sll	a0,a0,0x2
80603f98:	3c028061 	lui	v0,0x8061
80603f9c:	2442d9f4 	addiu	v0,v0,-9740
80603fa0:	00441021 	addu	v0,v0,a0
80603fa4:	8c420000 	lw	v0,0(v0)
80603fa8:	00400008 	jr	v0
80603fac:	00000000 	nop
80603fb0:	03e00008 	jr	ra
80603fb4:	24020066 	li	v0,102
80603fb8:	24070032 	li	a3,50
80603fbc:	24060009 	li	a2,9
80603fc0:	00002825 	move	a1,zero
80603fc4:	0818316d 	j	8060c5b4 <comboOverride>
80603fc8:	24040002 	li	a0,2
80603fcc:	2407003e 	li	a3,62
80603fd0:	1000fffb 	b	80603fc0 <EnExItem_RewardByIndex+0x34>
80603fd4:	2406000a 	li	a2,10
80603fd8:	03e00008 	jr	ra
80603fdc:	24020055 	li	v0,85
80603fe0:	03e00008 	jr	ra
80603fe4:	2402004c 	li	v0,76
80603fe8:	03e00008 	jr	ra
80603fec:	2402004d 	li	v0,77
80603ff0:	03e00008 	jr	ra
80603ff4:	2402004e 	li	v0,78
80603ff8:	03e00008 	jr	ra
80603ffc:	24020042 	li	v0,66
80604000:	24070005 	li	a3,5
80604004:	1000ffee 	b	80603fc0 <EnExItem_RewardByIndex+0x34>
80604008:	24060008 	li	a2,8
8060400c:	03e00008 	jr	ra
80604010:	00001025 	move	v0,zero
80604014:	03e00008 	jr	ra
80604018:	24020003 	li	v0,3

8060401c <EnExItem_Reward>:
8060401c:	9484001c 	lhu	a0,28(a0)
80604020:	08180fe3 	j	80603f8c <EnExItem_RewardByIndex>
80604024:	3084001f 	andi	a0,a0,0x1f

80604028 <EnExItem_Draw>:
80604028:	27bdffe0 	addiu	sp,sp,-32
8060402c:	afb10018 	sw	s1,24(sp)
80604030:	00a08825 	move	s1,a1
80604034:	8c850154 	lw	a1,340(a0)
80604038:	afb00014 	sw	s0,20(sp)
8060403c:	afbf001c 	sw	ra,28(sp)
80604040:	0c0083e2 	jal	80020f88 <ActorSetScale>
80604044:	00808025 	move	s0,a0
80604048:	0c181007 	jal	8060401c <EnExItem_Reward>
8060404c:	02002025 	move	a0,s0
80604050:	8fbf001c 	lw	ra,28(sp)
80604054:	02002825 	move	a1,s0
80604058:	02202025 	move	a0,s1
8060405c:	8fb00014 	lw	s0,20(sp)
80604060:	8fb10018 	lw	s1,24(sp)
80604064:	00003825 	move	a3,zero
80604068:	00403025 	move	a2,v0
8060406c:	081817fb 	j	80605fec <comboDrawGI>
80604070:	27bd0020 	addiu	sp,sp,32

80604074 <EnExItem_GiveItem>:
80604074:	27bdffd8 	addiu	sp,sp,-40
80604078:	f7b40020 	sdc1	$f20,32(sp)
8060407c:	c7b40038 	lwc1	$f20,56(sp)
80604080:	afb00018 	sw	s0,24(sp)
80604084:	00808025 	move	s0,a0
80604088:	afbf001c 	sw	ra,28(sp)
8060408c:	afa50014 	sw	a1,20(sp)
80604090:	0c181007 	jal	8060401c <EnExItem_Reward>
80604094:	afa70010 	sw	a3,16(sp)
80604098:	e7b40038 	swc1	$f20,56(sp)
8060409c:	8fa70010 	lw	a3,16(sp)
806040a0:	8fa50014 	lw	a1,20(sp)
806040a4:	8fbf001c 	lw	ra,28(sp)
806040a8:	d7b40020 	ldc1	$f20,32(sp)
806040ac:	02002025 	move	a0,s0
806040b0:	8fb00018 	lw	s0,24(sp)
806040b4:	00403025 	move	a2,v0
806040b8:	08008af5 	j	80022bd4 <GiveItem>
806040bc:	27bd0028 	addiu	sp,sp,40

806040c0 <EnOkarinaTag_HandleWindmill>:
806040c0:	27bdffe8 	addiu	sp,sp,-24
806040c4:	afbf0014 	sw	ra,20(sp)
806040c8:	0c00a238 	jal	800288e0 <SetEventChk>
806040cc:	24040065 	li	a0,101
806040d0:	8fbf0014 	lw	ra,20(sp)
806040d4:	24040067 	li	a0,103
806040d8:	0800a238 	j	800288e0 <SetEventChk>
806040dc:	27bd0018 	addiu	sp,sp,24

806040e0 <EnOkarinaTag_GiveSunSong>:
806040e0:	27bdffd8 	addiu	sp,sp,-40
806040e4:	afb10020 	sw	s1,32(sp)
806040e8:	afb0001c 	sw	s0,28(sp)
806040ec:	afbf0024 	sw	ra,36(sp)
806040f0:	00808025 	move	s0,a0
806040f4:	0c008aec 	jal	80022bb0 <Actor_HasParent>
806040f8:	00a08825 	move	s1,a1
806040fc:	10400009 	beqz	v0,80604124 <EnOkarinaTag_GiveSunSong+0x44>
80604100:	24070089 	li	a3,137
80604104:	0c00a238 	jal	800288e0 <SetEventChk>
80604108:	2404005a 	li	a0,90
8060410c:	8fbf0024 	lw	ra,36(sp)
80604110:	8fb10020 	lw	s1,32(sp)
80604114:	02002025 	move	a0,s0
80604118:	8fb0001c 	lw	s0,28(sp)
8060411c:	080083ad 	j	80020eb4 <ActorDestroy>
80604120:	27bd0028 	addiu	sp,sp,40
80604124:	24060028 	li	a2,40
80604128:	00002825 	move	a1,zero
8060412c:	0c18316d 	jal	8060c5b4 <comboOverride>
80604130:	24040002 	li	a0,2
80604134:	3c038061 	lui	v1,0x8061
80604138:	c460d8e0 	lwc1	$f0,-10016(v1)
8060413c:	3c038061 	lui	v1,0x8061
80604140:	8c67d810 	lw	a3,-10224(v1)
80604144:	e7a00010 	swc1	$f0,16(sp)
80604148:	02202825 	move	a1,s1
8060414c:	02002025 	move	a0,s0
80604150:	0c008af5 	jal	80022bd4 <GiveItem>
80604154:	00403025 	move	a2,v0
80604158:	8fbf0024 	lw	ra,36(sp)
8060415c:	8fb10020 	lw	s1,32(sp)
80604160:	8fb0001c 	lw	s0,28(sp)
80604164:	03e00008 	jr	ra
80604168:	27bd0028 	addiu	sp,sp,40

8060416c <EnOkarinaTag_HandlerTombRoyal>:
8060416c:	27bdffe0 	addiu	sp,sp,-32
80604170:	afb00014 	sw	s0,20(sp)
80604174:	00808025 	move	s0,a0
80604178:	2404005a 	li	a0,90
8060417c:	afb10018 	sw	s1,24(sp)
80604180:	afbf001c 	sw	ra,28(sp)
80604184:	0c00a22d 	jal	800288b4 <GetEventChk>
80604188:	00a08825 	move	s1,a1
8060418c:	10400004 	beqz	v0,806041a0 <EnOkarinaTag_HandlerTombRoyal+0x34>
80604190:	24025021 	li	v0,20513
80604194:	0c0083ad 	jal	80020eb4 <ActorDestroy>
80604198:	02002025 	move	a0,s0
8060419c:	24025021 	li	v0,20513
806041a0:	a602010e 	sh	v0,270(s0)
806041a4:	0c008a4c 	jal	80022930 <ActorTalkedTo>
806041a8:	02002025 	move	a0,s0
806041ac:	1040000d 	beqz	v0,806041e4 <EnOkarinaTag_HandlerTombRoyal+0x78>
806041b0:	3c028061 	lui	v0,0x8061
806041b4:	0c035886 	jal	800d6218 <Message_Close>
806041b8:	02202025 	move	a0,s1
806041bc:	3c028060 	lui	v0,0x8060
806041c0:	244240e0 	addiu	v0,v0,16608
806041c4:	8fbf001c 	lw	ra,28(sp)
806041c8:	ae02013c 	sw	v0,316(s0)
806041cc:	02202825 	move	a1,s1
806041d0:	02002025 	move	a0,s0
806041d4:	8fb10018 	lw	s1,24(sp)
806041d8:	8fb00014 	lw	s0,20(sp)
806041dc:	08181038 	j	806040e0 <EnOkarinaTag_GiveSunSong>
806041e0:	27bd0020 	addiu	sp,sp,32
806041e4:	8fbf001c 	lw	ra,28(sp)
806041e8:	02202825 	move	a1,s1
806041ec:	02002025 	move	a0,s0
806041f0:	8fb10018 	lw	s1,24(sp)
806041f4:	8fb00014 	lw	s0,20(sp)
806041f8:	8c46da44 	lw	a2,-9660(v0)
806041fc:	08008a9a 	j	80022a68 <ActorEnableTalk>
80604200:	27bd0020 	addiu	sp,sp,32

80604204 <Fishing_GiveItem>:
80604204:	3c038012 	lui	v1,0x8012
80604208:	27bdffd0 	addiu	sp,sp,-48
8060420c:	2463a5d0 	addiu	v1,v1,-23088
80604210:	afb00014 	sw	s0,20(sp)
80604214:	00808025 	move	s0,a0
80604218:	8c640004 	lw	a0,4(v1)
8060421c:	8c62011c 	lw	v0,284(v1)
80604220:	24030001 	li	v1,1
80604224:	afb10018 	sw	s1,24(sp)
80604228:	f7b60028 	sdc1	$f22,40(sp)
8060422c:	f7b40020 	sdc1	$f20,32(sp)
80604230:	c7b60040 	lwc1	$f22,64(sp)
80604234:	4487a000 	mtc1	a3,$f20
80604238:	afbf001c 	sw	ra,28(sp)
8060423c:	14830016 	bne	a0,v1,80604298 <Fishing_GiveItem+0x94>
80604240:	00a08825 	move	s1,a1
80604244:	3c030100 	lui	v1,0x100
80604248:	00431824 	and	v1,v0,v1
8060424c:	14600006 	bnez	v1,80604268 <Fishing_GiveItem+0x64>
80604250:	2402004d 	li	v0,77
80604254:	00c03825 	move	a3,a2
80604258:	24060030 	li	a2,48
8060425c:	00002825 	move	a1,zero
80604260:	0c18316d 	jal	8060c5b4 <comboOverride>
80604264:	24040002 	li	a0,2
80604268:	e7b60040 	swc1	$f22,64(sp)
8060426c:	8fbf001c 	lw	ra,28(sp)
80604270:	d7b60028 	ldc1	$f22,40(sp)
80604274:	4407a000 	mfc1	a3,$f20
80604278:	02202825 	move	a1,s1
8060427c:	d7b40020 	ldc1	$f20,32(sp)
80604280:	8fb10018 	lw	s1,24(sp)
80604284:	02002025 	move	a0,s0
80604288:	8fb00014 	lw	s0,20(sp)
8060428c:	00403025 	move	a2,v0
80604290:	08008af5 	j	80022bd4 <GiveItem>
80604294:	27bd0030 	addiu	sp,sp,48
80604298:	3c030080 	lui	v1,0x80
8060429c:	00431824 	and	v1,v0,v1
806042a0:	1460fff1 	bnez	v1,80604268 <Fishing_GiveItem+0x64>
806042a4:	2402004d 	li	v0,77
806042a8:	00c03825 	move	a3,a2
806042ac:	1000ffeb 	b	8060425c <Fishing_GiveItem+0x58>
806042b0:	24060031 	li	a2,49

806042b4 <Fishing_HasGivenItem>:
806042b4:	27bdffe8 	addiu	sp,sp,-24
806042b8:	afbf0014 	sw	ra,20(sp)
806042bc:	0c008aec 	jal	80022bb0 <Actor_HasParent>
806042c0:	00000000 	nop
806042c4:	1040000c 	beqz	v0,806042f8 <Fishing_HasGivenItem+0x44>
806042c8:	8fbf0014 	lw	ra,20(sp)
806042cc:	3c028012 	lui	v0,0x8012
806042d0:	2442a5d0 	addiu	v0,v0,-23088
806042d4:	8c440004 	lw	a0,4(v0)
806042d8:	24030001 	li	v1,1
806042dc:	14830008 	bne	a0,v1,80604300 <Fishing_HasGivenItem+0x4c>
806042e0:	8c43011c 	lw	v1,284(v0)
806042e4:	3c040100 	lui	a0,0x100
806042e8:	00641825 	or	v1,v1,a0
806042ec:	ac43011c 	sw	v1,284(v0)
806042f0:	24020001 	li	v0,1
806042f4:	8fbf0014 	lw	ra,20(sp)
806042f8:	03e00008 	jr	ra
806042fc:	27bd0018 	addiu	sp,sp,24
80604300:	1000fff9 	b	806042e8 <Fishing_HasGivenItem+0x34>
80604304:	3c040080 	lui	a0,0x80

80604308 <ShotSun_GiveFireArrow>:
80604308:	27bdffe8 	addiu	sp,sp,-24
8060430c:	afbf0014 	sw	ra,20(sp)
80604310:	0c0191bc 	jal	800646f0 <PlaySound>
80604314:	24044802 	li	a0,18434
80604318:	3c028012 	lui	v0,0x8012
8060431c:	8c42a6ec 	lw	v0,-22804(v0)
80604320:	8fbf0014 	lw	ra,20(sp)
80604324:	000214c2 	srl	v0,v0,0x13
80604328:	38420001 	xori	v0,v0,0x1
8060432c:	30420001 	andi	v0,v0,0x1
80604330:	03e00008 	jr	ra
80604334:	27bd0018 	addiu	sp,sp,24
80604338:	8fa40060 	lw	a0,96(sp)
8060433c:	081810c2 	j	80604308 <ShotSun_GiveFireArrow>
80604340:	02002825 	move	a1,s0

80604344 <Player_UpdateWrapper>:
80604344:	27bdffe8 	addiu	sp,sp,-24
80604348:	afb00010 	sw	s0,16(sp)
8060434c:	afbf0014 	sw	ra,20(sp)
80604350:	0c025dd0 	jal	80097740 <Player_Update>
80604354:	00a08025 	move	s0,a1
80604358:	0c183292 	jal	8060ca48 <comboDpadUpdate>
8060435c:	02002025 	move	a0,s0
80604360:	8fbf0014 	lw	ra,20(sp)
80604364:	02002025 	move	a0,s0
80604368:	8fb00010 	lw	s0,16(sp)
8060436c:	24050002 	li	a1,2
80604370:	081832a9 	j	8060caa4 <comboDpadUse>
80604374:	27bd0018 	addiu	sp,sp,24

80604378 <Player_DpadHook>:
80604378:	27bdffe8 	addiu	sp,sp,-24
8060437c:	afb00010 	sw	s0,16(sp)
80604380:	afbf0014 	sw	ra,20(sp)
80604384:	0c01e6fe 	jal	80079bf8 <Player_UsingItem>
80604388:	00a08025 	move	s0,a1
8060438c:	14400006 	bnez	v0,806043a8 <Player_DpadHook+0x30>
80604390:	8fbf0014 	lw	ra,20(sp)
80604394:	02002025 	move	a0,s0
80604398:	8fb00010 	lw	s0,16(sp)
8060439c:	24050001 	li	a1,1
806043a0:	081832a9 	j	8060caa4 <comboDpadUse>
806043a4:	27bd0018 	addiu	sp,sp,24
806043a8:	8fb00010 	lw	s0,16(sp)
806043ac:	24020001 	li	v0,1
806043b0:	03e00008 	jr	ra
806043b4:	27bd0018 	addiu	sp,sp,24

806043b8 <playerHookCastRod>:
806043b8:	3c048012 	lui	a0,0x8012
806043bc:	2484a5d0 	addiu	a0,a0,-23088

806043c0 <playerHookKeepRod>:
806043c0:	3c018012 	lui	at,0x8012
806043c4:	2421a5d0 	addiu	at,at,-23088
806043c8:	902e13e2 	lbu	t6,5090(at)
806043cc:	90220068 	lbu	v0,104(at)
806043d0:	24010059 	li	at,89
806043d4:	10410002 	beq	v0,at,806043e0 <playerHookKeepRod+0x20>
806043d8:	24010fff 	li	at,4095
806043dc:	240100ff 	li	at,255
806043e0:	03e00008 	jr	ra
806043e4:	00000000 	nop

806043e8 <Player_DpadHook_Trampoline>:
806043e8:	081810de 	j	80604378 <Player_DpadHook>
806043ec:	8fa5002c 	lw	a1,44(sp)

806043f0 <Player_WriteTransitionFlagHook>:
806043f0:	a42e1e1a 	sh	t6,7706(at)
806043f4:	24020001 	li	v0,1
806043f8:	3c0e8063 	lui	t6,0x8063
806043fc:	a1c2a734 	sb	v0,-22732(t6)
80604400:	03e00008 	jr	ra
80604404:	84621e1a 	lh	v0,7706(v1)

80604408 <BossGanon_LightArrowHint>:
80604408:	27bdffe8 	addiu	sp,sp,-24
8060440c:	30a5ffff 	andi	a1,a1,0xffff
80604410:	afb00010 	sw	s0,16(sp)
80604414:	afbf0014 	sw	ra,20(sp)
80604418:	0c037385 	jal	800dce14 <PlayerDisplayTextBox>
8060441c:	00808025 	move	s0,a0
80604420:	8fbf0014 	lw	ra,20(sp)
80604424:	02002025 	move	a0,s0
80604428:	8fb00010 	lw	s0,16(sp)
8060442c:	0818295d 	j	8060a574 <comboTextHijackLightArrows>
80604430:	27bd0018 	addiu	sp,sp,24

80604434 <DemoKankyo_Warp>:
80604434:	3c020001 	lui	v0,0x1
80604438:	00822021 	addu	a0,a0,v0
8060443c:	24020014 	li	v0,20
80604440:	a0821e15 	sb	v0,7701(a0)
80604444:	2402002c 	li	v0,44
80604448:	a0821e5e 	sb	v0,7774(a0)
8060444c:	948204c4 	lhu	v0,1220(a0)
80604450:	3c038061 	lui	v1,0x8061
80604454:	2463da48 	addiu	v1,v1,-9656
80604458:	00021040 	sll	v0,v0,0x1
8060445c:	00431021 	addu	v0,v0,v1
80604460:	94420000 	lhu	v0,0(v0)
80604464:	00021a02 	srl	v1,v0,0x8
80604468:	a0831e1a 	sb	v1,7706(a0)
8060446c:	03e00008 	jr	ra
80604470:	a0821e1b 	sb	v0,7707(a0)

80604474 <BgTokiSwd_GiveItem>:
80604474:	27bdffd8 	addiu	sp,sp,-40
80604478:	afb40020 	sw	s4,32(sp)
8060447c:	afb3001c 	sw	s3,28(sp)
80604480:	afb20018 	sw	s2,24(sp)
80604484:	afb10014 	sw	s1,20(sp)
80604488:	afb00010 	sw	s0,16(sp)
8060448c:	afbf0024 	sw	ra,36(sp)
80604490:	8fb40038 	lw	s4,56(sp)
80604494:	00808025 	move	s0,a0
80604498:	00a08825 	move	s1,a1
8060449c:	00c09825 	move	s3,a2
806044a0:	0c008aec 	jal	80022bb0 <Actor_HasParent>
806044a4:	00e09025 	move	s2,a3
806044a8:	1040000b 	beqz	v0,806044d8 <BgTokiSwd_GiveItem+0x64>
806044ac:	02603825 	move	a3,s3
806044b0:	8fbf0024 	lw	ra,36(sp)
806044b4:	8fb3001c 	lw	s3,28(sp)
806044b8:	8fb20018 	lw	s2,24(sp)
806044bc:	8fb10014 	lw	s1,20(sp)
806044c0:	ae000118 	sw	zero,280(s0)
806044c4:	02802025 	move	a0,s4
806044c8:	8fb00010 	lw	s0,16(sp)
806044cc:	8fb40020 	lw	s4,32(sp)
806044d0:	0800a238 	j	800288e0 <SetEventChk>
806044d4:	27bd0028 	addiu	sp,sp,40
806044d8:	3246ffff 	andi	a2,s2,0xffff
806044dc:	00002825 	move	a1,zero
806044e0:	0c18316d 	jal	8060c5b4 <comboOverride>
806044e4:	24040002 	li	a0,2
806044e8:	3c038061 	lui	v1,0x8061
806044ec:	c460d80c 	lwc1	$f0,-10228(v1)
806044f0:	3c038061 	lui	v1,0x8061
806044f4:	8fbf0024 	lw	ra,36(sp)
806044f8:	8fb40020 	lw	s4,32(sp)
806044fc:	8fb3001c 	lw	s3,28(sp)
80604500:	8fb20018 	lw	s2,24(sp)
80604504:	02202825 	move	a1,s1
80604508:	02002025 	move	a0,s0
8060450c:	8fb10014 	lw	s1,20(sp)
80604510:	8fb00010 	lw	s0,16(sp)
80604514:	8c67d9e0 	lw	a3,-9760(v1)
80604518:	e7a00038 	swc1	$f0,56(sp)
8060451c:	00403025 	move	a2,v0
80604520:	08008af5 	j	80022bd4 <GiveItem>
80604524:	27bd0028 	addiu	sp,sp,40

80604528 <BgTokiSwd_Handler>:
80604528:	27bdffd0 	addiu	sp,sp,-48
8060452c:	afb00024 	sw	s0,36(sp)
80604530:	3c108012 	lui	s0,0x8012
80604534:	2610a5d0 	addiu	s0,s0,-23088
80604538:	8e030004 	lw	v1,4(s0)
8060453c:	24020001 	li	v0,1
80604540:	afb10028 	sw	s1,40(sp)
80604544:	afbf002c 	sw	ra,44(sp)
80604548:	14620011 	bne	v1,v0,80604590 <BgTokiSwd_Handler+0x68>
8060454c:	00808825 	move	s1,a0
80604550:	2404004f 	li	a0,79
80604554:	0c00a22d 	jal	800288b4 <GetEventChk>
80604558:	afa50018 	sw	a1,24(sp)
8060455c:	1440000c 	bnez	v0,80604590 <BgTokiSwd_Handler+0x68>
80604560:	8fa50018 	lw	a1,24(sp)
80604564:	2402004f 	li	v0,79
80604568:	afa20010 	sw	v0,16(sp)
8060456c:	2407004c 	li	a3,76
80604570:	2406008c 	li	a2,140
80604574:	0c18111d 	jal	80604474 <BgTokiSwd_GiveItem>
80604578:	02202025 	move	a0,s1
8060457c:	8fbf002c 	lw	ra,44(sp)
80604580:	8fb10028 	lw	s1,40(sp)
80604584:	8fb00024 	lw	s0,36(sp)
80604588:	03e00008 	jr	ra
8060458c:	27bd0030 	addiu	sp,sp,48
80604590:	8e020004 	lw	v0,4(s0)
80604594:	1440000c 	bnez	v0,806045c8 <BgTokiSwd_Handler+0xa0>
80604598:	02202025 	move	a0,s1
8060459c:	24040045 	li	a0,69
806045a0:	0c00a22d 	jal	800288b4 <GetEventChk>
806045a4:	afa50018 	sw	a1,24(sp)
806045a8:	14400006 	bnez	v0,806045c4 <BgTokiSwd_Handler+0x9c>
806045ac:	8fa50018 	lw	a1,24(sp)
806045b0:	24020045 	li	v0,69
806045b4:	afa20010 	sw	v0,16(sp)
806045b8:	2407004d 	li	a3,77
806045bc:	1000ffed 	b	80604574 <BgTokiSwd_Handler+0x4c>
806045c0:	24060095 	li	a2,149
806045c4:	02202025 	move	a0,s1
806045c8:	0c008aec 	jal	80022bb0 <Actor_HasParent>
806045cc:	afa50018 	sw	a1,24(sp)
806045d0:	10400010 	beqz	v0,80604614 <BgTokiSwd_Handler+0xec>
806045d4:	8fa50018 	lw	a1,24(sp)
806045d8:	3c020001 	lui	v0,0x1
806045dc:	00a22821 	addu	a1,a1,v0
806045e0:	24020014 	li	v0,20
806045e4:	a0a21e15 	sb	v0,7701(a1)
806045e8:	2402002c 	li	v0,44
806045ec:	a0a21e5e 	sb	v0,7774(a1)
806045f0:	24020002 	li	v0,2
806045f4:	a0a21e1a 	sb	v0,7706(a1)
806045f8:	2402ffca 	li	v0,-54
806045fc:	a0a21e1b 	sb	v0,7707(a1)
80604600:	8e020004 	lw	v0,4(s0)
80604604:	ae000e80 	sw	zero,3712(s0)
80604608:	2c420001 	sltiu	v0,v0,1
8060460c:	1000ffdb 	b	8060457c <BgTokiSwd_Handler+0x54>
80604610:	a0a21de8 	sb	v0,7656(a1)
80604614:	9602009c 	lhu	v0,156(s0)
80604618:	30420002 	andi	v0,v0,0x2
8060461c:	1040ffd8 	beqz	v0,80604580 <BgTokiSwd_Handler+0x58>
80604620:	8fbf002c 	lw	ra,44(sp)
80604624:	8fb00024 	lw	s0,36(sp)
80604628:	02202025 	move	a0,s1
8060462c:	8fb10028 	lw	s1,40(sp)
80604630:	08008b48 	j	80022d20 <ActorEnableGrab>
80604634:	27bd0030 	addiu	sp,sp,48

80604638 <comboZoraWaterfallDown>:
80604638:	27bdffe8 	addiu	sp,sp,-24
8060463c:	afb00010 	sw	s0,16(sp)
80604640:	afbf0014 	sw	ra,20(sp)
80604644:	0c008127 	jal	8002049c <GetSwitchFlag>
80604648:	00808025 	move	s0,a0
8060464c:	10400005 	beqz	v0,80604664 <comboZoraWaterfallDown+0x2c>
80604650:	8fbf0014 	lw	ra,20(sp)
80604654:	00002825 	move	a1,zero
80604658:	0c008134 	jal	800204d0 <SetSwitchFlag>
8060465c:	02002025 	move	a0,s0
80604660:	8fbf0014 	lw	ra,20(sp)
80604664:	02002025 	move	a0,s0
80604668:	8fb00010 	lw	s0,16(sp)
8060466c:	00002825 	move	a1,zero
80604670:	08008127 	j	8002049c <GetSwitchFlag>
80604674:	27bd0018 	addiu	sp,sp,24

80604678 <BgMoriHineri_TranslateLid>:
80604678:	3c028061 	lui	v0,0x8061
8060467c:	8c435d3c 	lw	v1,23868(v0)
80604680:	3c028061 	lui	v0,0x8061
80604684:	8c46da54 	lw	a2,-9644(v0)
80604688:	10600007 	beqz	v1,806046a8 <BgMoriHineri_TranslateLid+0x30>
8060468c:	24070001 	li	a3,1
80604690:	3c028061 	lui	v0,0x8061
80604694:	c44eda58 	lwc1	$f14,-9640(v0)
80604698:	3c028061 	lui	v0,0x8061
8060469c:	c44cda5c 	lwc1	$f12,-9636(v0)
806046a0:	0802a9fd 	j	800aa7f4 <ModelViewTranslate>
806046a4:	00000000 	nop
806046a8:	3c028061 	lui	v0,0x8061
806046ac:	c44eda60 	lwc1	$f14,-9632(v0)
806046b0:	3c028061 	lui	v0,0x8061
806046b4:	1000fffa 	b	806046a0 <BgMoriHineri_TranslateLid+0x28>
806046b8:	c44cda64 	lwc1	$f12,-9628(v0)

806046bc <BgMoriHineri_DrawWrapper>:
806046bc:	27bdffc8 	addiu	sp,sp,-56
806046c0:	afa00010 	sw	zero,16(sp)
806046c4:	afb0001c 	sw	s0,28(sp)
806046c8:	00a08025 	move	s0,a1
806046cc:	94a500a4 	lhu	a1,164(a1)
806046d0:	afb10020 	sw	s1,32(sp)
806046d4:	2407003f 	li	a3,63
806046d8:	00808825 	move	s1,a0
806046dc:	2406000e 	li	a2,14
806046e0:	00002025 	move	a0,zero
806046e4:	afbf002c 	sw	ra,44(sp)
806046e8:	afb30028 	sw	s3,40(sp)
806046ec:	afb20024 	sw	s2,36(sp)
806046f0:	0c183126 	jal	8060c498 <comboOverrideEx>
806046f4:	f7b40030 	sdc1	$f20,48(sp)
806046f8:	00409025 	move	s2,v0
806046fc:	02202025 	move	a0,s1
80604700:	00403025 	move	a2,v0
80604704:	0c1829f9 	jal	8060a7e4 <comboCsmcPreDraw>
80604708:	02002825 	move	a1,s0
8060470c:	3c138061 	lui	s3,0x8061
80604710:	02402025 	move	a0,s2
80604714:	0c182a42 	jal	8060a908 <comboCsmcChestSize>
80604718:	ae605d3c 	sw	zero,23868(s3)
8060471c:	1440000f 	bnez	v0,8060475c <BgMoriHineri_DrawWrapper+0xa0>
80604720:	3c058091 	lui	a1,0x8091
80604724:	3c128091 	lui	s2,0x8091
80604728:	24020001 	li	v0,1
8060472c:	26453d74 	addiu	a1,s2,15732
80604730:	24040068 	li	a0,104
80604734:	0c1830f9 	jal	8060c3e4 <actorAddr>
80604738:	ae625d3c 	sw	v0,23868(s3)
8060473c:	3c038061 	lui	v1,0x8061
80604740:	c474da68 	lwc1	$f20,-9624(v1)
80604744:	26453d80 	addiu	a1,s2,15744
80604748:	e4540000 	swc1	$f20,0(v0)
8060474c:	0c1830f9 	jal	8060c3e4 <actorAddr>
80604750:	24040068 	li	a0,104
80604754:	e4540000 	swc1	$f20,0(v0)
80604758:	3c058091 	lui	a1,0x8091
8060475c:	24a53944 	addiu	a1,a1,14660
80604760:	0c1830f9 	jal	8060c3e4 <actorAddr>
80604764:	24040068 	li	a0,104
80604768:	8fbf002c 	lw	ra,44(sp)
8060476c:	8fb30028 	lw	s3,40(sp)
80604770:	8fb20024 	lw	s2,36(sp)
80604774:	d7b40030 	ldc1	$f20,48(sp)
80604778:	02002825 	move	a1,s0
8060477c:	02202025 	move	a0,s1
80604780:	8fb0001c 	lw	s0,28(sp)
80604784:	8fb10020 	lw	s1,32(sp)
80604788:	0040c825 	move	t9,v0
8060478c:	03200008 	jr	t9
80604790:	27bd0038 	addiu	sp,sp,56

80604794 <BgDyYoseizo_Update>:
80604794:	27bdffd0 	addiu	sp,sp,-48
80604798:	afb20024 	sw	s2,36(sp)
8060479c:	00a09025 	move	s2,a1
806047a0:	afb10020 	sw	s1,32(sp)
806047a4:	24050038 	li	a1,56
806047a8:	00808825 	move	s1,a0
806047ac:	02402025 	move	a0,s2
806047b0:	afbf002c 	sw	ra,44(sp)
806047b4:	afb30028 	sw	s3,40(sp)
806047b8:	0c008127 	jal	8002049c <GetSwitchFlag>
806047bc:	afb0001c 	sw	s0,28(sp)
806047c0:	10400044 	beqz	v0,806048d4 <BgDyYoseizo_Update+0x140>
806047c4:	8fbf002c 	lw	ra,44(sp)
806047c8:	3c020001 	lui	v0,0x1
806047cc:	02421021 	addu	v0,s2,v0
806047d0:	964300a4 	lhu	v1,164(s2)
806047d4:	90501dea 	lbu	s0,7658(v0)
806047d8:	2402003d 	li	v0,61
806047dc:	14620003 	bne	v1,v0,806047ec <BgDyYoseizo_Update+0x58>
806047e0:	00000000 	nop
806047e4:	26100003 	addiu	s0,s0,3
806047e8:	321000ff 	andi	s0,s0,0xff
806047ec:	0c008aec 	jal	80022bb0 <Actor_HasParent>
806047f0:	02202025 	move	a0,s1
806047f4:	3c068012 	lui	a2,0x8012
806047f8:	24c6a5d0 	addiu	a2,a2,-23088
806047fc:	8cc3011c 	lw	v1,284(a2)
80604800:	24130001 	li	s3,1
80604804:	00031e42 	srl	v1,v1,0x19
80604808:	02139804 	sllv	s3,s3,s0
8060480c:	3063003f 	andi	v1,v1,0x3f
80604810:	00732024 	and	a0,v1,s3
80604814:	00822025 	or	a0,a0,v0
80604818:	5080001b 	beqzl	a0,80604888 <BgDyYoseizo_Update+0xf4>
8060481c:	3c038061 	lui	v1,0x8061
80604820:	90c2003a 	lbu	v0,58(a2)
80604824:	50400008 	beqzl	v0,80604848 <BgDyYoseizo_Update+0xb4>
80604828:	8cc2011c 	lw	v0,284(a2)
8060482c:	90c4003c 	lbu	a0,60(a2)
80604830:	a0c00032 	sb	zero,50(a2)
80604834:	14800002 	bnez	a0,80604840 <BgDyYoseizo_Update+0xac>
80604838:	24020060 	li	v0,96
8060483c:	24020030 	li	v0,48
80604840:	a4c213f6 	sh	v0,5110(a2)
80604844:	8cc2011c 	lw	v0,284(a2)
80604848:	00731825 	or	v1,v1,s3
8060484c:	3c0481ff 	lui	a0,0x81ff
80604850:	3484ffff 	ori	a0,a0,0xffff
80604854:	3063003f 	andi	v1,v1,0x3f
80604858:	00441024 	and	v0,v0,a0
8060485c:	00031e40 	sll	v1,v1,0x19
80604860:	00431025 	or	v0,v0,v1
80604864:	acc2011c 	sw	v0,284(a2)
80604868:	8fbf002c 	lw	ra,44(sp)
8060486c:	8fb30028 	lw	s3,40(sp)
80604870:	8fb20024 	lw	s2,36(sp)
80604874:	8fb0001c 	lw	s0,28(sp)
80604878:	02202025 	move	a0,s1
8060487c:	8fb10020 	lw	s1,32(sp)
80604880:	080083ad 	j	80020eb4 <ActorDestroy>
80604884:	27bd0030 	addiu	sp,sp,48
80604888:	00101040 	sll	v0,s0,0x1
8060488c:	2463da74 	addiu	v1,v1,-9612
80604890:	00431021 	addu	v0,v0,v1
80604894:	3c038061 	lui	v1,0x8061
80604898:	2463da6c 	addiu	v1,v1,-9620
8060489c:	02038021 	addu	s0,s0,v1
806048a0:	84470000 	lh	a3,0(v0)
806048a4:	92060000 	lbu	a2,0(s0)
806048a8:	00002825 	move	a1,zero
806048ac:	0c18316d 	jal	8060c5b4 <comboOverride>
806048b0:	24040002 	li	a0,2
806048b4:	3c038061 	lui	v1,0x8061
806048b8:	8c67d9dc 	lw	a3,-9764(v1)
806048bc:	00403025 	move	a2,v0
806048c0:	afa70010 	sw	a3,16(sp)
806048c4:	02402825 	move	a1,s2
806048c8:	0c008af5 	jal	80022bd4 <GiveItem>
806048cc:	02202025 	move	a0,s1
806048d0:	8fbf002c 	lw	ra,44(sp)
806048d4:	8fb30028 	lw	s3,40(sp)
806048d8:	8fb20024 	lw	s2,36(sp)
806048dc:	8fb10020 	lw	s1,32(sp)
806048e0:	8fb0001c 	lw	s0,28(sp)
806048e4:	03e00008 	jr	ra
806048e8:	27bd0030 	addiu	sp,sp,48

806048ec <init>:
806048ec:	08182705 	j	80609c14 <comboInit>
806048f0:	00000000 	nop

806048f4 <comboMultibyteCharSize>:
806048f4:	2484fffb 	addiu	a0,a0,-5
806048f8:	308400ff 	andi	a0,a0,0xff
806048fc:	2c83001a 	sltiu	v1,a0,26
80604900:	1060000f 	beqz	v1,80604940 <comboMultibyteCharSize+0x4c>
80604904:	24020001 	li	v0,1
80604908:	24030001 	li	v1,1
8060490c:	3c050200 	lui	a1,0x200
80604910:	00831804 	sllv	v1,v1,a0
80604914:	34a5d283 	ori	a1,a1,0xd283
80604918:	00652824 	and	a1,v1,a1
8060491c:	14a00008 	bnez	a1,80604940 <comboMultibyteCharSize+0x4c>
80604920:	24020002 	li	v0,2
80604924:	30632004 	andi	v1,v1,0x2004
80604928:	14600005 	bnez	v1,80604940 <comboMultibyteCharSize+0x4c>
8060492c:	24020003 	li	v0,3
80604930:	24030010 	li	v1,16
80604934:	14830002 	bne	a0,v1,80604940 <comboMultibyteCharSize+0x4c>
80604938:	24020001 	li	v0,1
8060493c:	24020004 	li	v0,4
80604940:	03e00008 	jr	ra
80604944:	00000000 	nop

80604948 <DisplayTextBox_LoadFile>:
80604948:	27bdfbe0 	addiu	sp,sp,-1056
8060494c:	afb00414 	sw	s0,1044(sp)
80604950:	00808025 	move	s0,a0
80604954:	27a40010 	addiu	a0,sp,16
80604958:	afb10418 	sw	s1,1048(sp)
8060495c:	afbf041c 	sw	ra,1052(sp)
80604960:	0c00037c 	jal	80000df0 <LoadFile>
80604964:	00c08825 	move	s1,a2
80604968:	00403025 	move	a2,v0
8060496c:	24020008 	li	v0,8
80604970:	26030001 	addiu	v1,s0,1
80604974:	a2020000 	sb	v0,0(s0)
80604978:	00003825 	move	a3,zero
8060497c:	240a0010 	li	t2,16
80604980:	240b0009 	li	t3,9
80604984:	240c0004 	li	t4,4
80604988:	240d0008 	li	t5,8
8060498c:	00f1102b 	sltu	v0,a3,s1
80604990:	14400007 	bnez	v0,806049b0 <DisplayTextBox_LoadFile+0x68>
80604994:	27a20010 	addiu	v0,sp,16
80604998:	8fbf041c 	lw	ra,1052(sp)
8060499c:	8fb10418 	lw	s1,1048(sp)
806049a0:	8fb00414 	lw	s0,1044(sp)
806049a4:	00c01025 	move	v0,a2
806049a8:	03e00008 	jr	ra
806049ac:	27bd0420 	addiu	sp,sp,1056
806049b0:	00471021 	addu	v0,v0,a3
806049b4:	90480000 	lbu	t0,0(v0)
806049b8:	550a0004 	bnel	t0,t2,806049cc <DisplayTextBox_LoadFile+0x84>
806049bc:	a0680000 	sb	t0,0(v1)
806049c0:	a06b0000 	sb	t3,0(v1)
806049c4:	24630001 	addiu	v1,v1,1
806049c8:	a0680000 	sb	t0,0(v1)
806049cc:	01002025 	move	a0,t0
806049d0:	0c18123d 	jal	806048f4 <comboMultibyteCharSize>
806049d4:	24690001 	addiu	t1,v1,1
806049d8:	27a30010 	addiu	v1,sp,16
806049dc:	00672021 	addu	a0,v1,a3
806049e0:	01202825 	move	a1,t1
806049e4:	00401825 	move	v1,v0
806049e8:	286e0002 	slti	t6,v1,2
806049ec:	11c0000b 	beqz	t6,80604a1c <DisplayTextBox_LoadFile+0xd4>
806049f0:	24840001 	addiu	a0,a0,1
806049f4:	18400002 	blez	v0,80604a00 <DisplayTextBox_LoadFile+0xb8>
806049f8:	00002825 	move	a1,zero
806049fc:	2445ffff 	addiu	a1,v0,-1
80604a00:	01251821 	addu	v1,t1,a1
80604a04:	24a50001 	addiu	a1,a1,1
80604a08:	150cffe0 	bne	t0,t4,8060498c <DisplayTextBox_LoadFile+0x44>
80604a0c:	00e53821 	addu	a3,a3,a1
80604a10:	a06d0000 	sb	t5,0(v1)
80604a14:	1000ffdd 	b	8060498c <DisplayTextBox_LoadFile+0x44>
80604a18:	24630001 	addiu	v1,v1,1
80604a1c:	908e0000 	lbu	t6,0(a0)
80604a20:	24a50001 	addiu	a1,a1,1
80604a24:	a0aeffff 	sb	t6,-1(a1)
80604a28:	1000ffef 	b	806049e8 <DisplayTextBox_LoadFile+0xa0>
80604a2c:	2463ffff 	addiu	v1,v1,-1

80604a30 <hook_Title_Main>:
80604a30:	3c028062 	lui	v0,0x8062
80604a34:	8c425e48 	lw	v0,24136(v0)
80604a38:	10400002 	beqz	v0,80604a44 <hook_Title_Main+0x14>
80604a3c:	24020001 	li	v0,1
80604a40:	a08201e1 	sb	v0,481(a0)
80604a44:	03e00008 	jr	ra
80604a48:	00000000 	nop

80604a4c <ItemPreventEmptyEquip>:
80604a4c:	292100ff 	slti	at,t1,255
80604a50:	38210001 	xori	at,at,0x1
80604a54:	10200002 	beqz	at,80604a60 <ItemPreventEmptyEquip+0x14>
80604a58:	92220000 	lbu	v0,0(s1)
80604a5c:	240200ff 	li	v0,255
80604a60:	03e00008 	jr	ra
80604a64:	34010009 	li	at,0x9

80604a68 <EquipsPreventEmpty>:
80604a68:	0182c021 	addu	t8,t4,v0
80604a6c:	01e27821 	addu	t7,t7,v0
80604a70:	25efffff 	addiu	t7,t7,-1
80604a74:	240b0001 	li	t3,1
80604a78:	01eb5804 	sllv	t3,t3,t7
80604a7c:	3c0f8012 	lui	t7,0x8012
80604a80:	25efa66c 	addiu	t7,t7,-22932
80604a84:	95ef0000 	lhu	t7,0(t7)
80604a88:	01eb7824 	and	t7,t7,t3
80604a8c:	51e00002 	beqzl	t7,80604a98 <EquipsPreventEmpty+0x30>
80604a90:	240300ff 	li	v1,255
80604a94:	93030000 	lbu	v1,0(t8)
80604a98:	03e00008 	jr	ra
80604a9c:	00000000 	nop

80604aa0 <deepHook_KaleidoSetCursorColor>:
80604aa0:	27bdffb0 	addiu	sp,sp,-80
80604aa4:	afbf0004 	sw	ra,4(sp)
80604aa8:	afa40008 	sw	a0,8(sp)
80604aac:	afa5000c 	sw	a1,12(sp)
80604ab0:	afa60010 	sw	a2,16(sp)
80604ab4:	afa70014 	sw	a3,20(sp)
80604ab8:	afa80018 	sw	t0,24(sp)
80604abc:	afa9001c 	sw	t1,28(sp)
80604ac0:	afaa0020 	sw	t2,32(sp)
80604ac4:	afab0024 	sw	t3,36(sp)
80604ac8:	afac0028 	sw	t4,40(sp)
80604acc:	afad002c 	sw	t5,44(sp)
80604ad0:	afae0030 	sw	t6,48(sp)
80604ad4:	afaf0034 	sw	t7,52(sp)
80604ad8:	afb80038 	sw	t8,56(sp)
80604adc:	afb9003c 	sw	t9,60(sp)
80604ae0:	afa20040 	sw	v0,64(sp)
80604ae4:	afa30044 	sw	v1,68(sp)
80604ae8:	0c181335 	jal	80604cd4 <KaleidoSetCursorColor>
80604aec:	00000000 	nop
80604af0:	8fbf0004 	lw	ra,4(sp)
80604af4:	8fa40008 	lw	a0,8(sp)
80604af8:	8fa5000c 	lw	a1,12(sp)
80604afc:	8fa60010 	lw	a2,16(sp)
80604b00:	8fa70014 	lw	a3,20(sp)
80604b04:	8fa80018 	lw	t0,24(sp)
80604b08:	8fa9001c 	lw	t1,28(sp)
80604b0c:	8faa0020 	lw	t2,32(sp)
80604b10:	8fab0024 	lw	t3,36(sp)
80604b14:	8fac0028 	lw	t4,40(sp)
80604b18:	8fad002c 	lw	t5,44(sp)
80604b1c:	8fae0030 	lw	t6,48(sp)
80604b20:	8faf0034 	lw	t7,52(sp)
80604b24:	8fb80038 	lw	t8,56(sp)
80604b28:	8fb9003c 	lw	t9,60(sp)
80604b2c:	8fa20040 	lw	v0,64(sp)
80604b30:	8fa30044 	lw	v1,68(sp)
80604b34:	27bd0050 	addiu	sp,sp,80
80604b38:	03e00008 	jr	ra
80604b3c:	00000000 	nop

80604b40 <hookDeep_Title_Main>:
80604b40:	27bdffb0 	addiu	sp,sp,-80
80604b44:	afbf0004 	sw	ra,4(sp)
80604b48:	afa40008 	sw	a0,8(sp)
80604b4c:	afa5000c 	sw	a1,12(sp)
80604b50:	afa60010 	sw	a2,16(sp)
80604b54:	afa70014 	sw	a3,20(sp)
80604b58:	afa80018 	sw	t0,24(sp)
80604b5c:	afa9001c 	sw	t1,28(sp)
80604b60:	afaa0020 	sw	t2,32(sp)
80604b64:	afab0024 	sw	t3,36(sp)
80604b68:	afac0028 	sw	t4,40(sp)
80604b6c:	afad002c 	sw	t5,44(sp)
80604b70:	afae0030 	sw	t6,48(sp)
80604b74:	afaf0034 	sw	t7,52(sp)
80604b78:	afb80038 	sw	t8,56(sp)
80604b7c:	afb9003c 	sw	t9,60(sp)
80604b80:	afa20040 	sw	v0,64(sp)
80604b84:	afa30044 	sw	v1,68(sp)
80604b88:	0c18128c 	jal	80604a30 <hook_Title_Main>
80604b8c:	00000000 	nop
80604b90:	8fbf0004 	lw	ra,4(sp)
80604b94:	8fa40008 	lw	a0,8(sp)
80604b98:	8fa5000c 	lw	a1,12(sp)
80604b9c:	8fa60010 	lw	a2,16(sp)
80604ba0:	8fa70014 	lw	a3,20(sp)
80604ba4:	8fa80018 	lw	t0,24(sp)
80604ba8:	8fa9001c 	lw	t1,28(sp)
80604bac:	8faa0020 	lw	t2,32(sp)
80604bb0:	8fab0024 	lw	t3,36(sp)
80604bb4:	8fac0028 	lw	t4,40(sp)
80604bb8:	8fad002c 	lw	t5,44(sp)
80604bbc:	8fae0030 	lw	t6,48(sp)
80604bc0:	8faf0034 	lw	t7,52(sp)
80604bc4:	8fb80038 	lw	t8,56(sp)
80604bc8:	8fb9003c 	lw	t9,60(sp)
80604bcc:	8fa20040 	lw	v0,64(sp)
80604bd0:	8fa30044 	lw	v1,68(sp)
80604bd4:	27bd0050 	addiu	sp,sp,80
80604bd8:	8e030000 	lw	v1,0(s0)
80604bdc:	8c6202c0 	lw	v0,704(v1)
80604be0:	03e00008 	jr	ra
80604be4:	00000000 	nop

80604be8 <KaleidoScope_HandleMapDungeonMenu>:
80604be8:	3c020001 	lui	v0,0x1
80604bec:	27bdffd8 	addiu	sp,sp,-40
80604bf0:	00821021 	addu	v0,a0,v0
80604bf4:	afb40020 	sw	s4,32(sp)
80604bf8:	94540948 	lhu	s4,2376(v0)
80604bfc:	24020001 	li	v0,1
80604c00:	afb3001c 	sw	s3,28(sp)
80604c04:	afb20018 	sw	s2,24(sp)
80604c08:	afb10014 	sw	s1,20(sp)
80604c0c:	afb00010 	sw	s0,16(sp)
80604c10:	afbf0024 	sw	ra,36(sp)
80604c14:	00808025 	move	s0,a0
80604c18:	00a08825 	move	s1,a1
80604c1c:	00c09025 	move	s2,a2
80604c20:	16820009 	bne	s4,v0,80604c48 <KaleidoScope_HandleMapDungeonMenu+0x60>
80604c24:	3c138061 	lui	s3,0x8061
80604c28:	94820020 	lhu	v0,32(a0)
80604c2c:	30420028 	andi	v0,v0,0x28
80604c30:	10400006 	beqz	v0,80604c4c <KaleidoScope_HandleMapDungeonMenu+0x64>
80604c34:	8e625d40 	lw	v0,23872(s3)
80604c38:	24044809 	li	a0,18441
80604c3c:	2c420001 	sltiu	v0,v0,1
80604c40:	0c0191bc 	jal	800646f0 <PlaySound>
80604c44:	ae625d40 	sw	v0,23872(s3)
80604c48:	8e625d40 	lw	v0,23872(s3)
80604c4c:	1040000e 	beqz	v0,80604c88 <KaleidoScope_HandleMapDungeonMenu+0xa0>
80604c50:	24020001 	li	v0,1
80604c54:	16820004 	bne	s4,v0,80604c68 <KaleidoScope_HandleMapDungeonMenu+0x80>
80604c58:	8fbf0024 	lw	ra,36(sp)
80604c5c:	0c181ef9 	jal	80607be4 <comboMenuKeysUpdate>
80604c60:	02002025 	move	a0,s0
80604c64:	8fbf0024 	lw	ra,36(sp)
80604c68:	8fb40020 	lw	s4,32(sp)
80604c6c:	8fb3001c 	lw	s3,28(sp)
80604c70:	8fb20018 	lw	s2,24(sp)
80604c74:	8fb10014 	lw	s1,20(sp)
80604c78:	02002025 	move	a0,s0
80604c7c:	8fb00010 	lw	s0,16(sp)
80604c80:	08181f32 	j	80607cc8 <comboMenuKeysDraw>
80604c84:	27bd0028 	addiu	sp,sp,40
80604c88:	0c02676f 	jal	80099dbc <OverlayAddr>
80604c8c:	02402025 	move	a0,s2
80604c90:	8fbf0024 	lw	ra,36(sp)
80604c94:	8fb40020 	lw	s4,32(sp)
80604c98:	8fb3001c 	lw	s3,28(sp)
80604c9c:	8fb20018 	lw	s2,24(sp)
80604ca0:	02202825 	move	a1,s1
80604ca4:	02002025 	move	a0,s0
80604ca8:	8fb10014 	lw	s1,20(sp)
80604cac:	8fb00010 	lw	s0,16(sp)
80604cb0:	0040c825 	move	t9,v0
80604cb4:	03200008 	jr	t9
80604cb8:	27bd0028 	addiu	sp,sp,40

80604cbc <KaleidoScope_HandleMapMenu>:
80604cbc:	3c068081 	lui	a2,0x8081
80604cc0:	081812fa 	j	80604be8 <KaleidoScope_HandleMapDungeonMenu>
80604cc4:	34c6ce54 	ori	a2,a2,0xce54

80604cc8 <KaleidoScope_HandleDungeonMenu>:
80604cc8:	3c068081 	lui	a2,0x8081
80604ccc:	081812fa 	j	80604be8 <KaleidoScope_HandleMapDungeonMenu>
80604cd0:	34c6b660 	ori	a2,a2,0xb660

80604cd4 <KaleidoSetCursorColor>:
80604cd4:	27bdffe0 	addiu	sp,sp,-32
80604cd8:	3c020001 	lui	v0,0x1
80604cdc:	00821021 	addu	v0,a0,v0
80604ce0:	afb00010 	sw	s0,16(sp)
80604ce4:	afbf001c 	sw	ra,28(sp)
80604ce8:	afb20018 	sw	s2,24(sp)
80604cec:	afb10014 	sw	s1,20(sp)
80604cf0:	00808025 	move	s0,a0
80604cf4:	90440998 	lbu	a0,2456(v0)
80604cf8:	90430999 	lbu	v1,2457(v0)
80604cfc:	00042200 	sll	a0,a0,0x8
80604d00:	00641825 	or	v1,v1,a0
80604d04:	14600084 	bnez	v1,80604f18 <KaleidoSetCursorColor+0x244>
80604d08:	240500ff 	li	a1,255
80604d0c:	90440948 	lbu	a0,2376(v0)
80604d10:	90430949 	lbu	v1,2377(v0)
80604d14:	00042200 	sll	a0,a0,0x8
80604d18:	00641825 	or	v1,v1,a0
80604d1c:	5060001d 	beqzl	v1,80604d94 <KaleidoSetCursorColor+0xc0>
80604d20:	90430978 	lbu	v1,2424(v0)
80604d24:	24020003 	li	v0,3
80604d28:	1462007c 	bne	v1,v0,80604f1c <KaleidoSetCursorColor+0x248>
80604d2c:	240300ff 	li	v1,255
80604d30:	00001825 	move	v1,zero
80604d34:	00001025 	move	v0,zero
80604d38:	8e060000 	lw	a2,0(s0)
80604d3c:	00021600 	sll	v0,v0,0x18
80604d40:	00052a00 	sll	a1,a1,0x8
80604d44:	00451025 	or	v0,v0,a1
80604d48:	00031c00 	sll	v1,v1,0x10
80604d4c:	8cc402c0 	lw	a0,704(a2)
80604d50:	00431025 	or	v0,v0,v1
80604d54:	344200ff 	ori	v0,v0,0xff
80604d58:	ac820004 	sw	v0,4(a0)
80604d5c:	3c07fa00 	lui	a3,0xfa00
80604d60:	24820010 	addiu	v0,a0,16
80604d64:	8fbf001c 	lw	ra,28(sp)
80604d68:	ac870000 	sw	a3,0(a0)
80604d6c:	acc202c0 	sw	v0,704(a2)
80604d70:	3c02fb00 	lui	v0,0xfb00
80604d74:	ac820008 	sw	v0,8(a0)
80604d78:	240200ff 	li	v0,255
80604d7c:	8fb20018 	lw	s2,24(sp)
80604d80:	8fb10014 	lw	s1,20(sp)
80604d84:	8fb00010 	lw	s0,16(sp)
80604d88:	ac82000c 	sw	v0,12(a0)
80604d8c:	03e00008 	jr	ra
80604d90:	27bd0020 	addiu	sp,sp,32
80604d94:	90420979 	lbu	v0,2425(v0)
80604d98:	00031a00 	sll	v1,v1,0x8
80604d9c:	00431025 	or	v0,v0,v1
80604da0:	96110020 	lhu	s1,32(s0)
80604da4:	00021400 	sll	v0,v0,0x10
80604da8:	00021403 	sra	v0,v0,0x10
80604dac:	24030007 	li	v1,7
80604db0:	10430041 	beq	v0,v1,80604eb8 <KaleidoSetCursorColor+0x1e4>
80604db4:	32310028 	andi	s1,s1,0x28
80604db8:	00009025 	move	s2,zero
80604dbc:	3c020001 	lui	v0,0x1
80604dc0:	02021021 	addu	v0,s0,v0
80604dc4:	90430978 	lbu	v1,2424(v0)
80604dc8:	90420979 	lbu	v0,2425(v0)
80604dcc:	00031a00 	sll	v1,v1,0x8
80604dd0:	00431025 	or	v0,v0,v1
80604dd4:	00021400 	sll	v0,v0,0x10
80604dd8:	00021403 	sra	v0,v0,0x10
80604ddc:	24030009 	li	v1,9
80604de0:	1443000c 	bne	v0,v1,80604e14 <KaleidoSetCursorColor+0x140>
80604de4:	3c020001 	lui	v0,0x1
80604de8:	3c028012 	lui	v0,0x8012
80604dec:	0c1830dd 	jal	8060c374 <popcount>
80604df0:	9044a6d1 	lbu	a0,-22831(v0)
80604df4:	2c420002 	sltiu	v0,v0,2
80604df8:	14400006 	bnez	v0,80604e14 <KaleidoSetCursorColor+0x140>
80604dfc:	3c020001 	lui	v0,0x1
80604e00:	12200004 	beqz	s1,80604e14 <KaleidoSetCursorColor+0x140>
80604e04:	24120001 	li	s2,1
80604e08:	0c1800fd 	jal	806003f4 <comboToggleHookshot>
80604e0c:	00000000 	nop
80604e10:	3c020001 	lui	v0,0x1
80604e14:	02021021 	addu	v0,s0,v0
80604e18:	90430978 	lbu	v1,2424(v0)
80604e1c:	90420979 	lbu	v0,2425(v0)
80604e20:	00031a00 	sll	v1,v1,0x8
80604e24:	00431025 	or	v0,v0,v1
80604e28:	00021400 	sll	v0,v0,0x10
80604e2c:	00021403 	sra	v0,v0,0x10
80604e30:	24030016 	li	v1,22
80604e34:	1443000c 	bne	v0,v1,80604e68 <KaleidoSetCursorColor+0x194>
80604e38:	3c020001 	lui	v0,0x1
80604e3c:	3c028012 	lui	v0,0x8012
80604e40:	0c1830dd 	jal	8060c374 <popcount>
80604e44:	9444a6b6 	lhu	a0,-22858(v0)
80604e48:	2c420002 	sltiu	v0,v0,2
80604e4c:	14400006 	bnez	v0,80604e68 <KaleidoSetCursorColor+0x194>
80604e50:	3c020001 	lui	v0,0x1
80604e54:	12200004 	beqz	s1,80604e68 <KaleidoSetCursorColor+0x194>
80604e58:	24120001 	li	s2,1
80604e5c:	0c1800e4 	jal	80600390 <comboToggleTradeAdult>
80604e60:	00000000 	nop
80604e64:	3c020001 	lui	v0,0x1
80604e68:	02021021 	addu	v0,s0,v0
80604e6c:	90430978 	lbu	v1,2424(v0)
80604e70:	90420979 	lbu	v0,2425(v0)
80604e74:	00031a00 	sll	v1,v1,0x8
80604e78:	00431025 	or	v0,v0,v1
80604e7c:	00021400 	sll	v0,v0,0x10
80604e80:	00021403 	sra	v0,v0,0x10
80604e84:	24030017 	li	v1,23
80604e88:	1443001d 	bne	v0,v1,80604f00 <KaleidoSetCursorColor+0x22c>
80604e8c:	3c028012 	lui	v0,0x8012
80604e90:	0c1830dd 	jal	8060c374 <popcount>
80604e94:	9444a6b4 	lhu	a0,-22860(v0)
80604e98:	2c420002 	sltiu	v0,v0,2
80604e9c:	14400018 	bnez	v0,80604f00 <KaleidoSetCursorColor+0x22c>
80604ea0:	00000000 	nop
80604ea4:	16200010 	bnez	s1,80604ee8 <KaleidoSetCursorColor+0x214>
80604ea8:	00000000 	nop
80604eac:	240500ff 	li	a1,255
80604eb0:	1000ffa0 	b	80604d34 <KaleidoSetCursorColor+0x60>
80604eb4:	240300ff 	li	v1,255
80604eb8:	3c028012 	lui	v0,0x8012
80604ebc:	0c1830dd 	jal	8060c374 <popcount>
80604ec0:	9044a6d3 	lbu	a0,-22829(v0)
80604ec4:	2c420002 	sltiu	v0,v0,2
80604ec8:	5440ffbc 	bnezl	v0,80604dbc <KaleidoSetCursorColor+0xe8>
80604ecc:	00009025 	move	s2,zero
80604ed0:	1220ffba 	beqz	s1,80604dbc <KaleidoSetCursorColor+0xe8>
80604ed4:	24120001 	li	s2,1
80604ed8:	0c1800f4 	jal	806003d0 <comboToggleOcarina>
80604edc:	00000000 	nop
80604ee0:	1000ffb7 	b	80604dc0 <KaleidoSetCursorColor+0xec>
80604ee4:	3c020001 	lui	v0,0x1
80604ee8:	0c1800ec 	jal	806003b0 <comboToggleTradeChild>
80604eec:	00000000 	nop
80604ef0:	0c0191bc 	jal	800646f0 <PlaySound>
80604ef4:	24044809 	li	a0,18441
80604ef8:	1000ffed 	b	80604eb0 <KaleidoSetCursorColor+0x1dc>
80604efc:	240500ff 	li	a1,255
80604f00:	12400005 	beqz	s2,80604f18 <KaleidoSetCursorColor+0x244>
80604f04:	00002825 	move	a1,zero
80604f08:	5220ffe9 	beqzl	s1,80604eb0 <KaleidoSetCursorColor+0x1dc>
80604f0c:	240500ff 	li	a1,255
80604f10:	1000fff7 	b	80604ef0 <KaleidoSetCursorColor+0x21c>
80604f14:	00000000 	nop
80604f18:	240300ff 	li	v1,255
80604f1c:	1000ff86 	b	80604d38 <KaleidoSetCursorColor+0x64>
80604f20:	240200ff 	li	v0,255

80604f24 <hookPlay_Init>:
80604f24:	3c028063 	lui	v0,0x8063
80604f28:	27bdffc0 	addiu	sp,sp,-64
80604f2c:	8043a734 	lb	v1,-22732(v0)
80604f30:	afb1001c 	sw	s1,28(sp)
80604f34:	3c118012 	lui	s1,0x8012
80604f38:	afb40028 	sw	s4,40(sp)
80604f3c:	afb20020 	sw	s2,32(sp)
80604f40:	afbf003c 	sw	ra,60(sp)
80604f44:	00809025 	move	s2,a0
80604f48:	afbe0038 	sw	s8,56(sp)
80604f4c:	8e24a5d0 	lw	a0,-23088(s1)
80604f50:	afb70034 	sw	s7,52(sp)
80604f54:	afb60030 	sw	s6,48(sp)
80604f58:	afb5002c 	sw	s5,44(sp)
80604f5c:	afb30024 	sw	s3,36(sp)
80604f60:	afb00018 	sw	s0,24(sp)
80604f64:	1060000c 	beqz	v1,80604f98 <hookPlay_Init+0x74>
80604f68:	3c148063 	lui	s4,0x8063
80604f6c:	00042400 	sll	a0,a0,0x10
80604f70:	00042403 	sra	a0,a0,0x10
80604f74:	0c183482 	jal	8060d208 <comboEntranceOverride>
80604f78:	a040a734 	sb	zero,-22732(v0)
80604f7c:	00408025 	move	s0,v0
80604f80:	2402ffff 	li	v0,-1
80604f84:	52020005 	beql	s0,v0,80604f9c <hookPlay_Init+0x78>
80604f88:	2630a5d0 	addiu	s0,s1,-23088
80604f8c:	0600001d 	bltz	s0,80605004 <hookPlay_Init+0xe0>
80604f90:	8e82a730 	lw	v0,-22736(s4)
80604f94:	ae30a5d0 	sw	s0,-23088(s1)
80604f98:	2630a5d0 	addiu	s0,s1,-23088
80604f9c:	96020070 	lhu	v0,112(s0)
80604fa0:	3042000f 	andi	v0,v0,0xf
80604fa4:	5040000b 	beqzl	v0,80604fd4 <hookPlay_Init+0xb0>
80604fa8:	96020070 	lhu	v0,112(s0)
80604fac:	96030070 	lhu	v1,112(s0)
80604fb0:	9602009c 	lhu	v0,156(s0)
80604fb4:	3063000f 	andi	v1,v1,0xf
80604fb8:	3042000f 	andi	v0,v0,0xf
80604fbc:	2463ffff 	addiu	v1,v1,-1
80604fc0:	00621007 	srav	v0,v0,v1
80604fc4:	30420001 	andi	v0,v0,0x1
80604fc8:	14400024 	bnez	v0,8060505c <hookPlay_Init+0x138>
80604fcc:	8e35a5d0 	lw	s5,-23088(s1)
80604fd0:	96020070 	lhu	v0,112(s0)
80604fd4:	3042fff0 	andi	v0,v0,0xfff0
80604fd8:	a6020070 	sh	v0,112(s0)
80604fdc:	92020068 	lbu	v0,104(s0)
80604fe0:	2c43003e 	sltiu	v1,v0,62
80604fe4:	50600018 	beqzl	v1,80605048 <hookPlay_Init+0x124>
80604fe8:	24030055 	li	v1,85
80604fec:	2c42003b 	sltiu	v0,v0,59
80604ff0:	14400018 	bnez	v0,80605054 <hookPlay_Init+0x130>
80604ff4:	24020001 	li	v0,1
80604ff8:	2402ffff 	li	v0,-1
80604ffc:	10000014 	b	80605050 <hookPlay_Init+0x12c>
80605000:	a2020068 	sb	v0,104(s0)
80605004:	02402025 	move	a0,s2
80605008:	0c0269d4 	jal	8009a750 <Play_Init>
8060500c:	ae22a5d0 	sw	v0,-23088(s1)
80605010:	02002825 	move	a1,s0
80605014:	8fbf003c 	lw	ra,60(sp)
80605018:	8fbe0038 	lw	s8,56(sp)
8060501c:	8fb70034 	lw	s7,52(sp)
80605020:	8fb60030 	lw	s6,48(sp)
80605024:	8fb5002c 	lw	s5,44(sp)
80605028:	8fb40028 	lw	s4,40(sp)
8060502c:	8fb30024 	lw	s3,36(sp)
80605030:	8fb1001c 	lw	s1,28(sp)
80605034:	8fb00018 	lw	s0,24(sp)
80605038:	02402025 	move	a0,s2
8060503c:	8fb20020 	lw	s2,32(sp)
80605040:	08182a53 	j	8060a94c <comboGameSwitch>
80605044:	27bd0040 	addiu	sp,sp,64
80605048:	1043ffec 	beq	v0,v1,80604ffc <hookPlay_Init+0xd8>
8060504c:	2402ffff 	li	v0,-1
80605050:	24020001 	li	v0,1
80605054:	a6020f32 	sh	v0,3890(s0)
80605058:	8e35a5d0 	lw	s5,-23088(s1)
8060505c:	3c138062 	lui	s3,0x8062
80605060:	2402007a 	li	v0,122
80605064:	16a2008e 	bne	s5,v0,806052a0 <hookPlay_Init+0x37c>
80605068:	26736a90 	addiu	s3,s3,27280
8060506c:	0c00a22d 	jal	800288b4 <GetEventChk>
80605070:	24040040 	li	a0,64
80605074:	10400002 	beqz	v0,80605080 <hookPlay_Init+0x15c>
80605078:	24020400 	li	v0,1024
8060507c:	24020594 	li	v0,1428
80605080:	ae22a5d0 	sw	v0,-23088(s1)
80605084:	3c028061 	lui	v0,0x8061
80605088:	8c445d2c 	lw	a0,23852(v0)
8060508c:	10800003 	beqz	a0,8060509c <hookPlay_Init+0x178>
80605090:	00000000 	nop
80605094:	0c033402 	jal	800cd008 <free>
80605098:	00000000 	nop
8060509c:	0c1826c5 	jal	80609b14 <comboObjectsReset>
806050a0:	00000000 	nop
806050a4:	2402000f 	li	v0,15
806050a8:	a26200d4 	sb	v0,212(s3)
806050ac:	24020063 	li	v0,99
806050b0:	a60200d0 	sh	v0,208(s0)
806050b4:	96420014 	lhu	v0,20(s2)
806050b8:	30420020 	andi	v0,v0,0x20
806050bc:	10400040 	beqz	v0,806051c0 <hookPlay_Init+0x29c>
806050c0:	8e22a5d0 	lw	v0,-23088(s1)
806050c4:	3c020001 	lui	v0,0x1
806050c8:	24420203 	addiu	v0,v0,515
806050cc:	ae020074 	sw	v0,116(s0)
806050d0:	24020004 	li	v0,4
806050d4:	a2020078 	sb	v0,120(s0)
806050d8:	24020012 	li	v0,18
806050dc:	a2020084 	sb	v0,132(s0)
806050e0:	24020011 	li	v0,17
806050e4:	a2020083 	sb	v0,131(s0)
806050e8:	24020608 	li	v0,1544
806050ec:	a602007a 	sh	v0,122(s0)
806050f0:	2402090b 	li	v0,2315
806050f4:	a602007c 	sh	v0,124(s0)
806050f8:	24020e0f 	li	v0,3599
806050fc:	a6020080 	sh	v0,128(s0)
80605100:	24027773 	li	v0,30579
80605104:	a602009c 	sh	v0,156(s0)
80605108:	24020032 	li	v0,50
8060510c:	8e0300a0 	lw	v1,160(s0)
80605110:	a2020092 	sb	v0,146(s0)
80605114:	24022832 	li	v0,10290
80605118:	a602008e 	sh	v0,142(s0)
8060511c:	3c02ff80 	lui	v0,0xff80
80605120:	00431024 	and	v0,v0,v1
80605124:	3c030036 	lui	v1,0x36
80605128:	3463e4db 	ori	v1,v1,0xe4db
8060512c:	00431025 	or	v0,v0,v1
80605130:	ae0200a0 	sw	v0,160(s0)
80605134:	3c03ffe0 	lui	v1,0xffe0
80605138:	8e0200a4 	lw	v0,164(s0)
8060513c:	2463003f 	addiu	v1,v1,63
80605140:	00431024 	and	v0,v0,v1
80605144:	3c030003 	lui	v1,0x3
80605148:	3463ffc0 	ori	v1,v1,0xffc0
8060514c:	00431025 	or	v0,v0,v1
80605150:	ae0200a4 	sw	v0,164(s0)
80605154:	8e62017c 	lw	v0,380(s3)
80605158:	34420800 	ori	v0,v0,0x800
8060515c:	ae62017c 	sw	v0,380(s3)
80605160:	24020001 	li	v0,1
80605164:	a202003a 	sb	v0,58(s0)
80605168:	a202003c 	sb	v0,60(s0)
8060516c:	24020060 	li	v0,96
80605170:	a2020033 	sb	v0,51(s0)
80605174:	24020009 	li	v0,9
80605178:	a20200bf 	sb	v0,191(s0)
8060517c:	a20200c9 	sb	v0,201(s0)
80605180:	240201f4 	li	v0,500
80605184:	a6020034 	sh	v0,52(s0)
80605188:	3c02ffff 	lui	v0,0xffff
8060518c:	24420700 	addiu	v0,v0,1792
80605190:	ae0200e4 	sw	v0,228(s0)
80605194:	24021b19 	li	v0,6937
80605198:	a6020086 	sh	v0,134(s0)
8060519c:	3c021e1e 	lui	v0,0x1e1e
806051a0:	24423523 	addiu	v0,v0,13603
806051a4:	ae020088 	sw	v0,136(s0)
806051a8:	2402000a 	li	v0,10
806051ac:	a202008c 	sb	v0,140(s0)
806051b0:	96020f1e 	lhu	v0,3870(s0)
806051b4:	34420100 	ori	v0,v0,0x100
806051b8:	a6020f1e 	sh	v0,3870(s0)
806051bc:	8e22a5d0 	lw	v0,-23088(s1)
806051c0:	24030169 	li	v1,361
806051c4:	14430056 	bne	v0,v1,80605320 <hookPlay_Init+0x3fc>
806051c8:	24030028 	li	v1,40
806051cc:	8e02012c 	lw	v0,300(s0)
806051d0:	3c03f000 	lui	v1,0xf000
806051d4:	00432024 	and	a0,v0,v1
806051d8:	10830002 	beq	a0,v1,806051e4 <hookPlay_Init+0x2c0>
806051dc:	3c030800 	lui	v1,0x800
806051e0:	00431025 	or	v0,v0,v1
806051e4:	ae02012c 	sw	v0,300(s0)
806051e8:	8e0200a4 	lw	v0,164(s0)
806051ec:	3c03001c 	lui	v1,0x1c
806051f0:	00621024 	and	v0,v1,v0
806051f4:	54430006 	bnel	v0,v1,80605210 <hookPlay_Init+0x2ec>
806051f8:	8e0200a4 	lw	v0,164(s0)
806051fc:	0c00a238 	jal	800288e0 <SetEventChk>
80605200:	24040080 	li	a0,128
80605204:	0c00a238 	jal	800288e0 <SetEventChk>
80605208:	24040082 	li	a0,130
8060520c:	8e0200a4 	lw	v0,164(s0)
80605210:	2403003f 	li	v1,63
80605214:	3042003f 	andi	v0,v0,0x3f
80605218:	14430004 	bne	v0,v1,8060522c <hookPlay_Init+0x308>
8060521c:	8e23a5d0 	lw	v1,-23088(s1)
80605220:	0c00a238 	jal	800288e0 <SetEventChk>
80605224:	2404004d 	li	a0,77
80605228:	8e23a5d0 	lw	v1,-23088(s1)
8060522c:	24020467 	li	v0,1127
80605230:	1462000f 	bne	v1,v0,80605270 <hookPlay_Init+0x34c>
80605234:	00000000 	nop
80605238:	0c00a238 	jal	800288e0 <SetEventChk>
8060523c:	240400bf 	li	a0,191
80605240:	0c00a238 	jal	800288e0 <SetEventChk>
80605244:	240400be 	li	a0,190
80605248:	0c00a238 	jal	800288e0 <SetEventChk>
8060524c:	240400bd 	li	a0,189
80605250:	0c00a238 	jal	800288e0 <SetEventChk>
80605254:	240400bc 	li	a0,188
80605258:	0c00a238 	jal	800288e0 <SetEventChk>
8060525c:	240400bb 	li	a0,187
80605260:	0c00a238 	jal	800288e0 <SetEventChk>
80605264:	240400ad 	li	a0,173
80605268:	0c00a238 	jal	800288e0 <SetEventChk>
8060526c:	240400c3 	li	a0,195
80605270:	0c0269d4 	jal	8009a750 <Play_Init>
80605274:	02402025 	move	a0,s2
80605278:	8e22a5d0 	lw	v0,-23088(s1)
8060527c:	02402025 	move	a0,s2
80605280:	0c180317 	jal	80600c5c <comboSpawnItemGivers>
80605284:	ae82a730 	sw	v0,-22736(s4)
80605288:	8e23a5d0 	lw	v1,-23088(s1)
8060528c:	24020530 	li	v0,1328
80605290:	1462002b 	bne	v1,v0,80605340 <hookPlay_Init+0x41c>
80605294:	3c028062 	lui	v0,0x8062
80605298:	1000ff5e 	b	80605014 <hookPlay_Init+0xf0>
8060529c:	2405ffff 	li	a1,-1
806052a0:	2402006b 	li	v0,107
806052a4:	16a2ff78 	bne	s5,v0,80605088 <hookPlay_Init+0x164>
806052a8:	3c028061 	lui	v0,0x8061
806052ac:	8e02011c 	lw	v0,284(s0)
806052b0:	3c038000 	lui	v1,0x8000
806052b4:	00431025 	or	v0,v0,v1
806052b8:	ae02011c 	sw	v0,284(s0)
806052bc:	96031412 	lhu	v1,5138(s0)
806052c0:	2402023d 	li	v0,573
806052c4:	ae22a5d0 	sw	v0,-23088(s1)
806052c8:	a6001412 	sh	zero,5138(s0)
806052cc:	24020064 	li	v0,100
806052d0:	8e160004 	lw	s6,4(s0)
806052d4:	8e1e0008 	lw	s8,8(s0)
806052d8:	96170066 	lhu	s7,102(s0)
806052dc:	afa30010 	sw	v1,16(sp)
806052e0:	a6020066 	sh	v0,102(s0)
806052e4:	ae000004 	sw	zero,4(s0)
806052e8:	0c1833d3 	jal	8060cf4c <comboWriteSave>
806052ec:	ae000008 	sw	zero,8(s0)
806052f0:	8e62017c 	lw	v0,380(s3)
806052f4:	30420800 	andi	v0,v0,0x800
806052f8:	1040ff63 	beqz	v0,80605088 <hookPlay_Init+0x164>
806052fc:	3c028061 	lui	v0,0x8061
80605300:	8fa30010 	lw	v1,16(sp)
80605304:	32d600ff 	andi	s6,s6,0xff
80605308:	ae160004 	sw	s6,4(s0)
8060530c:	a6031412 	sh	v1,5138(s0)
80605310:	ae1e0008 	sw	s8,8(s0)
80605314:	ae35a5d0 	sw	s5,-23088(s1)
80605318:	1000ff5b 	b	80605088 <hookPlay_Init+0x164>
8060531c:	a6170066 	sh	s7,102(s0)
80605320:	5443ffb2 	bnel	v0,v1,806051ec <hookPlay_Init+0x2c8>
80605324:	8e0200a4 	lw	v0,164(s0)
80605328:	96020f20 	lhu	v0,3872(s0)
8060532c:	304300ff 	andi	v1,v0,0xff
80605330:	50600001 	beqzl	v1,80605338 <hookPlay_Init+0x414>
80605334:	3442001e 	ori	v0,v0,0x1e
80605338:	1000ffab 	b	806051e8 <hookPlay_Init+0x2c4>
8060533c:	a6020f20 	sh	v0,3872(s0)
80605340:	8c425e48 	lw	v0,24136(v0)
80605344:	10400006 	beqz	v0,80605360 <hookPlay_Init+0x43c>
80605348:	3c028062 	lui	v0,0x8062
8060534c:	3c020001 	lui	v0,0x1
80605350:	02421021 	addu	v0,s2,v0
80605354:	2403000b 	li	v1,11
80605358:	a0431e5e 	sb	v1,7774(v0)
8060535c:	3c028062 	lui	v0,0x8062
80605360:	8c425ed8 	lw	v0,24280(v0)
80605364:	54400004 	bnezl	v0,80605378 <hookPlay_Init+0x454>
80605368:	96420014 	lhu	v0,20(s2)
8060536c:	0c182675 	jal	806099d4 <comboLoadCustomKeep>
80605370:	00000000 	nop
80605374:	96420014 	lhu	v0,20(s2)
80605378:	30420010 	andi	v0,v0,0x10
8060537c:	1440ffc6 	bnez	v0,80605298 <hookPlay_Init+0x374>
80605380:	8fbf003c 	lw	ra,60(sp)
80605384:	8fbe0038 	lw	s8,56(sp)
80605388:	8fb70034 	lw	s7,52(sp)
8060538c:	8fb60030 	lw	s6,48(sp)
80605390:	8fb5002c 	lw	s5,44(sp)
80605394:	8fb40028 	lw	s4,40(sp)
80605398:	8fb30024 	lw	s3,36(sp)
8060539c:	8fb20020 	lw	s2,32(sp)
806053a0:	8fb1001c 	lw	s1,28(sp)
806053a4:	8fb00018 	lw	s0,24(sp)
806053a8:	03e00008 	jr	ra
806053ac:	27bd0040 	addiu	sp,sp,64

806053b0 <Play_DrawWrapper>:
806053b0:	27bdffe0 	addiu	sp,sp,-32
806053b4:	afbf001c 	sw	ra,28(sp)
806053b8:	0c1826d7 	jal	80609b5c <comboObjectsGC>
806053bc:	afa40010 	sw	a0,16(sp)
806053c0:	0c0272b2 	jal	8009cac8 <Play_Draw>
806053c4:	8fa40010 	lw	a0,16(sp)
806053c8:	3c028062 	lui	v0,0x8062
806053cc:	8c425e48 	lw	v0,24136(v0)
806053d0:	10400017 	beqz	v0,80605430 <Play_DrawWrapper+0x80>
806053d4:	8fa40010 	lw	a0,16(sp)
806053d8:	8c840000 	lw	a0,0(a0)
806053dc:	3c03e300 	lui	v1,0xe300
806053e0:	8c8202b0 	lw	v0,688(a0)
806053e4:	24630a01 	addiu	v1,v1,2561
806053e8:	ac430000 	sw	v1,0(v0)
806053ec:	3c030030 	lui	v1,0x30
806053f0:	ac430004 	sw	v1,4(v0)
806053f4:	3c03e200 	lui	v1,0xe200
806053f8:	2463001c 	addiu	v1,v1,28
806053fc:	ac430008 	sw	v1,8(v0)
80605400:	8fbf001c 	lw	ra,28(sp)
80605404:	3c03f700 	lui	v1,0xf700
80605408:	ac430010 	sw	v1,16(v0)
8060540c:	24450020 	addiu	a1,v0,32
80605410:	2463cffc 	addiu	v1,v1,-12292
80605414:	ac40000c 	sw	zero,12(v0)
80605418:	ac400014 	sw	zero,20(v0)
8060541c:	ac8502b0 	sw	a1,688(a0)
80605420:	ac430018 	sw	v1,24(v0)
80605424:	ac40001c 	sw	zero,28(v0)
80605428:	03e00008 	jr	ra
8060542c:	27bd0020 	addiu	sp,sp,32
80605430:	8fbf001c 	lw	ra,28(sp)
80605434:	081831cc 	j	8060c730 <comboDpadDraw>
80605438:	27bd0020 	addiu	sp,sp,32

8060543c <hook_FileChoose_Update>:
8060543c:	3c028062 	lui	v0,0x8062
80605440:	24425e40 	addiu	v0,v0,24128
80605444:	8c430008 	lw	v1,8(v0)
80605448:	10600008 	beqz	v1,8060546c <hook_FileChoose_Update+0x30>
8060544c:	3c030002 	lui	v1,0x2
80605450:	00832021 	addu	a0,a0,v1
80605454:	8c42000c 	lw	v0,12(v0)
80605458:	24030002 	li	v1,2
8060545c:	a483ca2e 	sh	v1,-13778(a0)
80605460:	24030007 	li	v1,7
80605464:	a483ca36 	sh	v1,-13770(a0)
80605468:	a482ca2a 	sh	v0,-13782(a0)
8060546c:	03e00008 	jr	ra
80605470:	00000000 	nop

80605474 <hook_FileChoose_Init>:
80605474:	3c028062 	lui	v0,0x8062
80605478:	8c425e48 	lw	v0,24136(v0)
8060547c:	1440000c 	bnez	v0,806054b0 <hook_FileChoose_Init+0x3c>
80605480:	24020001 	li	v0,1
80605484:	27bdffe0 	addiu	sp,sp,-32
80605488:	24070007 	li	a3,7
8060548c:	afa20010 	sw	v0,16(sp)
80605490:	00003025 	move	a2,zero
80605494:	24050057 	li	a1,87
80605498:	afbf001c 	sw	ra,28(sp)
8060549c:	0c031ad5 	jal	800c6b54 <PlayMusic>
806054a0:	00002025 	move	a0,zero
806054a4:	8fbf001c 	lw	ra,28(sp)
806054a8:	03e00008 	jr	ra
806054ac:	27bd0020 	addiu	sp,sp,32
806054b0:	03e00008 	jr	ra
806054b4:	00000000 	nop

806054b8 <hookAfter_FileChoose_OpenSave>:
806054b8:	27bdffe8 	addiu	sp,sp,-24
806054bc:	afbf0014 	sw	ra,20(sp)
806054c0:	0c1833c1 	jal	8060cf04 <comboReadForeignSave>
806054c4:	00000000 	nop
806054c8:	3c028012 	lui	v0,0x8012
806054cc:	2442a5d0 	addiu	v0,v0,-23088
806054d0:	94430ed4 	lhu	v1,3796(v0)
806054d4:	8fbf0014 	lw	ra,20(sp)
806054d8:	3463103c 	ori	v1,v1,0x103c
806054dc:	a4430ed4 	sh	v1,3796(v0)
806054e0:	94430ef8 	lhu	v1,3832(v0)
806054e4:	27bd0018 	addiu	sp,sp,24
806054e8:	3463000b 	ori	v1,v1,0xb
806054ec:	03e00008 	jr	ra
806054f0:	a4430ef8 	sh	v1,3832(v0)

806054f4 <hookDeep_FileChoose_Update>:
806054f4:	27bdffb0 	addiu	sp,sp,-80
806054f8:	afbf0004 	sw	ra,4(sp)
806054fc:	afa40008 	sw	a0,8(sp)
80605500:	afa5000c 	sw	a1,12(sp)
80605504:	afa60010 	sw	a2,16(sp)
80605508:	afa70014 	sw	a3,20(sp)
8060550c:	afa80018 	sw	t0,24(sp)
80605510:	afa9001c 	sw	t1,28(sp)
80605514:	afaa0020 	sw	t2,32(sp)
80605518:	afab0024 	sw	t3,36(sp)
8060551c:	afac0028 	sw	t4,40(sp)
80605520:	afad002c 	sw	t5,44(sp)
80605524:	afae0030 	sw	t6,48(sp)
80605528:	afaf0034 	sw	t7,52(sp)
8060552c:	afb80038 	sw	t8,56(sp)
80605530:	afb9003c 	sw	t9,60(sp)
80605534:	afa20040 	sw	v0,64(sp)
80605538:	afa30044 	sw	v1,68(sp)
8060553c:	0c18150f 	jal	8060543c <hook_FileChoose_Update>
80605540:	00000000 	nop
80605544:	8fbf0004 	lw	ra,4(sp)
80605548:	8fa40008 	lw	a0,8(sp)
8060554c:	8fa5000c 	lw	a1,12(sp)
80605550:	8fa60010 	lw	a2,16(sp)
80605554:	8fa70014 	lw	a3,20(sp)
80605558:	8fa80018 	lw	t0,24(sp)
8060555c:	8fa9001c 	lw	t1,28(sp)
80605560:	8faa0020 	lw	t2,32(sp)
80605564:	8fab0024 	lw	t3,36(sp)
80605568:	8fac0028 	lw	t4,40(sp)
8060556c:	8fad002c 	lw	t5,44(sp)
80605570:	8fae0030 	lw	t6,48(sp)
80605574:	8faf0034 	lw	t7,52(sp)
80605578:	8fb80038 	lw	t8,56(sp)
8060557c:	8fb9003c 	lw	t9,60(sp)
80605580:	8fa20040 	lw	v0,64(sp)
80605584:	8fa30044 	lw	v1,68(sp)
80605588:	27bd0050 	addiu	sp,sp,80
8060558c:	84cb4a2e 	lh	t3,18990(a2)
80605590:	000b6080 	sll	t4,t3,0x2
80605594:	03e00008 	jr	ra
80605598:	00000000 	nop

8060559c <Shader_Opa01>:
8060559c:	27bdffd8 	addiu	sp,sp,-40
806055a0:	afb00014 	sw	s0,20(sp)
806055a4:	8c900000 	lw	s0,0(a0)
806055a8:	afb2001c 	sw	s2,28(sp)
806055ac:	00809025 	move	s2,a0
806055b0:	02002025 	move	a0,s0
806055b4:	afbf0024 	sw	ra,36(sp)
806055b8:	afb30020 	sw	s3,32(sp)
806055bc:	afb10018 	sw	s1,24(sp)
806055c0:	0c01f8a6 	jal	8007e298 <InitListPolyOpa>
806055c4:	00a08825 	move	s1,a1
806055c8:	8e1302c0 	lw	s3,704(s0)
806055cc:	8e440000 	lw	a0,0(s2)
806055d0:	26620008 	addiu	v0,s3,8
806055d4:	ae0202c0 	sw	v0,704(s0)
806055d8:	3c02da38 	lui	v0,0xda38
806055dc:	24420002 	addiu	v0,v0,2
806055e0:	0c02ae40 	jal	800ab900 <GetMatrixMV>
806055e4:	ae620000 	sw	v0,0(s3)
806055e8:	001120c0 	sll	a0,s1,0x3
806055ec:	ae620004 	sw	v0,4(s3)
806055f0:	00912821 	addu	a1,a0,s1
806055f4:	3c028061 	lui	v0,0x8061
806055f8:	00052880 	sll	a1,a1,0x2
806055fc:	24422b60 	addiu	v0,v0,11104
80605600:	00451021 	addu	v0,v0,a1
80605604:	8e0302c0 	lw	v1,704(s0)
80605608:	8c440004 	lw	a0,4(v0)
8060560c:	8fbf0024 	lw	ra,36(sp)
80605610:	8c420008 	lw	v0,8(v0)
80605614:	ac640004 	sw	a0,4(v1)
80605618:	3c06de00 	lui	a2,0xde00
8060561c:	24640010 	addiu	a0,v1,16
80605620:	8fb30020 	lw	s3,32(sp)
80605624:	8fb2001c 	lw	s2,28(sp)
80605628:	8fb10018 	lw	s1,24(sp)
8060562c:	ac660000 	sw	a2,0(v1)
80605630:	ae0402c0 	sw	a0,704(s0)
80605634:	8fb00014 	lw	s0,20(sp)
80605638:	ac660008 	sw	a2,8(v1)
8060563c:	ac62000c 	sw	v0,12(v1)
80605640:	03e00008 	jr	ra
80605644:	27bd0028 	addiu	sp,sp,40

80605648 <Shader_MoonTear>:
80605648:	27bdffc8 	addiu	sp,sp,-56
8060564c:	afb00014 	sw	s0,20(sp)
80605650:	8c900000 	lw	s0,0(a0)
80605654:	afb10018 	sw	s1,24(sp)
80605658:	00808825 	move	s1,a0
8060565c:	02002025 	move	a0,s0
80605660:	afbf0034 	sw	ra,52(sp)
80605664:	afb70030 	sw	s7,48(sp)
80605668:	afb6002c 	sw	s6,44(sp)
8060566c:	afb50028 	sw	s5,40(sp)
80605670:	afb40024 	sw	s4,36(sp)
80605674:	afb30020 	sw	s3,32(sp)
80605678:	afb2001c 	sw	s2,28(sp)
8060567c:	0c01f8a6 	jal	8007e298 <InitListPolyOpa>
80605680:	00a0b025 	move	s6,a1
80605684:	8e240000 	lw	a0,0(s1)
80605688:	0c01f8b0 	jal	8007e2c0 <InitListPolyXlu>
8060568c:	3c15db06 	lui	s5,0xdb06
80605690:	8e1202c0 	lw	s2,704(s0)
80605694:	26a20024 	addiu	v0,s5,36
80605698:	3c148061 	lui	s4,0x8061
8060569c:	3c13da38 	lui	s3,0xda38
806056a0:	ae420000 	sw	v0,0(s2)
806056a4:	8e240000 	lw	a0,0(s1)
806056a8:	2694d340 	addiu	s4,s4,-11456
806056ac:	26420010 	addiu	v0,s2,16
806056b0:	26730002 	addiu	s3,s3,2
806056b4:	ae540004 	sw	s4,4(s2)
806056b8:	ae0202c0 	sw	v0,704(s0)
806056bc:	0c02ae40 	jal	800ab900 <GetMatrixMV>
806056c0:	ae530008 	sw	s3,8(s2)
806056c4:	8e0302c0 	lw	v1,704(s0)
806056c8:	ae42000c 	sw	v0,12(s2)
806056cc:	24620008 	addiu	v0,v1,8
806056d0:	ae0202c0 	sw	v0,704(s0)
806056d4:	001610c0 	sll	v0,s6,0x3
806056d8:	00562821 	addu	a1,v0,s6
806056dc:	3c128061 	lui	s2,0x8061
806056e0:	00052880 	sll	a1,a1,0x2
806056e4:	26522b60 	addiu	s2,s2,11104
806056e8:	02459021 	addu	s2,s2,a1
806056ec:	8e420004 	lw	v0,4(s2)
806056f0:	3c17de00 	lui	s7,0xde00
806056f4:	ac620004 	sw	v0,4(v1)
806056f8:	8e0202d0 	lw	v0,720(s0)
806056fc:	3c040001 	lui	a0,0x1
80605700:	ac770000 	sw	s7,0(v1)
80605704:	26b50028 	addiu	s5,s5,40
80605708:	24430008 	addiu	v1,v0,8
8060570c:	24841da0 	addiu	a0,a0,7584
80605710:	ae0302d0 	sw	v1,720(s0)
80605714:	02242021 	addu	a0,s1,a0
80605718:	ac550000 	sw	s5,0(v0)
8060571c:	0c02af95 	jal	800abe54 <ModelViewUnkTransform>
80605720:	ac540004 	sw	s4,4(v0)
80605724:	8e1402d0 	lw	s4,720(s0)
80605728:	8e240000 	lw	a0,0(s1)
8060572c:	26820008 	addiu	v0,s4,8
80605730:	ae0202d0 	sw	v0,720(s0)
80605734:	0c02ae40 	jal	800ab900 <GetMatrixMV>
80605738:	ae930000 	sw	s3,0(s4)
8060573c:	ae820004 	sw	v0,4(s4)
80605740:	8e0202d0 	lw	v0,720(s0)
80605744:	8fbf0034 	lw	ra,52(sp)
80605748:	24430008 	addiu	v1,v0,8
8060574c:	ae0302d0 	sw	v1,720(s0)
80605750:	8e430008 	lw	v1,8(s2)
80605754:	8fb6002c 	lw	s6,44(sp)
80605758:	8fb50028 	lw	s5,40(sp)
8060575c:	8fb40024 	lw	s4,36(sp)
80605760:	8fb30020 	lw	s3,32(sp)
80605764:	8fb2001c 	lw	s2,28(sp)
80605768:	8fb10018 	lw	s1,24(sp)
8060576c:	8fb00014 	lw	s0,20(sp)
80605770:	ac570000 	sw	s7,0(v0)
80605774:	ac430004 	sw	v1,4(v0)
80605778:	8fb70030 	lw	s7,48(sp)
8060577c:	03e00008 	jr	ra
80605780:	27bd0038 	addiu	sp,sp,56

80605784 <dungeonRespawn>:
80605784:	2484ffef 	addiu	a0,a0,-17
80605788:	3084ffff 	andi	a0,a0,0xffff
8060578c:	2c820008 	sltiu	v0,a0,8
80605790:	1040000d 	beqz	v0,806057c8 <dungeonRespawn+0x44>
80605794:	3c028061 	lui	v0,0x8061
80605798:	2442da80 	addiu	v0,v0,-9600
8060579c:	00822021 	addu	a0,a0,v0
806057a0:	80830000 	lb	v1,0(a0)
806057a4:	3c028062 	lui	v0,0x8062
806057a8:	24425f60 	addiu	v0,v0,24416
806057ac:	00431021 	addu	v0,v0,v1
806057b0:	9042004f 	lbu	v0,79(v0)
806057b4:	28430008 	slti	v1,v0,8
806057b8:	14600005 	bnez	v1,806057d0 <dungeonRespawn+0x4c>
806057bc:	3c048012 	lui	a0,0x8012
806057c0:	240201d1 	li	v0,465
806057c4:	ac82a5d0 	sw	v0,-23088(a0)
806057c8:	03e00008 	jr	ra
806057cc:	00000000 	nop
806057d0:	3c038061 	lui	v1,0x8061
806057d4:	00021080 	sll	v0,v0,0x2
806057d8:	2463da88 	addiu	v1,v1,-9592
806057dc:	00431021 	addu	v0,v0,v1
806057e0:	1000fff8 	b	806057c4 <dungeonRespawn+0x40>
806057e4:	8c420000 	lw	v0,0(v0)

806057e8 <Sram_CopySaveWrapper>:
806057e8:	27bdffe8 	addiu	sp,sp,-24
806057ec:	afb00010 	sw	s0,16(sp)
806057f0:	afbf0014 	sw	ra,20(sp)
806057f4:	0c0243f4 	jal	80090fd0 <Sram_CopySave>
806057f8:	00808025 	move	s0,a0
806057fc:	3c020002 	lui	v0,0x2
80605800:	02022021 	addu	a0,s0,v0
80605804:	8485ca38 	lh	a1,-13768(a0)
80605808:	8fbf0014 	lw	ra,20(sp)
8060580c:	8fb00010 	lw	s0,16(sp)
80605810:	8484ca50 	lh	a0,-13744(a0)
80605814:	081833fe 	j	8060cff8 <comboCopyMmSave>
80605818:	27bd0018 	addiu	sp,sp,24

8060581c <DeathWarpWrapper>:
8060581c:	00802825 	move	a1,a0
80605820:	848400a4 	lh	a0,164(a0)
80605824:	27bdffe8 	addiu	sp,sp,-24
80605828:	afbf0014 	sw	ra,20(sp)
8060582c:	0c1815e1 	jal	80605784 <dungeonRespawn>
80605830:	00000000 	nop
80605834:	8fbf0014 	lw	ra,20(sp)
80605838:	00a02025 	move	a0,a1
8060583c:	08027684 	j	8009da10 <DeathWarp>
80605840:	27bd0018 	addiu	sp,sp,24

80605844 <Sram_AfterOpenSave>:
80605844:	3c058012 	lui	a1,0x8012
80605848:	2402040b 	li	v0,1035
8060584c:	aca2a5d0 	sw	v0,-23088(a1)
80605850:	24a2a5d0 	addiu	v0,a1,-23088
80605854:	84440066 	lh	a0,102(v0)
80605858:	27bdffe8 	addiu	sp,sp,-24
8060585c:	afbf0014 	sw	ra,20(sp)
80605860:	0c1815e1 	jal	80605784 <dungeonRespawn>
80605864:	00000000 	nop
80605868:	3c028062 	lui	v0,0x8062
8060586c:	24425e40 	addiu	v0,v0,24128
80605870:	8c430008 	lw	v1,8(v0)
80605874:	1060000a 	beqz	v1,806058a0 <Sram_AfterOpenSave+0x5c>
80605878:	8fbf0014 	lw	ra,20(sp)
8060587c:	240301d1 	li	v1,465
80605880:	8c440010 	lw	a0,16(v0)
80605884:	aca3a5d0 	sw	v1,-23088(a1)
80605888:	2403ffff 	li	v1,-1
8060588c:	10830003 	beq	a0,v1,8060589c <Sram_AfterOpenSave+0x58>
80605890:	ac400008 	sw	zero,8(v0)
80605894:	aca4a5d0 	sw	a0,-23088(a1)
80605898:	ac430010 	sw	v1,16(v0)
8060589c:	8fbf0014 	lw	ra,20(sp)
806058a0:	03e00008 	jr	ra
806058a4:	27bd0018 	addiu	sp,sp,24

806058a8 <comboCreateSave>:
806058a8:	27bdffc0 	addiu	sp,sp,-64
806058ac:	afb40028 	sw	s4,40(sp)
806058b0:	afb1001c 	sw	s1,28(sp)
806058b4:	3c148061 	lui	s4,0x8061
806058b8:	3c1103fe 	lui	s1,0x3fe
806058bc:	afb70034 	sw	s7,52(sp)
806058c0:	afb60030 	sw	s6,48(sp)
806058c4:	afb5002c 	sw	s5,44(sp)
806058c8:	afb30024 	sw	s3,36(sp)
806058cc:	afbf003c 	sw	ra,60(sp)
806058d0:	afbe0038 	sw	s8,56(sp)
806058d4:	afb20020 	sw	s2,32(sp)
806058d8:	afb00018 	sw	s0,24(sp)
806058dc:	00a09825 	move	s3,a1
806058e0:	0c18002e 	jal	806000b8 <comboCreateSaveMM>
806058e4:	26317000 	addiu	s1,s1,28672
806058e8:	3c151000 	lui	s5,0x1000
806058ec:	26975d50 	addiu	s7,s4,23888
806058f0:	3416ffff 	li	s6,0xffff
806058f4:	24060080 	li	a2,128
806058f8:	02e02825 	move	a1,s7
806058fc:	02352025 	or	a0,s1,s5
80605900:	0c000217 	jal	8000085c <DMARomToRam>
80605904:	26905d50 	addiu	s0,s4,23888
80605908:	26030080 	addiu	v1,s0,128
8060590c:	961e0000 	lhu	s8,0(s0)
80605910:	13d60015 	beq	s8,s6,80605968 <comboCreateSave+0xc0>
80605914:	96050002 	lhu	a1,2(s0)
80605918:	00009025 	move	s2,zero
8060591c:	14b20006 	bne	a1,s2,80605938 <comboCreateSave+0x90>
80605920:	03c02025 	move	a0,s8
80605924:	26100004 	addiu	s0,s0,4
80605928:	5603fff9 	bnel	s0,v1,80605910 <comboCreateSave+0x68>
8060592c:	961e0000 	lhu	s8,0(s0)
80605930:	1000fff0 	b	806058f4 <comboCreateSave+0x4c>
80605934:	26310080 	addiu	s1,s1,128
80605938:	afa30014 	sw	v1,20(sp)
8060593c:	0c182110 	jal	80608440 <comboProgressive>
80605940:	afa50010 	sw	a1,16(sp)
80605944:	00022400 	sll	a0,v0,0x10
80605948:	00042403 	sra	a0,a0,0x10
8060594c:	26520001 	addiu	s2,s2,1
80605950:	305effff 	andi	s8,v0,0xffff
80605954:	0c182ae0 	jal	8060ab80 <comboAddItemNoEffect>
80605958:	3252ffff 	andi	s2,s2,0xffff
8060595c:	8fa30014 	lw	v1,20(sp)
80605960:	1000ffee 	b	8060591c <comboCreateSave+0x74>
80605964:	8fa50010 	lw	a1,16(sp)
80605968:	0c181783 	jal	80605e0c <comboConfig>
8060596c:	24040008 	li	a0,8
80605970:	50400004 	beqzl	v0,80605984 <comboCreateSave+0xdc>
80605974:	3c108012 	lui	s0,0x8012
80605978:	0c00a238 	jal	800288e0 <SetEventChk>
8060597c:	2404004b 	li	a0,75
80605980:	3c108012 	lui	s0,0x8012
80605984:	0c1833d3 	jal	8060cf4c <comboWriteSave>
80605988:	2610a5d0 	addiu	s0,s0,-23088
8060598c:	8e021354 	lw	v0,4948(s0)
80605990:	24031450 	li	v1,5200
80605994:	00620018 	mult	v1,v0
80605998:	02002825 	move	a1,s0
8060599c:	24061354 	li	a2,4948
806059a0:	00008812 	mflo	s1
806059a4:	26240020 	addiu	a0,s1,32
806059a8:	0c18349e 	jal	8060d278 <memcpy>
806059ac:	02642021 	addu	a0,s3,a0
806059b0:	26243d10 	addiu	a0,s1,15632
806059b4:	8fbf003c 	lw	ra,60(sp)
806059b8:	8fbe0038 	lw	s8,56(sp)
806059bc:	8fb70034 	lw	s7,52(sp)
806059c0:	8fb60030 	lw	s6,48(sp)
806059c4:	8fb5002c 	lw	s5,44(sp)
806059c8:	8fb40028 	lw	s4,40(sp)
806059cc:	8fb20020 	lw	s2,32(sp)
806059d0:	8fb1001c 	lw	s1,28(sp)
806059d4:	02002825 	move	a1,s0
806059d8:	02642021 	addu	a0,s3,a0
806059dc:	8fb00018 	lw	s0,24(sp)
806059e0:	8fb30024 	lw	s3,36(sp)
806059e4:	24061354 	li	a2,4948
806059e8:	0818349e 	j	8060d278 <memcpy>
806059ec:	27bd0040 	addiu	sp,sp,64

806059f0 <dungeon>:
806059f0:	948400a4 	lhu	a0,164(a0)
806059f4:	2403005c 	li	v1,92
806059f8:	1083000b 	beq	a0,v1,80605a28 <dungeon+0x38>
806059fc:	24020006 	li	v0,6
80605a00:	3c028012 	lui	v0,0x8012
80605a04:	9442b9d2 	lhu	v0,-17966(v0)
80605a08:	2403000a 	li	v1,10
80605a0c:	10430003 	beq	v0,v1,80605a1c <dungeon+0x2c>
80605a10:	2403000d 	li	v1,13
80605a14:	14430004 	bne	v0,v1,80605a28 <dungeon+0x38>
80605a18:	00000000 	nop
80605a1c:	14a00002 	bnez	a1,80605a28 <dungeon+0x38>
80605a20:	2402000a 	li	v0,10
80605a24:	2402000d 	li	v0,13
80605a28:	03e00008 	jr	ra
80605a2c:	00000000 	nop

80605a30 <comboAddItemEffect>:
80605a30:	28a20077 	slti	v0,a1,119
80605a34:	10400026 	beqz	v0,80605ad0 <comboAddItemEffect+0xa0>
80605a38:	28a2003b 	slti	v0,a1,59
80605a3c:	27bdffe0 	addiu	sp,sp,-32
80605a40:	10400009 	beqz	v0,80605a68 <comboAddItemEffect+0x38>
80605a44:	afbf001c 	sw	ra,28(sp)
80605a48:	24a5fff8 	addiu	a1,a1,-8
80605a4c:	30a5ffff 	andi	a1,a1,0xffff
80605a50:	2ca2000d 	sltiu	v0,a1,13
80605a54:	1440000f 	bnez	v0,80605a94 <comboAddItemEffect+0x64>
80605a58:	24021713 	li	v0,5907
80605a5c:	8fbf001c 	lw	ra,28(sp)
80605a60:	03e00008 	jr	ra
80605a64:	27bd0020 	addiu	sp,sp,32
80605a68:	24a5ffc5 	addiu	a1,a1,-59
80605a6c:	30a5ffff 	andi	a1,a1,0xffff
80605a70:	2ca2003c 	sltiu	v0,a1,60
80605a74:	1040fff9 	beqz	v0,80605a5c <comboAddItemEffect+0x2c>
80605a78:	3c028061 	lui	v0,0x8061
80605a7c:	00052880 	sll	a1,a1,0x2
80605a80:	2442daa8 	addiu	v0,v0,-9560
80605a84:	00451021 	addu	v0,v0,a1
80605a88:	8c420000 	lw	v0,0(v0)
80605a8c:	00400008 	jr	v0
80605a90:	00000000 	nop
80605a94:	00a21006 	srlv	v0,v0,a1
80605a98:	30420001 	andi	v0,v0,0x1
80605a9c:	1040fff0 	beqz	v0,80605a60 <comboAddItemEffect+0x30>
80605aa0:	8fbf001c 	lw	ra,28(sp)
80605aa4:	24050001 	li	a1,1
80605aa8:	0c01bed4 	jal	8006fb50 <Interface_LoadItemIconImpl>
80605aac:	afa40010 	sw	a0,16(sp)
80605ab0:	8fa40010 	lw	a0,16(sp)
80605ab4:	0c01bed4 	jal	8006fb50 <Interface_LoadItemIconImpl>
80605ab8:	24050002 	li	a1,2
80605abc:	8fa40010 	lw	a0,16(sp)
80605ac0:	8fbf001c 	lw	ra,28(sp)
80605ac4:	24050003 	li	a1,3
80605ac8:	0801bed4 	j	8006fb50 <Interface_LoadItemIconImpl>
80605acc:	27bd0020 	addiu	sp,sp,32
80605ad0:	24020097 	li	v0,151
80605ad4:	10a20028 	beq	a1,v0,80605b78 <comboAddItemEffect+0x148>
80605ad8:	3c028012 	lui	v0,0x8012
80605adc:	24020098 	li	v0,152
80605ae0:	10a2004c 	beq	a1,v0,80605c14 <comboAddItemEffect+0x1e4>
80605ae4:	3c028012 	lui	v0,0x8012
80605ae8:	24020096 	li	v0,150
80605aec:	50a2001d 	beql	a1,v0,80605b64 <comboAddItemEffect+0x134>
80605af0:	3c028012 	lui	v0,0x8012
80605af4:	03e00008 	jr	ra
80605af8:	00000000 	nop
80605afc:	3c028012 	lui	v0,0x8012
80605b00:	2442a5d0 	addiu	v0,v0,-23088
80605b04:	944313cc 	lhu	v1,5068(v0)
80605b08:	24630001 	addiu	v1,v1,1
80605b0c:	1000ffd3 	b	80605a5c <comboAddItemEffect+0x2c>
80605b10:	a44313cc 	sh	v1,5068(v0)
80605b14:	3c028012 	lui	v0,0x8012
80605b18:	2442a5d0 	addiu	v0,v0,-23088
80605b1c:	944313cc 	lhu	v1,5068(v0)
80605b20:	1000fffa 	b	80605b0c <comboAddItemEffect+0xdc>
80605b24:	24630005 	addiu	v1,v1,5
80605b28:	3c028012 	lui	v0,0x8012
80605b2c:	2442a5d0 	addiu	v0,v0,-23088
80605b30:	944313cc 	lhu	v1,5068(v0)
80605b34:	1000fff5 	b	80605b0c <comboAddItemEffect+0xdc>
80605b38:	24630014 	addiu	v1,v1,20
80605b3c:	3c028012 	lui	v0,0x8012
80605b40:	2442a5d0 	addiu	v0,v0,-23088
80605b44:	944313cc 	lhu	v1,5068(v0)
80605b48:	1000fff0 	b	80605b0c <comboAddItemEffect+0xdc>
80605b4c:	24630032 	addiu	v1,v1,50
80605b50:	3c028012 	lui	v0,0x8012
80605b54:	2442a5d0 	addiu	v0,v0,-23088
80605b58:	944313cc 	lhu	v1,5068(v0)
80605b5c:	1000ffeb 	b	80605b0c <comboAddItemEffect+0xdc>
80605b60:	246300c8 	addiu	v1,v1,200
80605b64:	2442a5d0 	addiu	v0,v0,-23088
80605b68:	a0400032 	sb	zero,50(v0)
80605b6c:	24030030 	li	v1,48
80605b70:	03e00008 	jr	ra
80605b74:	a44313f6 	sh	v1,5110(v0)
80605b78:	2442a5d0 	addiu	v0,v0,-23088
80605b7c:	a0400032 	sb	zero,50(v0)
80605b80:	1000fffb 	b	80605b70 <comboAddItemEffect+0x140>
80605b84:	24030060 	li	v1,96
80605b88:	3c028012 	lui	v0,0x8012
80605b8c:	2442a5d0 	addiu	v0,v0,-23088
80605b90:	94431424 	lhu	v1,5156(v0)
80605b94:	24630010 	addiu	v1,v1,16
80605b98:	1000ffb0 	b	80605a5c <comboAddItemEffect+0x2c>
80605b9c:	a4431424 	sh	v1,5156(v0)
80605ba0:	3c028012 	lui	v0,0x8012
80605ba4:	2442a5d0 	addiu	v0,v0,-23088
80605ba8:	94431424 	lhu	v1,5156(v0)
80605bac:	1000fffa 	b	80605b98 <comboAddItemEffect+0x168>
80605bb0:	24630140 	addiu	v1,v1,320
80605bb4:	0c18167c 	jal	806059f0 <dungeon>
80605bb8:	00002825 	move	a1,zero
80605bbc:	8fbf001c 	lw	ra,28(sp)
80605bc0:	00402025 	move	a0,v0
80605bc4:	0818226a 	j	806089a8 <comboAddSmallKeyOot>
80605bc8:	27bd0020 	addiu	sp,sp,32
80605bcc:	0c18167c 	jal	806059f0 <dungeon>
80605bd0:	00002825 	move	a1,zero
80605bd4:	8fbf001c 	lw	ra,28(sp)
80605bd8:	00402025 	move	a0,v0
80605bdc:	08182287 	j	80608a1c <comboAddMapOot>
80605be0:	27bd0020 	addiu	sp,sp,32
80605be4:	0c18167c 	jal	806059f0 <dungeon>
80605be8:	00002825 	move	a1,zero
80605bec:	8fbf001c 	lw	ra,28(sp)
80605bf0:	00402025 	move	a0,v0
80605bf4:	08182280 	j	80608a00 <comboAddCompassOot>
80605bf8:	27bd0020 	addiu	sp,sp,32
80605bfc:	0c18167c 	jal	806059f0 <dungeon>
80605c00:	24050001 	li	a1,1
80605c04:	8fbf001c 	lw	ra,28(sp)
80605c08:	00402025 	move	a0,v0
80605c0c:	08182279 	j	806089e4 <comboAddBossKeyOot>
80605c10:	27bd0020 	addiu	sp,sp,32
80605c14:	2442a5d0 	addiu	v0,v0,-23088
80605c18:	94431424 	lhu	v1,5156(v0)
80605c1c:	24630140 	addiu	v1,v1,320
80605c20:	03e00008 	jr	ra
80605c24:	a4431424 	sh	v1,5156(v0)

80605c28 <AddItemWithIcon>:
80605c28:	27bdffe0 	addiu	sp,sp,-32
80605c2c:	afb00018 	sw	s0,24(sp)
80605c30:	00808025 	move	s0,a0
80605c34:	3c048084 	lui	a0,0x8084
80605c38:	2484c590 	addiu	a0,a0,-14960
80605c3c:	afbf001c 	sw	ra,28(sp)
80605c40:	afa50014 	sw	a1,20(sp)
80605c44:	0c02676f 	jal	80099dbc <OverlayAddr>
80605c48:	afa60010 	sw	a2,16(sp)
80605c4c:	8fa60010 	lw	a2,16(sp)
80605c50:	8fa50014 	lw	a1,20(sp)
80605c54:	8fbf001c 	lw	ra,28(sp)
80605c58:	02002025 	move	a0,s0
80605c5c:	8fb00018 	lw	s0,24(sp)
80605c60:	0040c825 	move	t9,v0
80605c64:	03200008 	jr	t9
80605c68:	27bd0020 	addiu	sp,sp,32

80605c6c <comboProgressiveMm>:
80605c6c:	27bdffe8 	addiu	sp,sp,-24
80605c70:	2882003a 	slti	v0,a0,58
80605c74:	afb00010 	sw	s0,16(sp)
80605c78:	afbf0014 	sw	ra,20(sp)
80605c7c:	1040002c 	beqz	v0,80605d30 <comboProgressiveMm+0xc4>
80605c80:	00808025 	move	s0,a0
80605c84:	28820037 	slti	v0,a0,55
80605c88:	1040003a 	beqz	v0,80605d74 <comboProgressiveMm+0x108>
80605c8c:	2882001e 	slti	v0,a0,30
80605c90:	1040000b 	beqz	v0,80605cc0 <comboProgressiveMm+0x54>
80605c94:	2882001b 	slti	v0,a0,27
80605c98:	10400040 	beqz	v0,80605d9c <comboProgressiveMm+0x130>
80605c9c:	2482fff8 	addiu	v0,a0,-8
80605ca0:	2c420002 	sltiu	v0,v0,2
80605ca4:	14400048 	bnez	v0,80605dc8 <comboProgressiveMm+0x15c>
80605ca8:	3c028062 	lui	v0,0x8062
80605cac:	8fbf0014 	lw	ra,20(sp)
80605cb0:	02001025 	move	v0,s0
80605cb4:	8fb00010 	lw	s0,16(sp)
80605cb8:	03e00008 	jr	ra
80605cbc:	27bd0018 	addiu	sp,sp,24
80605cc0:	28820025 	slti	v0,a0,37
80605cc4:	1040000c 	beqz	v0,80605cf8 <comboProgressiveMm+0x8c>
80605cc8:	28820022 	slti	v0,a0,34
80605ccc:	1440fff7 	bnez	v0,80605cac <comboProgressiveMm+0x40>
80605cd0:	3c028062 	lui	v0,0x8062
80605cd4:	8c426b48 	lw	v0,27464(v0)
80605cd8:	30420007 	andi	v0,v0,0x7
80605cdc:	1040fff3 	beqz	v0,80605cac <comboProgressiveMm+0x40>
80605ce0:	24100022 	li	s0,34
80605ce4:	24030001 	li	v1,1
80605ce8:	1443fff0 	bne	v0,v1,80605cac <comboProgressiveMm+0x40>
80605cec:	24100024 	li	s0,36
80605cf0:	1000ffee 	b	80605cac <comboProgressiveMm+0x40>
80605cf4:	24100023 	li	s0,35
80605cf8:	24020033 	li	v0,51
80605cfc:	1602ffec 	bne	s0,v0,80605cb0 <comboProgressiveMm+0x44>
80605d00:	8fbf0014 	lw	ra,20(sp)
80605d04:	0c181783 	jal	80605e0c <comboConfig>
80605d08:	24040006 	li	a0,6
80605d0c:	1040ffe8 	beqz	v0,80605cb0 <comboProgressiveMm+0x44>
80605d10:	8fbf0014 	lw	ra,20(sp)
80605d14:	3c028062 	lui	v0,0x8062
80605d18:	8c426c0c 	lw	v0,27660(v0)
80605d1c:	30421000 	andi	v0,v0,0x1000
80605d20:	1040ffe3 	beqz	v0,80605cb0 <comboProgressiveMm+0x44>
80605d24:	241000cf 	li	s0,207
80605d28:	1000ffe1 	b	80605cb0 <comboProgressiveMm+0x44>
80605d2c:	24100033 	li	s0,51
80605d30:	240200c0 	li	v0,192
80605d34:	1082002a 	beq	a0,v0,80605de0 <comboProgressiveMm+0x174>
80605d38:	288200c1 	slti	v0,a0,193
80605d3c:	10400009 	beqz	v0,80605d64 <comboProgressiveMm+0xf8>
80605d40:	240200c9 	li	v0,201
80605d44:	2482ff45 	addiu	v0,a0,-187
80605d48:	2c420002 	sltiu	v0,v0,2
80605d4c:	1040ffd7 	beqz	v0,80605cac <comboProgressiveMm+0x40>
80605d50:	3c028062 	lui	v0,0x8062
80605d54:	90506ad0 	lbu	s0,27344(v0)
80605d58:	0010802b 	sltu	s0,zero,s0
80605d5c:	1000ffd3 	b	80605cac <comboProgressiveMm+0x40>
80605d60:	261000bb 	addiu	s0,s0,187
80605d64:	1082001e 	beq	a0,v0,80605de0 <comboProgressiveMm+0x174>
80605d68:	240200cf 	li	v0,207
80605d6c:	1000ffe3 	b	80605cfc <comboProgressiveMm+0x90>
80605d70:	00000000 	nop
80605d74:	3c028062 	lui	v0,0x8062
80605d78:	94426afc 	lhu	v0,27388(v0)
80605d7c:	3042000f 	andi	v0,v0,0xf
80605d80:	1040ffca 	beqz	v0,80605cac <comboProgressiveMm+0x40>
80605d84:	24100037 	li	s0,55
80605d88:	24030001 	li	v1,1
80605d8c:	1443ffc7 	bne	v0,v1,80605cac <comboProgressiveMm+0x40>
80605d90:	24100039 	li	s0,57
80605d94:	1000ffc5 	b	80605cac <comboProgressiveMm+0x40>
80605d98:	24100038 	li	s0,56
80605d9c:	3c028062 	lui	v0,0x8062
80605da0:	8c426b48 	lw	v0,27464(v0)
80605da4:	000210c2 	srl	v0,v0,0x3
80605da8:	30420007 	andi	v0,v0,0x7
80605dac:	1040ffbf 	beqz	v0,80605cac <comboProgressiveMm+0x40>
80605db0:	2410001b 	li	s0,27
80605db4:	24030001 	li	v1,1
80605db8:	1443ffbc 	bne	v0,v1,80605cac <comboProgressiveMm+0x40>
80605dbc:	2410001d 	li	s0,29
80605dc0:	1000ffba 	b	80605cac <comboProgressiveMm+0x40>
80605dc4:	2410001c 	li	s0,28
80605dc8:	8c506b48 	lw	s0,27464(v0)
80605dcc:	00108302 	srl	s0,s0,0xc
80605dd0:	32100003 	andi	s0,s0,0x3
80605dd4:	0010802b 	sltu	s0,zero,s0
80605dd8:	1000ffb4 	b	80605cac <comboProgressiveMm+0x40>
80605ddc:	26100008 	addiu	s0,s0,8
80605de0:	0c181783 	jal	80605e0c <comboConfig>
80605de4:	24040007 	li	a0,7
80605de8:	1040ffb1 	beqz	v0,80605cb0 <comboProgressiveMm+0x44>
80605dec:	8fbf0014 	lw	ra,20(sp)
80605df0:	3c028062 	lui	v0,0x8062
80605df4:	90426b4c 	lbu	v0,27468(v0)
80605df8:	30420001 	andi	v0,v0,0x1
80605dfc:	1040ffac 	beqz	v0,80605cb0 <comboProgressiveMm+0x44>
80605e00:	241000c9 	li	s0,201
80605e04:	1000ffaa 	b	80605cb0 <comboProgressiveMm+0x44>
80605e08:	241000c0 	li	s0,192

80605e0c <comboConfig>:
80605e0c:	3c038062 	lui	v1,0x8062
80605e10:	000410c3 	sra	v0,a0,0x3
80605e14:	24635f60 	addiu	v1,v1,24416
80605e18:	00431021 	addu	v0,v0,v1
80605e1c:	90430000 	lbu	v1,0(v0)
80605e20:	30840007 	andi	a0,a0,0x7
80605e24:	24020001 	li	v0,1
80605e28:	00821004 	sllv	v0,v0,a0
80605e2c:	03e00008 	jr	ra
80605e30:	00621024 	and	v0,v1,v0

80605e34 <comboGameSwitch2>:
80605e34:	3c1da061 	lui	sp,0xa061
80605e38:	27bd7dd0 	addiu	sp,sp,32208
80605e3c:	3c08a061 	lui	t0,0xa061
80605e40:	2508aaa4 	addiu	t0,t0,-21852
80605e44:	01000008 	jr	t0
80605e48:	00000000 	nop

80605e4c <comboGameSwitch4>:
80605e4c:	3c088000 	lui	t0,0x8000
80605e50:	3c098000 	lui	t1,0x8000
80605e54:	35294000 	ori	t1,t1,0x4000
80605e58:	bd000000 	cache	0x0,0(t0)
80605e5c:	25080020 	addiu	t0,t0,32
80605e60:	1509fffd 	bne	t0,t1,80605e58 <comboGameSwitch4+0xc>
80605e64:	00000000 	nop
80605e68:	3c088000 	lui	t0,0x8000
80605e6c:	3c098000 	lui	t1,0x8000
80605e70:	35292000 	ori	t1,t1,0x2000
80605e74:	bd010000 	cache	0x1,0(t0)
80605e78:	25080010 	addiu	t0,t0,16
80605e7c:	1509fffd 	bne	t0,t1,80605e74 <comboGameSwitch4+0x28>
80605e80:	00000000 	nop
80605e84:	00800008 	jr	a0
80605e88:	00000000 	nop

80605e8c <comboShopPrecond>:
80605e8c:	84a40196 	lh	a0,406(a1)
80605e90:	27bdffe8 	addiu	sp,sp,-24
80605e94:	afb00010 	sw	s0,16(sp)
80605e98:	afbf0014 	sw	ra,20(sp)
80605e9c:	0c182af1 	jal	8060abc4 <comboIsItemUnavailable>
80605ea0:	00a08025 	move	s0,a1
80605ea4:	1440000a 	bnez	v0,80605ed0 <comboShopPrecond+0x44>
80605ea8:	24030002 	li	v1,2
80605eac:	3c028012 	lui	v0,0x8012
80605eb0:	860301b8 	lh	v1,440(s0)
80605eb4:	9442a604 	lhu	v0,-23036(v0)
80605eb8:	0043102a 	slt	v0,v0,v1
80605ebc:	14400004 	bnez	v0,80605ed0 <comboShopPrecond+0x44>
80605ec0:	24030004 	li	v1,4
80605ec4:	0c182b2f 	jal	8060acbc <comboIsItemMinor>
80605ec8:	86040196 	lh	a0,406(s0)
80605ecc:	0002182b 	sltu	v1,zero,v0
80605ed0:	8fbf0014 	lw	ra,20(sp)
80605ed4:	8fb00010 	lw	s0,16(sp)
80605ed8:	00601025 	move	v0,v1
80605edc:	03e00008 	jr	ra
80605ee0:	27bd0018 	addiu	sp,sp,24

80605ee4 <comboSetObjectSegment>:
80605ee4:	8c8302c0 	lw	v1,704(a0)
80605ee8:	24620008 	addiu	v0,v1,8
80605eec:	ac8202c0 	sw	v0,704(a0)
80605ef0:	3c02db06 	lui	v0,0xdb06
80605ef4:	24420018 	addiu	v0,v0,24
80605ef8:	ac620000 	sw	v0,0(v1)
80605efc:	ac650004 	sw	a1,4(v1)
80605f00:	8c8302d0 	lw	v1,720(a0)
80605f04:	24660008 	addiu	a2,v1,8
80605f08:	ac8602d0 	sw	a2,720(a0)
80605f0c:	ac620000 	sw	v0,0(v1)
80605f10:	3c028000 	lui	v0,0x8000
80605f14:	ac650004 	sw	a1,4(v1)
80605f18:	00a22821 	addu	a1,a1,v0
80605f1c:	3c028012 	lui	v0,0x8012
80605f20:	03e00008 	jr	ra
80605f24:	ac450c50 	sw	a1,3152(v0)

80605f28 <comboDrawObject>:
80605f28:	27bdffd8 	addiu	sp,sp,-40
80605f2c:	30c2efff 	andi	v0,a2,0xefff
80605f30:	afb30020 	sw	s3,32(sp)
80605f34:	afb2001c 	sw	s2,28(sp)
80605f38:	afb10018 	sw	s1,24(sp)
80605f3c:	afb00014 	sw	s0,20(sp)
80605f40:	8fb30038 	lw	s3,56(sp)
80605f44:	afbf0024 	sw	ra,36(sp)
80605f48:	00808825 	move	s1,a0
80605f4c:	00a09025 	move	s2,a1
80605f50:	10400006 	beqz	v0,80605f6c <comboDrawObject+0x44>
80605f54:	00e08025 	move	s0,a3
80605f58:	0c182684 	jal	80609a10 <comboGetObject>
80605f5c:	00c02025 	move	a0,a2
80605f60:	8e240000 	lw	a0,0(s1)
80605f64:	0c1817b9 	jal	80605ee4 <comboSetObjectSegment>
80605f68:	00402825 	move	a1,v0
80605f6c:	32620001 	andi	v0,s3,0x1
80605f70:	54400006 	bnezl	v0,80605f8c <comboDrawObject+0x64>
80605f74:	32730002 	andi	s3,s3,0x2
80605f78:	00003025 	move	a2,zero
80605f7c:	02202825 	move	a1,s1
80605f80:	0c00890e 	jal	80022438 <PreDraw1>
80605f84:	02402025 	move	a0,s2
80605f88:	32730002 	andi	s3,s3,0x2
80605f8c:	16600006 	bnez	s3,80605fa8 <comboDrawObject+0x80>
80605f90:	2605ffff 	addiu	a1,s0,-1
80605f94:	00003025 	move	a2,zero
80605f98:	02202825 	move	a1,s1
80605f9c:	0c008955 	jal	80022554 <PreDraw2>
80605fa0:	02402025 	move	a0,s2
80605fa4:	2605ffff 	addiu	a1,s0,-1
80605fa8:	000510c0 	sll	v0,a1,0x3
80605fac:	00451021 	addu	v0,v0,a1
80605fb0:	3c038061 	lui	v1,0x8061
80605fb4:	00021080 	sll	v0,v0,0x2
80605fb8:	24632b60 	addiu	v1,v1,11104
80605fbc:	00431021 	addu	v0,v0,v1
80605fc0:	8fbf0024 	lw	ra,36(sp)
80605fc4:	8fb30020 	lw	s3,32(sp)
80605fc8:	8fb2001c 	lw	s2,28(sp)
80605fcc:	8fb00014 	lw	s0,20(sp)
80605fd0:	00052c00 	sll	a1,a1,0x10
80605fd4:	02202025 	move	a0,s1
80605fd8:	8c590000 	lw	t9,0(v0)
80605fdc:	8fb10018 	lw	s1,24(sp)
80605fe0:	00052c03 	sra	a1,a1,0x10
80605fe4:	03200008 	jr	t9
80605fe8:	27bd0028 	addiu	sp,sp,40

80605fec <comboDrawGI>:
80605fec:	00061040 	sll	v0,a2,0x1
80605ff0:	00461021 	addu	v0,v0,a2
80605ff4:	00021040 	sll	v0,v0,0x1
80605ff8:	3c038061 	lui	v1,0x8061
80605ffc:	27bdffe0 	addiu	sp,sp,-32
80606000:	246350d0 	addiu	v1,v1,20688
80606004:	2442fffa 	addiu	v0,v0,-6
80606008:	00621021 	addu	v0,v1,v0
8060600c:	afbf001c 	sw	ra,28(sp)
80606010:	afa70010 	sw	a3,16(sp)
80606014:	90470002 	lbu	a3,2(v0)
80606018:	0c1817ca 	jal	80605f28 <comboDrawObject>
8060601c:	94460004 	lhu	a2,4(v0)
80606020:	8fbf001c 	lw	ra,28(sp)
80606024:	03e00008 	jr	ra
80606028:	27bd0020 	addiu	sp,sp,32

8060602c <comboDrawInit2D>:
8060602c:	8c820000 	lw	v0,0(a0)
80606030:	3c03d900 	lui	v1,0xd900
80606034:	ac430000 	sw	v1,0(v0)
80606038:	3c03e300 	lui	v1,0xe300
8060603c:	24651a01 	addiu	a1,v1,6657
80606040:	ac450008 	sw	a1,8(v0)
80606044:	24050030 	li	a1,48
80606048:	ac45000c 	sw	a1,12(v0)
8060604c:	24651801 	addiu	a1,v1,6145
80606050:	ac450010 	sw	a1,16(v0)
80606054:	240500c0 	li	a1,192
80606058:	ac450014 	sw	a1,20(v0)
8060605c:	3c05e200 	lui	a1,0xe200
80606060:	24a61e01 	addiu	a2,a1,7681
80606064:	ac460018 	sw	a2,24(v0)
80606068:	24a61d00 	addiu	a2,a1,7424
8060606c:	ac460020 	sw	a2,32(v0)
80606070:	24060004 	li	a2,4
80606074:	ac460024 	sw	a2,36(v0)
80606078:	3c06fc11 	lui	a2,0xfc11
8060607c:	34c69623 	ori	a2,a2,0x9623
80606080:	ac460028 	sw	a2,40(v0)
80606084:	3c06ff2f 	lui	a2,0xff2f
80606088:	34c6ffff 	ori	a2,a2,0xffff
8060608c:	ac46002c 	sw	a2,44(v0)
80606090:	24661700 	addiu	a2,v1,5888
80606094:	ac460030 	sw	a2,48(v0)
80606098:	24661402 	addiu	a2,v1,5122
8060609c:	ac460038 	sw	a2,56(v0)
806060a0:	24060c00 	li	a2,3072
806060a4:	ac46003c 	sw	a2,60(v0)
806060a8:	24660d01 	addiu	a2,v1,3329
806060ac:	ac460040 	sw	a2,64(v0)
806060b0:	24660c00 	addiu	a2,v1,3072
806060b4:	ac460048 	sw	a2,72(v0)
806060b8:	24a5001c 	addiu	a1,a1,28
806060bc:	24660f00 	addiu	a2,v1,3840
806060c0:	ac460050 	sw	a2,80(v0)
806060c4:	ac450070 	sw	a1,112(v0)
806060c8:	24661001 	addiu	a2,v1,4097
806060cc:	3c050050 	lui	a1,0x50
806060d0:	ac460058 	sw	a2,88(v0)
806060d4:	24a54240 	addiu	a1,a1,16960
806060d8:	24660800 	addiu	a2,v1,2048
806060dc:	ac460060 	sw	a2,96(v0)
806060e0:	ac450074 	sw	a1,116(v0)
806060e4:	24660a01 	addiu	a2,v1,2561
806060e8:	24450080 	addiu	a1,v0,128
806060ec:	24631201 	addiu	v1,v1,4609
806060f0:	ac400004 	sw	zero,4(v0)
806060f4:	ac40001c 	sw	zero,28(v0)
806060f8:	ac400034 	sw	zero,52(v0)
806060fc:	ac400044 	sw	zero,68(v0)
80606100:	ac40004c 	sw	zero,76(v0)
80606104:	ac400054 	sw	zero,84(v0)
80606108:	ac40005c 	sw	zero,92(v0)
8060610c:	ac400064 	sw	zero,100(v0)
80606110:	ac460068 	sw	a2,104(v0)
80606114:	ac40006c 	sw	zero,108(v0)
80606118:	ac850000 	sw	a1,0(a0)
8060611c:	ac430078 	sw	v1,120(v0)
80606120:	24032000 	li	v1,8192
80606124:	03e00008 	jr	ra
80606128:	ac43007c 	sw	v1,124(v0)

8060612c <comboDrawBlit2D>:
8060612c:	24c2ffff 	addiu	v0,a2,-1
80606130:	8c830000 	lw	v1,0(a0)
80606134:	30480fff 	andi	t0,v0,0xfff
80606138:	3c09fd18 	lui	t1,0xfd18
8060613c:	01094025 	or	t0,t0,t1
80606140:	ac680010 	sw	t0,16(v1)
80606144:	ac650014 	sw	a1,20(v1)
80606148:	3c080003 	lui	t0,0x3
8060614c:	000629c0 	sll	a1,a2,0x7
80606150:	3508fe00 	ori	t0,t0,0xfe00
80606154:	24a501c0 	addiu	a1,a1,448
80606158:	00a82824 	and	a1,a1,t0
8060615c:	3c08f518 	lui	t0,0xf518
80606160:	00a82825 	or	a1,a1,t0
80606164:	3c08e600 	lui	t0,0xe600
80606168:	ac680020 	sw	t0,32(v1)
8060616c:	3c08f400 	lui	t0,0xf400
80606170:	ac680028 	sw	t0,40(v1)
80606174:	3c0800ff 	lui	t0,0xff
80606178:	3508f000 	ori	t0,t0,0xf000
8060617c:	00021380 	sll	v0,v0,0xe
80606180:	00481024 	and	v0,v0,t0
80606184:	24e8ffff 	addiu	t0,a3,-1
80606188:	00084080 	sll	t0,t0,0x2
8060618c:	31080fff 	andi	t0,t0,0xfff
80606190:	00481025 	or	v0,v0,t0
80606194:	3c090700 	lui	t1,0x700
80606198:	ac69001c 	sw	t1,28(v1)
8060619c:	ac620044 	sw	v0,68(v1)
806061a0:	00494825 	or	t1,v0,t1
806061a4:	3c028061 	lui	v0,0x8061
806061a8:	c440db98 	lwc1	$f0,-9320(v0)
806061ac:	c7a20010 	lwc1	$f2,16(sp)
806061b0:	c7a40014 	lwc1	$f4,20(sp)
806061b4:	00063080 	sll	a2,a2,0x2
806061b8:	46001082 	mul.s	$f2,$f2,$f0
806061bc:	00000000 	nop
806061c0:	c7a60018 	lwc1	$f6,24(sp)
806061c4:	3c0be700 	lui	t3,0xe700
806061c8:	3c0ae800 	lui	t2,0xe800
806061cc:	ac650018 	sw	a1,24(v1)
806061d0:	46002102 	mul.s	$f4,$f4,$f0
806061d4:	00000000 	nop
806061d8:	44860000 	mtc1	a2,$f0
806061dc:	3c068061 	lui	a2,0x8061
806061e0:	46800020 	cvt.s.w	$f0,$f0
806061e4:	c4c8d95c 	lwc1	$f8,-9892(a2)
806061e8:	46060002 	mul.s	$f0,$f0,$f6
806061ec:	00000000 	nop
806061f0:	ac650038 	sw	a1,56(v1)
806061f4:	3c05f200 	lui	a1,0xf200
806061f8:	ac6b0000 	sw	t3,0(v1)
806061fc:	ac600004 	sw	zero,4(v1)
80606200:	46020000 	add.s	$f0,$f0,$f2
80606204:	ac6a0008 	sw	t2,8(v1)
80606208:	ac60000c 	sw	zero,12(v1)
8060620c:	4600403e 	c.le.s	$f8,$f0
80606210:	ac600024 	sw	zero,36(v1)
80606214:	ac69002c 	sw	t1,44(v1)
80606218:	ac6b0030 	sw	t3,48(v1)
8060621c:	ac600034 	sw	zero,52(v1)
80606220:	ac60003c 	sw	zero,60(v1)
80606224:	ac650040 	sw	a1,64(v1)
80606228:	ac6a0048 	sw	t2,72(v1)
8060622c:	45010048 	bc1t	80606350 <comboDrawBlit2D+0x224>
80606230:	ac60004c 	sw	zero,76(v1)
80606234:	4600000d 	trunc.w.s	$f0,$f0
80606238:	44020000 	mfc1	v0,$f0
8060623c:	00073880 	sll	a3,a3,0x2
80606240:	44870000 	mtc1	a3,$f0
80606244:	c4c8d95c 	lwc1	$f8,-9892(a2)
80606248:	46800020 	cvt.s.w	$f0,$f0
8060624c:	46060002 	mul.s	$f0,$f0,$f6
80606250:	00000000 	nop
80606254:	3c0500ff 	lui	a1,0xff
80606258:	00021300 	sll	v0,v0,0xc
8060625c:	34a5f000 	ori	a1,a1,0xf000
80606260:	46040000 	add.s	$f0,$f0,$f4
80606264:	4600403e 	c.le.s	$f8,$f0
80606268:	00000000 	nop
8060626c:	4501003e 	bc1t	80606368 <comboDrawBlit2D+0x23c>
80606270:	00451024 	and	v0,v0,a1
80606274:	4600000d 	trunc.w.s	$f0,$f0
80606278:	44050000 	mfc1	a1,$f0
8060627c:	00000000 	nop
80606280:	30a50fff 	andi	a1,a1,0xfff
80606284:	c4c0d95c 	lwc1	$f0,-9892(a2)
80606288:	00451025 	or	v0,v0,a1
8060628c:	3c05e400 	lui	a1,0xe400
80606290:	00451025 	or	v0,v0,a1
80606294:	4602003e 	c.le.s	$f0,$f2
80606298:	00000000 	nop
8060629c:	45010038 	bc1t	80606380 <comboDrawBlit2D+0x254>
806062a0:	ac620050 	sw	v0,80(v1)
806062a4:	4600100d 	trunc.w.s	$f0,$f2
806062a8:	44020000 	mfc1	v0,$f0
806062ac:	c4c0d95c 	lwc1	$f0,-9892(a2)
806062b0:	3c0500ff 	lui	a1,0xff
806062b4:	00021300 	sll	v0,v0,0xc
806062b8:	34a5f000 	ori	a1,a1,0xf000
806062bc:	4604003e 	c.le.s	$f0,$f4
806062c0:	00000000 	nop
806062c4:	45010034 	bc1t	80606398 <comboDrawBlit2D+0x26c>
806062c8:	00451024 	and	v0,v0,a1
806062cc:	4600200d 	trunc.w.s	$f0,$f4
806062d0:	44050000 	mfc1	a1,$f0
806062d4:	00000000 	nop
806062d8:	30a50fff 	andi	a1,a1,0xfff
806062dc:	00451025 	or	v0,v0,a1
806062e0:	ac620054 	sw	v0,84(v1)
806062e4:	3c02e100 	lui	v0,0xe100
806062e8:	ac620058 	sw	v0,88(v1)
806062ec:	24620068 	addiu	v0,v1,104
806062f0:	ac60005c 	sw	zero,92(v1)
806062f4:	ac820000 	sw	v0,0(a0)
806062f8:	3c02f100 	lui	v0,0xf100
806062fc:	ac620060 	sw	v0,96(v1)
80606300:	3c028061 	lui	v0,0x8061
80606304:	c440d9ec 	lwc1	$f0,-9748(v0)
80606308:	3c028061 	lui	v0,0x8061
8060630c:	46060003 	div.s	$f0,$f0,$f6
80606310:	c442db9c 	lwc1	$f2,-9316(v0)
80606314:	46020002 	mul.s	$f0,$f0,$f2
80606318:	00000000 	nop
8060631c:	c4c2d95c 	lwc1	$f2,-9892(a2)
80606320:	4600103e 	c.le.s	$f2,$f0
80606324:	00000000 	nop
80606328:	45030021 	bc1tl	806063b0 <comboDrawBlit2D+0x284>
8060632c:	46020001 	sub.s	$f0,$f0,$f2
80606330:	4600000d 	trunc.w.s	$f0,$f0
80606334:	44020000 	mfc1	v0,$f0
80606338:	00000000 	nop
8060633c:	00022400 	sll	a0,v0,0x10
80606340:	3042ffff 	andi	v0,v0,0xffff
80606344:	00821025 	or	v0,a0,v0
80606348:	03e00008 	jr	ra
8060634c:	ac620064 	sw	v0,100(v1)
80606350:	46080001 	sub.s	$f0,$f0,$f8
80606354:	3c058000 	lui	a1,0x8000
80606358:	4600000d 	trunc.w.s	$f0,$f0
8060635c:	44020000 	mfc1	v0,$f0
80606360:	1000ffb6 	b	8060623c <comboDrawBlit2D+0x110>
80606364:	00451025 	or	v0,v0,a1
80606368:	46080001 	sub.s	$f0,$f0,$f8
8060636c:	3c078000 	lui	a3,0x8000
80606370:	4600000d 	trunc.w.s	$f0,$f0
80606374:	44050000 	mfc1	a1,$f0
80606378:	1000ffc1 	b	80606280 <comboDrawBlit2D+0x154>
8060637c:	00a72825 	or	a1,a1,a3
80606380:	46001081 	sub.s	$f2,$f2,$f0
80606384:	3c058000 	lui	a1,0x8000
80606388:	4600100d 	trunc.w.s	$f0,$f2
8060638c:	44020000 	mfc1	v0,$f0
80606390:	1000ffc6 	b	806062ac <comboDrawBlit2D+0x180>
80606394:	00451025 	or	v0,v0,a1
80606398:	46002101 	sub.s	$f4,$f4,$f0
8060639c:	3c078000 	lui	a3,0x8000
806063a0:	4600200d 	trunc.w.s	$f0,$f4
806063a4:	44050000 	mfc1	a1,$f0
806063a8:	1000ffcb 	b	806062d8 <comboDrawBlit2D+0x1ac>
806063ac:	00a72825 	or	a1,a1,a3
806063b0:	3c048000 	lui	a0,0x8000
806063b4:	4600000d 	trunc.w.s	$f0,$f0
806063b8:	44020000 	mfc1	v0,$f0
806063bc:	1000ffdf 	b	8060633c <comboDrawBlit2D+0x210>
806063c0:	00441025 	or	v0,v0,a0

806063c4 <comboDrawBlit2D_IA4>:
806063c4:	8c830000 	lw	v1,0(a0)
806063c8:	00061043 	sra	v0,a2,0x1
806063cc:	2448ffff 	addiu	t0,v0,-1
806063d0:	ac650014 	sw	a1,20(v1)
806063d4:	24420007 	addiu	v0,v0,7
806063d8:	3c050003 	lui	a1,0x3
806063dc:	34a5fe00 	ori	a1,a1,0xfe00
806063e0:	00021180 	sll	v0,v0,0x6
806063e4:	00451024 	and	v0,v0,a1
806063e8:	3c05f568 	lui	a1,0xf568
806063ec:	00452825 	or	a1,v0,a1
806063f0:	ac650018 	sw	a1,24(v1)
806063f4:	3c05e600 	lui	a1,0xe600
806063f8:	3c09fd68 	lui	t1,0xfd68
806063fc:	31080fff 	andi	t0,t0,0xfff
80606400:	ac650020 	sw	a1,32(v1)
80606404:	3c05f400 	lui	a1,0xf400
80606408:	01094025 	or	t0,t0,t1
8060640c:	ac650028 	sw	a1,40(v1)
80606410:	24e9ffff 	addiu	t1,a3,-1
80606414:	24c5ffff 	addiu	a1,a2,-1
80606418:	3c0a00ff 	lui	t2,0xff
8060641c:	354af000 	ori	t2,t2,0xf000
80606420:	ac680010 	sw	t0,16(v1)
80606424:	00094880 	sll	t1,t1,0x2
80606428:	00054340 	sll	t0,a1,0xd
8060642c:	31290fff 	andi	t1,t1,0xfff
80606430:	010a4024 	and	t0,t0,t2
80606434:	3c0d0700 	lui	t5,0x700
80606438:	01094025 	or	t0,t0,t1
8060643c:	010d4025 	or	t0,t0,t5
80606440:	ac68002c 	sw	t0,44(v1)
80606444:	3c08f560 	lui	t0,0xf560
80606448:	00481025 	or	v0,v0,t0
8060644c:	ac620038 	sw	v0,56(v1)
80606450:	3c02f200 	lui	v0,0xf200
80606454:	ac620040 	sw	v0,64(v1)
80606458:	3c028061 	lui	v0,0x8061
8060645c:	c440db98 	lwc1	$f0,-9320(v0)
80606460:	c7a20010 	lwc1	$f2,16(sp)
80606464:	c7a40014 	lwc1	$f4,20(sp)
80606468:	00063080 	sll	a2,a2,0x2
8060646c:	46001082 	mul.s	$f2,$f2,$f0
80606470:	00000000 	nop
80606474:	c7a60018 	lwc1	$f6,24(sp)
80606478:	00052b80 	sll	a1,a1,0xe
8060647c:	00aa2824 	and	a1,a1,t2
80606480:	3c0ce700 	lui	t4,0xe700
80606484:	46002102 	mul.s	$f4,$f4,$f0
80606488:	00000000 	nop
8060648c:	44860000 	mtc1	a2,$f0
80606490:	3c068061 	lui	a2,0x8061
80606494:	46800020 	cvt.s.w	$f0,$f0
80606498:	c4c8d95c 	lwc1	$f8,-9892(a2)
8060649c:	46060002 	mul.s	$f0,$f0,$f6
806064a0:	00000000 	nop
806064a4:	3c0be800 	lui	t3,0xe800
806064a8:	00a92825 	or	a1,a1,t1
806064ac:	ac6c0000 	sw	t4,0(v1)
806064b0:	ac600004 	sw	zero,4(v1)
806064b4:	46020000 	add.s	$f0,$f0,$f2
806064b8:	ac6b0008 	sw	t3,8(v1)
806064bc:	ac60000c 	sw	zero,12(v1)
806064c0:	4600403e 	c.le.s	$f8,$f0
806064c4:	ac6d001c 	sw	t5,28(v1)
806064c8:	ac600024 	sw	zero,36(v1)
806064cc:	ac6c0030 	sw	t4,48(v1)
806064d0:	ac600034 	sw	zero,52(v1)
806064d4:	ac60003c 	sw	zero,60(v1)
806064d8:	ac650044 	sw	a1,68(v1)
806064dc:	ac6b0048 	sw	t3,72(v1)
806064e0:	45010048 	bc1t	80606604 <comboDrawBlit2D_IA4+0x240>
806064e4:	ac60004c 	sw	zero,76(v1)
806064e8:	4600000d 	trunc.w.s	$f0,$f0
806064ec:	44020000 	mfc1	v0,$f0
806064f0:	00073880 	sll	a3,a3,0x2
806064f4:	44870000 	mtc1	a3,$f0
806064f8:	c4c8d95c 	lwc1	$f8,-9892(a2)
806064fc:	46800020 	cvt.s.w	$f0,$f0
80606500:	46060002 	mul.s	$f0,$f0,$f6
80606504:	00000000 	nop
80606508:	3c0500ff 	lui	a1,0xff
8060650c:	00021300 	sll	v0,v0,0xc
80606510:	34a5f000 	ori	a1,a1,0xf000
80606514:	46040000 	add.s	$f0,$f0,$f4
80606518:	4600403e 	c.le.s	$f8,$f0
8060651c:	00000000 	nop
80606520:	4501003e 	bc1t	8060661c <comboDrawBlit2D_IA4+0x258>
80606524:	00451024 	and	v0,v0,a1
80606528:	4600000d 	trunc.w.s	$f0,$f0
8060652c:	44050000 	mfc1	a1,$f0
80606530:	00000000 	nop
80606534:	30a50fff 	andi	a1,a1,0xfff
80606538:	c4c0d95c 	lwc1	$f0,-9892(a2)
8060653c:	00451025 	or	v0,v0,a1
80606540:	3c05e400 	lui	a1,0xe400
80606544:	00451025 	or	v0,v0,a1
80606548:	4602003e 	c.le.s	$f0,$f2
8060654c:	00000000 	nop
80606550:	45010038 	bc1t	80606634 <comboDrawBlit2D_IA4+0x270>
80606554:	ac620050 	sw	v0,80(v1)
80606558:	4600100d 	trunc.w.s	$f0,$f2
8060655c:	44020000 	mfc1	v0,$f0
80606560:	c4c0d95c 	lwc1	$f0,-9892(a2)
80606564:	3c0500ff 	lui	a1,0xff
80606568:	00021300 	sll	v0,v0,0xc
8060656c:	34a5f000 	ori	a1,a1,0xf000
80606570:	4604003e 	c.le.s	$f0,$f4
80606574:	00000000 	nop
80606578:	45010034 	bc1t	8060664c <comboDrawBlit2D_IA4+0x288>
8060657c:	00451024 	and	v0,v0,a1
80606580:	4600200d 	trunc.w.s	$f0,$f4
80606584:	44050000 	mfc1	a1,$f0
80606588:	00000000 	nop
8060658c:	30a50fff 	andi	a1,a1,0xfff
80606590:	00451025 	or	v0,v0,a1
80606594:	ac620054 	sw	v0,84(v1)
80606598:	3c02e100 	lui	v0,0xe100
8060659c:	ac620058 	sw	v0,88(v1)
806065a0:	24620068 	addiu	v0,v1,104
806065a4:	ac60005c 	sw	zero,92(v1)
806065a8:	ac820000 	sw	v0,0(a0)
806065ac:	3c02f100 	lui	v0,0xf100
806065b0:	ac620060 	sw	v0,96(v1)
806065b4:	3c028061 	lui	v0,0x8061
806065b8:	c440d9ec 	lwc1	$f0,-9748(v0)
806065bc:	3c028061 	lui	v0,0x8061
806065c0:	46060003 	div.s	$f0,$f0,$f6
806065c4:	c442db9c 	lwc1	$f2,-9316(v0)
806065c8:	46020002 	mul.s	$f0,$f0,$f2
806065cc:	00000000 	nop
806065d0:	c4c2d95c 	lwc1	$f2,-9892(a2)
806065d4:	4600103e 	c.le.s	$f2,$f0
806065d8:	00000000 	nop
806065dc:	45030021 	bc1tl	80606664 <comboDrawBlit2D_IA4+0x2a0>
806065e0:	46020001 	sub.s	$f0,$f0,$f2
806065e4:	4600000d 	trunc.w.s	$f0,$f0
806065e8:	44020000 	mfc1	v0,$f0
806065ec:	00000000 	nop
806065f0:	00022400 	sll	a0,v0,0x10
806065f4:	3042ffff 	andi	v0,v0,0xffff
806065f8:	00821025 	or	v0,a0,v0
806065fc:	03e00008 	jr	ra
80606600:	ac620064 	sw	v0,100(v1)
80606604:	46080001 	sub.s	$f0,$f0,$f8
80606608:	3c058000 	lui	a1,0x8000
8060660c:	4600000d 	trunc.w.s	$f0,$f0
80606610:	44020000 	mfc1	v0,$f0
80606614:	1000ffb6 	b	806064f0 <comboDrawBlit2D_IA4+0x12c>
80606618:	00451025 	or	v0,v0,a1
8060661c:	46080001 	sub.s	$f0,$f0,$f8
80606620:	3c078000 	lui	a3,0x8000
80606624:	4600000d 	trunc.w.s	$f0,$f0
80606628:	44050000 	mfc1	a1,$f0
8060662c:	1000ffc1 	b	80606534 <comboDrawBlit2D_IA4+0x170>
80606630:	00a72825 	or	a1,a1,a3
80606634:	46001081 	sub.s	$f2,$f2,$f0
80606638:	3c058000 	lui	a1,0x8000
8060663c:	4600100d 	trunc.w.s	$f0,$f2
80606640:	44020000 	mfc1	v0,$f0
80606644:	1000ffc6 	b	80606560 <comboDrawBlit2D_IA4+0x19c>
80606648:	00451025 	or	v0,v0,a1
8060664c:	46002101 	sub.s	$f4,$f4,$f0
80606650:	3c078000 	lui	a3,0x8000
80606654:	4600200d 	trunc.w.s	$f0,$f4
80606658:	44050000 	mfc1	a1,$f0
8060665c:	1000ffcb 	b	8060658c <comboDrawBlit2D_IA4+0x1c8>
80606660:	00a72825 	or	a1,a1,a3
80606664:	3c048000 	lui	a0,0x8000
80606668:	4600000d 	trunc.w.s	$f0,$f0
8060666c:	44020000 	mfc1	v0,$f0
80606670:	1000ffdf 	b	806065f0 <comboDrawBlit2D_IA4+0x22c>
80606674:	00441025 	or	v0,v0,a0

80606678 <addHealth>:
80606678:	3c028062 	lui	v0,0x8062
8060667c:	24426a90 	addiu	v0,v0,27280
80606680:	94430036 	lhu	v1,54(v0)
80606684:	94450034 	lhu	a1,52(v0)
80606688:	00042100 	sll	a0,a0,0x4
8060668c:	00832021 	addu	a0,a0,v1
80606690:	00801825 	move	v1,a0
80606694:	00053400 	sll	a2,a1,0x10
80606698:	00042400 	sll	a0,a0,0x10
8060669c:	00042403 	sra	a0,a0,0x10
806066a0:	00063403 	sra	a2,a2,0x10
806066a4:	00c4202a 	slt	a0,a2,a0
806066a8:	54800001 	bnezl	a0,806066b0 <addHealth+0x38>
806066ac:	00a01825 	move	v1,a1
806066b0:	03e00008 	jr	ra
806066b4:	a4430036 	sh	v1,54(v0)

806066b8 <addBombs>:
806066b8:	3c028062 	lui	v0,0x8062
806066bc:	24426a90 	addiu	v0,v0,27280
806066c0:	8c4300b8 	lw	v1,184(v0)
806066c4:	3c058061 	lui	a1,0x8061
806066c8:	000318c2 	srl	v1,v1,0x3
806066cc:	24a529c4 	addiu	a1,a1,10692
806066d0:	30630007 	andi	v1,v1,0x7
806066d4:	00651821 	addu	v1,v1,a1
806066d8:	24050006 	li	a1,6
806066dc:	a0450076 	sb	a1,118(v0)
806066e0:	904500a6 	lbu	a1,166(v0)
806066e4:	90630000 	lbu	v1,0(v1)
806066e8:	00852021 	addu	a0,a0,a1
806066ec:	00042600 	sll	a0,a0,0x18
806066f0:	00042603 	sra	a0,a0,0x18
806066f4:	0064282a 	slt	a1,v1,a0
806066f8:	14a00003 	bnez	a1,80606708 <addBombs+0x50>
806066fc:	00000000 	nop
80606700:	03e00008 	jr	ra
80606704:	a04400a6 	sb	a0,166(v0)
80606708:	03e00008 	jr	ra
8060670c:	a04300a6 	sb	v1,166(v0)

80606710 <addArrows>:
80606710:	3c028062 	lui	v0,0x8062
80606714:	24426a90 	addiu	v0,v0,27280
80606718:	8c4300b8 	lw	v1,184(v0)
8060671c:	3c058061 	lui	a1,0x8061
80606720:	24a529c0 	addiu	a1,a1,10688
80606724:	30630007 	andi	v1,v1,0x7
80606728:	00651821 	addu	v1,v1,a1
8060672c:	24050001 	li	a1,1
80606730:	a0450071 	sb	a1,113(v0)
80606734:	904500a1 	lbu	a1,161(v0)
80606738:	90630000 	lbu	v1,0(v1)
8060673c:	00852021 	addu	a0,a0,a1
80606740:	00042600 	sll	a0,a0,0x18
80606744:	00042603 	sra	a0,a0,0x18
80606748:	0064282a 	slt	a1,v1,a0
8060674c:	14a00003 	bnez	a1,8060675c <addArrows+0x4c>
80606750:	00000000 	nop
80606754:	03e00008 	jr	ra
80606758:	a04400a1 	sb	a0,161(v0)
8060675c:	03e00008 	jr	ra
80606760:	a04300a1 	sb	v1,161(v0)

80606764 <addNuts>:
80606764:	3c028062 	lui	v0,0x8062
80606768:	24426a90 	addiu	v0,v0,27280
8060676c:	24030009 	li	v1,9
80606770:	a0430079 	sb	v1,121(v0)
80606774:	904300a9 	lbu	v1,169(v0)
80606778:	00832021 	addu	a0,a0,v1
8060677c:	00801825 	move	v1,a0
80606780:	00042600 	sll	a0,a0,0x18
80606784:	00042603 	sra	a0,a0,0x18
80606788:	28840015 	slti	a0,a0,21
8060678c:	50800001 	beqzl	a0,80606794 <addNuts+0x30>
80606790:	24030014 	li	v1,20
80606794:	03e00008 	jr	ra
80606798:	a04300a9 	sb	v1,169(v0)

8060679c <addBombchu>:
8060679c:	3c028062 	lui	v0,0x8062
806067a0:	24426a90 	addiu	v0,v0,27280
806067a4:	24030007 	li	v1,7
806067a8:	a0430077 	sb	v1,119(v0)
806067ac:	904300a7 	lbu	v1,167(v0)
806067b0:	00832021 	addu	a0,a0,v1
806067b4:	00801825 	move	v1,a0
806067b8:	00042600 	sll	a0,a0,0x18
806067bc:	00042603 	sra	a0,a0,0x18
806067c0:	28840029 	slti	a0,a0,41
806067c4:	50800001 	beqzl	a0,806067cc <addBombchu+0x30>
806067c8:	24030028 	li	v1,40
806067cc:	03e00008 	jr	ra
806067d0:	a04300a7 	sb	v1,167(v0)

806067d4 <addNewBottle>:
806067d4:	3c028062 	lui	v0,0x8062
806067d8:	24426a90 	addiu	v0,v0,27280
806067dc:	24030012 	li	v1,18
806067e0:	00402825 	move	a1,v0
806067e4:	240700ff 	li	a3,255
806067e8:	24060018 	li	a2,24
806067ec:	90480082 	lbu	t0,130(v0)
806067f0:	55070004 	bnel	t0,a3,80606804 <addNewBottle+0x30>
806067f4:	24630001 	addiu	v1,v1,1
806067f8:	00a32821 	addu	a1,a1,v1
806067fc:	03e00008 	jr	ra
80606800:	a0a40070 	sb	a0,112(a1)
80606804:	1466fff9 	bne	v1,a2,806067ec <addNewBottle+0x18>
80606808:	24420001 	addiu	v0,v0,1
8060680c:	03e00008 	jr	ra
80606810:	00000000 	nop

80606814 <fillBottle>:
80606814:	3c058062 	lui	a1,0x8062
80606818:	24a56a90 	addiu	a1,a1,27280
8060681c:	24020012 	li	v0,18
80606820:	00a01825 	move	v1,a1
80606824:	24070012 	li	a3,18
80606828:	24060018 	li	a2,24
8060682c:	90a80082 	lbu	t0,130(a1)
80606830:	51070008 	beql	t0,a3,80606854 <fillBottle+0x40>
80606834:	00622821 	addu	a1,v1,v0
80606838:	24420001 	addiu	v0,v0,1
8060683c:	1446fffb 	bne	v0,a2,8060682c <fillBottle+0x18>
80606840:	24a50001 	addiu	a1,a1,1
80606844:	03e00008 	jr	ra
80606848:	00000000 	nop
8060684c:	03e00008 	jr	ra
80606850:	a064004f 	sb	a0,79(v1)
80606854:	308400ff 	andi	a0,a0,0xff
80606858:	a0a40070 	sb	a0,112(a1)
8060685c:	9065005d 	lbu	a1,93(v1)
80606860:	50450001 	beql	v0,a1,80606868 <fillBottle+0x54>
80606864:	a064004d 	sb	a0,77(v1)
80606868:	9065005e 	lbu	a1,94(v1)
8060686c:	50450001 	beql	v0,a1,80606874 <fillBottle+0x60>
80606870:	a064004e 	sb	a0,78(v1)
80606874:	9065005f 	lbu	a1,95(v1)
80606878:	1045fff4 	beq	v0,a1,8060684c <fillBottle+0x38>
8060687c:	00000000 	nop
80606880:	03e00008 	jr	ra
80606884:	00000000 	nop

80606888 <addRupees>:
80606888:	3c038062 	lui	v1,0x8062
8060688c:	24636a90 	addiu	v1,v1,27280
80606890:	8c6200b8 	lw	v0,184(v1)
80606894:	3c058061 	lui	a1,0x8061
80606898:	000212c2 	srl	v0,v0,0xb
8060689c:	24a529b4 	addiu	a1,a1,10676
806068a0:	30420006 	andi	v0,v0,0x6
806068a4:	00451021 	addu	v0,v0,a1
806068a8:	9465003a 	lhu	a1,58(v1)
806068ac:	94420000 	lhu	v0,0(v0)
806068b0:	00852021 	addu	a0,a0,a1
806068b4:	00042400 	sll	a0,a0,0x10
806068b8:	00042403 	sra	a0,a0,0x10
806068bc:	0044282a 	slt	a1,v0,a0
806068c0:	14a00003 	bnez	a1,806068d0 <addRupees+0x48>
806068c4:	00000000 	nop
806068c8:	03e00008 	jr	ra
806068cc:	a464003a 	sh	a0,58(v1)
806068d0:	03e00008 	jr	ra
806068d4:	a462003a 	sh	v0,58(v1)

806068d8 <addTrade1>:
806068d8:	3c038062 	lui	v1,0x8062
806068dc:	24636a90 	addiu	v1,v1,27280
806068e0:	90650075 	lbu	a1,117(v1)
806068e4:	240200ff 	li	v0,255
806068e8:	54a20007 	bnel	a1,v0,80606908 <addTrade1+0x30>
806068ec:	8c650144 	lw	a1,324(v1)
806068f0:	3c028061 	lui	v0,0x8061
806068f4:	2442df40 	addiu	v0,v0,-8384
806068f8:	00441021 	addu	v0,v0,a0
806068fc:	90420000 	lbu	v0,0(v0)
80606900:	a0620075 	sb	v0,117(v1)
80606904:	8c650144 	lw	a1,324(v1)
80606908:	24020001 	li	v0,1
8060690c:	00822004 	sllv	a0,v0,a0
80606910:	00042600 	sll	a0,a0,0x18
80606914:	00051482 	srl	v0,a1,0x12
80606918:	00042603 	sra	a0,a0,0x18
8060691c:	3042001f 	andi	v0,v0,0x1f
80606920:	00052ec2 	srl	a1,a1,0x1b
80606924:	00821025 	or	v0,a0,v0
80606928:	00852025 	or	a0,a0,a1
8060692c:	000422c0 	sll	a0,a0,0xb
80606930:	00021080 	sll	v0,v0,0x2
80606934:	00441025 	or	v0,v0,a0
80606938:	2404f87c 	li	a0,-1924
8060693c:	00441024 	and	v0,v0,a0
80606940:	94640144 	lhu	a0,324(v1)
80606944:	30840783 	andi	a0,a0,0x783
80606948:	00441025 	or	v0,v0,a0
8060694c:	03e00008 	jr	ra
80606950:	a4620144 	sh	v0,324(v1)

80606954 <addTrade2>:
80606954:	3c038062 	lui	v1,0x8062
80606958:	24636a90 	addiu	v1,v1,27280
8060695c:	9065007b 	lbu	a1,123(v1)
80606960:	240200ff 	li	v0,255
80606964:	54a20007 	bnel	a1,v0,80606984 <addTrade2+0x30>
80606968:	8c650144 	lw	a1,324(v1)
8060696c:	3c028061 	lui	v0,0x8061
80606970:	2442df3c 	addiu	v0,v0,-8388
80606974:	00441021 	addu	v0,v0,a0
80606978:	90420000 	lbu	v0,0(v0)
8060697c:	a062007b 	sb	v0,123(v1)
80606980:	8c650144 	lw	a1,324(v1)
80606984:	24020001 	li	v0,1
80606988:	00822004 	sllv	a0,v0,a0
8060698c:	00042600 	sll	a0,a0,0x18
80606990:	00051642 	srl	v0,a1,0x19
80606994:	00042603 	sra	a0,a0,0x18
80606998:	30420003 	andi	v0,v0,0x3
8060699c:	00052c02 	srl	a1,a1,0x10
806069a0:	00821025 	or	v0,a0,v0
806069a4:	30a50003 	andi	a1,a1,0x3
806069a8:	00852025 	or	a0,a0,a1
806069ac:	00021240 	sll	v0,v0,0x9
806069b0:	00441025 	or	v0,v0,a0
806069b4:	94640144 	lhu	a0,324(v1)
806069b8:	30420603 	andi	v0,v0,0x603
806069bc:	3084f9fc 	andi	a0,a0,0xf9fc
806069c0:	00441025 	or	v0,v0,a0
806069c4:	03e00008 	jr	ra
806069c8:	a4620144 	sh	v0,324(v1)

806069cc <addTrade3>:
806069cc:	3c038062 	lui	v1,0x8062
806069d0:	24636a90 	addiu	v1,v1,27280
806069d4:	90650081 	lbu	a1,129(v1)
806069d8:	240200ff 	li	v0,255
806069dc:	54a20007 	bnel	a1,v0,806069fc <addTrade3+0x30>
806069e0:	8c650144 	lw	a1,324(v1)
806069e4:	3c028061 	lui	v0,0x8061
806069e8:	2442df38 	addiu	v0,v0,-8392
806069ec:	00441021 	addu	v0,v0,a0
806069f0:	90420000 	lbu	v0,0(v0)
806069f4:	a0620081 	sb	v0,129(v1)
806069f8:	8c650144 	lw	a1,324(v1)
806069fc:	24020001 	li	v0,1
80606a00:	00822004 	sllv	a0,v0,a0
80606a04:	000535c2 	srl	a2,a1,0x17
80606a08:	00051382 	srl	v0,a1,0xe
80606a0c:	00042600 	sll	a0,a0,0x18
80606a10:	00042603 	sra	a0,a0,0x18
80606a14:	30420003 	andi	v0,v0,0x3
80606a18:	30c60003 	andi	a2,a2,0x3
80606a1c:	00821025 	or	v0,a0,v0
80606a20:	00862025 	or	a0,a0,a2
80606a24:	000425c0 	sll	a0,a0,0x17
80606a28:	00021380 	sll	v0,v0,0xe
80606a2c:	00441025 	or	v0,v0,a0
80606a30:	3c040180 	lui	a0,0x180
80606a34:	3484c000 	ori	a0,a0,0xc000
80606a38:	00441024 	and	v0,v0,a0
80606a3c:	3c04fe7f 	lui	a0,0xfe7f
80606a40:	24843fff 	addiu	a0,a0,16383
80606a44:	00a42824 	and	a1,a1,a0
80606a48:	00451025 	or	v0,v0,a1
80606a4c:	03e00008 	jr	ra
80606a50:	ac620144 	sw	v0,324(v1)

80606a54 <comboAddSmallKeyMm>:
80606a54:	3c028062 	lui	v0,0x8062
80606a58:	24426a90 	addiu	v0,v0,27280
80606a5c:	00441821 	addu	v1,v0,a0
80606a60:	806300ca 	lb	v1,202(v1)
80606a64:	04600004 	bltz	v1,80606a78 <comboAddSmallKeyMm+0x24>
80606a68:	24050001 	li	a1,1
80606a6c:	24630001 	addiu	v1,v1,1
80606a70:	00032e00 	sll	a1,v1,0x18
80606a74:	00052e03 	sra	a1,a1,0x18
80606a78:	00442021 	addu	a0,v0,a0
80606a7c:	908200c0 	lbu	v0,192(a0)
80606a80:	a08500ca 	sb	a1,202(a0)
80606a84:	24420008 	addiu	v0,v0,8
80606a88:	03e00008 	jr	ra
80606a8c:	a08200c0 	sb	v0,192(a0)

80606a90 <comboAddBossKeyMm>:
80606a90:	3c028062 	lui	v0,0x8062
80606a94:	24426a90 	addiu	v0,v0,27280
80606a98:	00442021 	addu	a0,v0,a0
80606a9c:	908200c0 	lbu	v0,192(a0)
80606aa0:	34420001 	ori	v0,v0,0x1
80606aa4:	03e00008 	jr	ra
80606aa8:	a08200c0 	sb	v0,192(a0)

80606aac <comboAddStrayFairyMm>:
80606aac:	3c028062 	lui	v0,0x8062
80606ab0:	24030004 	li	v1,4
80606ab4:	14830006 	bne	a0,v1,80606ad0 <comboAddStrayFairyMm+0x24>
80606ab8:	24426a90 	addiu	v0,v0,27280
80606abc:	90430f00 	lbu	v1,3840(v0)
80606ac0:	2404ff80 	li	a0,-128
80606ac4:	00641825 	or	v1,v1,a0
80606ac8:	03e00008 	jr	ra
80606acc:	a0430f00 	sb	v1,3840(v0)
80606ad0:	00442021 	addu	a0,v0,a0
80606ad4:	908200d4 	lbu	v0,212(a0)
80606ad8:	24420001 	addiu	v0,v0,1
80606adc:	03e00008 	jr	ra
80606ae0:	a08200d4 	sb	v0,212(a0)

80606ae4 <comboAddMapMm>:
80606ae4:	3c028062 	lui	v0,0x8062
80606ae8:	24426a90 	addiu	v0,v0,27280
80606aec:	00442021 	addu	a0,v0,a0
80606af0:	908200c0 	lbu	v0,192(a0)
80606af4:	34420004 	ori	v0,v0,0x4
80606af8:	03e00008 	jr	ra
80606afc:	a08200c0 	sb	v0,192(a0)

80606b00 <comboAddCompassMm>:
80606b00:	3c028062 	lui	v0,0x8062
80606b04:	24426a90 	addiu	v0,v0,27280
80606b08:	00442021 	addu	a0,v0,a0
80606b0c:	908200c0 	lbu	v0,192(a0)
80606b10:	34420002 	ori	v0,v0,0x2
80606b14:	03e00008 	jr	ra
80606b18:	a08200c0 	sb	v0,192(a0)

80606b1c <comboAddItemMm>:
80606b1c:	2484ffff 	addiu	a0,a0,-1
80606b20:	3084ffff 	andi	a0,a0,0xffff
80606b24:	2c8200e6 	sltiu	v0,a0,230
80606b28:	1040029c 	beqz	v0,8060759c <comboAddItemMm+0xa80>
80606b2c:	3c028061 	lui	v0,0x8061
80606b30:	00042080 	sll	a0,a0,0x2
80606b34:	2442dba0 	addiu	v0,v0,-9312
80606b38:	00441021 	addu	v0,v0,a0
80606b3c:	8c420000 	lw	v0,0(v0)
80606b40:	00400008 	jr	v0
80606b44:	00000000 	nop
80606b48:	3c028062 	lui	v0,0x8062
80606b4c:	03e00008 	jr	ra
80606b50:	a0406b00 	sb	zero,27392(v0)
80606b54:	3c028062 	lui	v0,0x8062
80606b58:	24030002 	li	v1,2
80606b5c:	03e00008 	jr	ra
80606b60:	a0436b02 	sb	v1,27394(v0)
80606b64:	3c028062 	lui	v0,0x8062
80606b68:	24030003 	li	v1,3
80606b6c:	03e00008 	jr	ra
80606b70:	a0436b03 	sb	v1,27395(v0)
80606b74:	3c028062 	lui	v0,0x8062
80606b78:	24030004 	li	v1,4
80606b7c:	03e00008 	jr	ra
80606b80:	a0436b04 	sb	v1,27396(v0)
80606b84:	3c028062 	lui	v0,0x8062
80606b88:	24426a90 	addiu	v0,v0,27280
80606b8c:	2403000a 	li	v1,10
80606b90:	a043007a 	sb	v1,122(v0)
80606b94:	904300aa 	lbu	v1,170(v0)
80606b98:	24630001 	addiu	v1,v1,1
80606b9c:	03e00008 	jr	ra
80606ba0:	a04300aa 	sb	v1,170(v0)
80606ba4:	3c028062 	lui	v0,0x8062
80606ba8:	24426a90 	addiu	v0,v0,27280
80606bac:	2403000c 	li	v1,12
80606bb0:	a043007c 	sb	v1,124(v0)
80606bb4:	24030001 	li	v1,1
80606bb8:	03e00008 	jr	ra
80606bbc:	a04300ac 	sb	v1,172(v0)
80606bc0:	3c028062 	lui	v0,0x8062
80606bc4:	2403000d 	li	v1,13
80606bc8:	03e00008 	jr	ra
80606bcc:	a0436b0d 	sb	v1,27405(v0)
80606bd0:	3c028062 	lui	v0,0x8062
80606bd4:	2403000e 	li	v1,14
80606bd8:	03e00008 	jr	ra
80606bdc:	a0436b0e 	sb	v1,27406(v0)
80606be0:	3c028062 	lui	v0,0x8062
80606be4:	2403000f 	li	v1,15
80606be8:	03e00008 	jr	ra
80606bec:	a0436b0f 	sb	v1,27407(v0)
80606bf0:	3c028062 	lui	v0,0x8062
80606bf4:	24030010 	li	v1,16
80606bf8:	03e00008 	jr	ra
80606bfc:	a0436b10 	sb	v1,27408(v0)
80606c00:	081819f5 	j	806067d4 <addNewBottle>
80606c04:	24040012 	li	a0,18
80606c08:	081819f5 	j	806067d4 <addNewBottle>
80606c0c:	24040018 	li	a0,24
80606c10:	081819f5 	j	806067d4 <addNewBottle>
80606c14:	24040022 	li	a0,34
80606c18:	081819f5 	j	806067d4 <addNewBottle>
80606c1c:	24040025 	li	a0,37
80606c20:	081819f5 	j	806067d4 <addNewBottle>
80606c24:	24040013 	li	a0,19
80606c28:	08181a05 	j	80606814 <fillBottle>
80606c2c:	24040013 	li	a0,19
80606c30:	08181a05 	j	80606814 <fillBottle>
80606c34:	24040015 	li	a0,21
80606c38:	08181a05 	j	80606814 <fillBottle>
80606c3c:	24040014 	li	a0,20
80606c40:	08181a05 	j	80606814 <fillBottle>
80606c44:	24040024 	li	a0,36
80606c48:	08181a05 	j	80606814 <fillBottle>
80606c4c:	24040018 	li	a0,24
80606c50:	08181a05 	j	80606814 <fillBottle>
80606c54:	24040025 	li	a0,37
80606c58:	081819ae 	j	806066b8 <addBombs>
80606c5c:	24040001 	li	a0,1
80606c60:	081819ae 	j	806066b8 <addBombs>
80606c64:	24040005 	li	a0,5
80606c68:	081819ae 	j	806066b8 <addBombs>
80606c6c:	2404000a 	li	a0,10
80606c70:	081819ae 	j	806066b8 <addBombs>
80606c74:	24040014 	li	a0,20
80606c78:	081819ae 	j	806066b8 <addBombs>
80606c7c:	2404001e 	li	a0,30
80606c80:	081819c4 	j	80606710 <addArrows>
80606c84:	2404000a 	li	a0,10
80606c88:	081819c4 	j	80606710 <addArrows>
80606c8c:	2404001e 	li	a0,30
80606c90:	081819c4 	j	80606710 <addArrows>
80606c94:	24040028 	li	a0,40
80606c98:	081819d9 	j	80606764 <addNuts>
80606c9c:	24040001 	li	a0,1
80606ca0:	081819d9 	j	80606764 <addNuts>
80606ca4:	24040005 	li	a0,5
80606ca8:	081819d9 	j	80606764 <addNuts>
80606cac:	2404000a 	li	a0,10
80606cb0:	3c028062 	lui	v0,0x8062
80606cb4:	24426a90 	addiu	v0,v0,27280
80606cb8:	24030008 	li	v1,8
80606cbc:	a0430078 	sb	v1,120(v0)
80606cc0:	904300a8 	lbu	v1,168(v0)
80606cc4:	24630001 	addiu	v1,v1,1
80606cc8:	00031e00 	sll	v1,v1,0x18
80606ccc:	00031e03 	sra	v1,v1,0x18
80606cd0:	2864000b 	slti	a0,v1,11
80606cd4:	50800003 	beqzl	a0,80606ce4 <comboAddItemMm+0x1c8>
80606cd8:	2403000a 	li	v1,10
80606cdc:	03e00008 	jr	ra
80606ce0:	a04300a8 	sb	v1,168(v0)
80606ce4:	03e00008 	jr	ra
80606ce8:	a04300a8 	sb	v1,168(v0)
80606cec:	081819e7 	j	8060679c <addBombchu>
80606cf0:	24040001 	li	a0,1
80606cf4:	081819e7 	j	8060679c <addBombchu>
80606cf8:	24040005 	li	a0,5
80606cfc:	081819e7 	j	8060679c <addBombchu>
80606d00:	2404000a 	li	a0,10
80606d04:	081819e7 	j	8060679c <addBombchu>
80606d08:	24040014 	li	a0,20
80606d0c:	08181a36 	j	806068d8 <addTrade1>
80606d10:	00002025 	move	a0,zero
80606d14:	08181a36 	j	806068d8 <addTrade1>
80606d18:	24040001 	li	a0,1
80606d1c:	08181a36 	j	806068d8 <addTrade1>
80606d20:	24040002 	li	a0,2
80606d24:	08181a36 	j	806068d8 <addTrade1>
80606d28:	24040003 	li	a0,3
80606d2c:	08181a36 	j	806068d8 <addTrade1>
80606d30:	24040004 	li	a0,4
80606d34:	08181a55 	j	80606954 <addTrade2>
80606d38:	00002025 	move	a0,zero
80606d3c:	08181a55 	j	80606954 <addTrade2>
80606d40:	24040001 	li	a0,1
80606d44:	08181a73 	j	806069cc <addTrade3>
80606d48:	00002025 	move	a0,zero
80606d4c:	08181a73 	j	806069cc <addTrade3>
80606d50:	24040001 	li	a0,1
80606d54:	3c028062 	lui	v0,0x8062
80606d58:	2403003e 	li	v1,62
80606d5c:	03e00008 	jr	ra
80606d60:	a0436b18 	sb	v1,27416(v0)
80606d64:	3c028062 	lui	v0,0x8062
80606d68:	24030038 	li	v1,56
80606d6c:	03e00008 	jr	ra
80606d70:	a0436b19 	sb	v1,27417(v0)
80606d74:	3c028062 	lui	v0,0x8062
80606d78:	24030047 	li	v1,71
80606d7c:	03e00008 	jr	ra
80606d80:	a0436b1a 	sb	v1,27418(v0)
80606d84:	3c028062 	lui	v0,0x8062
80606d88:	24030045 	li	v1,69
80606d8c:	03e00008 	jr	ra
80606d90:	a0436b1b 	sb	v1,27419(v0)
80606d94:	3c028062 	lui	v0,0x8062
80606d98:	24030040 	li	v1,64
80606d9c:	03e00008 	jr	ra
80606da0:	a0436b1c 	sb	v1,27420(v0)
80606da4:	3c028062 	lui	v0,0x8062
80606da8:	24030032 	li	v1,50
80606dac:	03e00008 	jr	ra
80606db0:	a0436b1d 	sb	v1,27421(v0)
80606db4:	3c028062 	lui	v0,0x8062
80606db8:	2403003a 	li	v1,58
80606dbc:	03e00008 	jr	ra
80606dc0:	a0436b1e 	sb	v1,27422(v0)
80606dc4:	3c028062 	lui	v0,0x8062
80606dc8:	24030046 	li	v1,70
80606dcc:	03e00008 	jr	ra
80606dd0:	a0436b1f 	sb	v1,27423(v0)
80606dd4:	3c028062 	lui	v0,0x8062
80606dd8:	24030039 	li	v1,57
80606ddc:	03e00008 	jr	ra
80606de0:	a0436b20 	sb	v1,27424(v0)
80606de4:	3c028062 	lui	v0,0x8062
80606de8:	24030042 	li	v1,66
80606dec:	03e00008 	jr	ra
80606df0:	a0436b21 	sb	v1,27425(v0)
80606df4:	3c028062 	lui	v0,0x8062
80606df8:	24030048 	li	v1,72
80606dfc:	03e00008 	jr	ra
80606e00:	a0436b22 	sb	v1,27426(v0)
80606e04:	3c028062 	lui	v0,0x8062
80606e08:	24030033 	li	v1,51
80606e0c:	03e00008 	jr	ra
80606e10:	a0436b23 	sb	v1,27427(v0)
80606e14:	3c028062 	lui	v0,0x8062
80606e18:	2403003c 	li	v1,60
80606e1c:	03e00008 	jr	ra
80606e20:	a0436b24 	sb	v1,27428(v0)
80606e24:	3c028062 	lui	v0,0x8062
80606e28:	2403003d 	li	v1,61
80606e2c:	03e00008 	jr	ra
80606e30:	a0436b25 	sb	v1,27429(v0)
80606e34:	3c028062 	lui	v0,0x8062
80606e38:	24030037 	li	v1,55
80606e3c:	03e00008 	jr	ra
80606e40:	a0436b26 	sb	v1,27430(v0)
80606e44:	3c028062 	lui	v0,0x8062
80606e48:	2403003f 	li	v1,63
80606e4c:	03e00008 	jr	ra
80606e50:	a0436b27 	sb	v1,27431(v0)
80606e54:	3c028062 	lui	v0,0x8062
80606e58:	24030036 	li	v1,54
80606e5c:	03e00008 	jr	ra
80606e60:	a0436b28 	sb	v1,27432(v0)
80606e64:	3c028062 	lui	v0,0x8062
80606e68:	24030034 	li	v1,52
80606e6c:	03e00008 	jr	ra
80606e70:	a0436b29 	sb	v1,27433(v0)
80606e74:	3c028062 	lui	v0,0x8062
80606e78:	24030043 	li	v1,67
80606e7c:	03e00008 	jr	ra
80606e80:	a0436b2a 	sb	v1,27434(v0)
80606e84:	3c028062 	lui	v0,0x8062
80606e88:	24030041 	li	v1,65
80606e8c:	03e00008 	jr	ra
80606e90:	a0436b2b 	sb	v1,27435(v0)
80606e94:	3c028062 	lui	v0,0x8062
80606e98:	2403003b 	li	v1,59
80606e9c:	03e00008 	jr	ra
80606ea0:	a0436b2c 	sb	v1,27436(v0)
80606ea4:	3c028062 	lui	v0,0x8062
80606ea8:	24030044 	li	v1,68
80606eac:	03e00008 	jr	ra
80606eb0:	a0436b2d 	sb	v1,27437(v0)
80606eb4:	3c028062 	lui	v0,0x8062
80606eb8:	24030049 	li	v1,73
80606ebc:	03e00008 	jr	ra
80606ec0:	a0436b2e 	sb	v1,27438(v0)
80606ec4:	3c028062 	lui	v0,0x8062
80606ec8:	24030035 	li	v1,53
80606ecc:	03e00008 	jr	ra
80606ed0:	a0436b2f 	sb	v1,27439(v0)
80606ed4:	3c028062 	lui	v0,0x8062
80606ed8:	24426a90 	addiu	v0,v0,27280
80606edc:	24030001 	li	v1,1
80606ee0:	10a001ae 	beqz	a1,8060759c <comboAddItemMm+0xa80>
80606ee4:	a0430040 	sb	v1,64(v0)
80606ee8:	24030130 	li	v1,304
80606eec:	03e00008 	jr	ra
80606ef0:	a4430038 	sh	v1,56(v0)
80606ef4:	3c028062 	lui	v0,0x8062
80606ef8:	24426a90 	addiu	v0,v0,27280
80606efc:	24030101 	li	v1,257
80606f00:	10a001a6 	beqz	a1,8060759c <comboAddItemMm+0xa80>
80606f04:	a4430040 	sh	v1,64(v0)
80606f08:	24030260 	li	v1,608
80606f0c:	03e00008 	jr	ra
80606f10:	a4430038 	sh	v1,56(v0)
80606f14:	3c028062 	lui	v0,0x8062
80606f18:	24426a90 	addiu	v0,v0,27280
80606f1c:	2403004d 	li	v1,77
80606f20:	a043004c 	sb	v1,76(v0)
80606f24:	9443006c 	lhu	v1,108(v0)
80606f28:	3063fff0 	andi	v1,v1,0xfff0
80606f2c:	34630001 	ori	v1,v1,0x1
80606f30:	03e00008 	jr	ra
80606f34:	a443006c 	sh	v1,108(v0)
80606f38:	3c028062 	lui	v0,0x8062
80606f3c:	24426a90 	addiu	v0,v0,27280
80606f40:	2403004e 	li	v1,78
80606f44:	a043004c 	sb	v1,76(v0)
80606f48:	9443006c 	lhu	v1,108(v0)
80606f4c:	3063fff0 	andi	v1,v1,0xfff0
80606f50:	34630002 	ori	v1,v1,0x2
80606f54:	a443006c 	sh	v1,108(v0)
80606f58:	24030064 	li	v1,100
80606f5c:	03e00008 	jr	ra
80606f60:	a443003c 	sh	v1,60(v0)
80606f64:	3c028062 	lui	v0,0x8062
80606f68:	24426a90 	addiu	v0,v0,27280
80606f6c:	2403004f 	li	v1,79
80606f70:	a043004c 	sb	v1,76(v0)
80606f74:	9443006c 	lhu	v1,108(v0)
80606f78:	3063fff0 	andi	v1,v1,0xfff0
80606f7c:	34630003 	ori	v1,v1,0x3
80606f80:	03e00008 	jr	ra
80606f84:	a443006c 	sh	v1,108(v0)
80606f88:	3c028062 	lui	v0,0x8062
80606f8c:	24426a90 	addiu	v0,v0,27280
80606f90:	8c43017c 	lw	v1,380(v0)
80606f94:	34631000 	ori	v1,v1,0x1000
80606f98:	ac43017c 	sw	v1,380(v0)
80606f9c:	3c038062 	lui	v1,0x8062
80606fa0:	24636a90 	addiu	v1,v1,27280
80606fa4:	9462006c 	lhu	v0,108(v1)
80606fa8:	3042ffcf 	andi	v0,v0,0xffcf
80606fac:	34420010 	ori	v0,v0,0x10
80606fb0:	03e00008 	jr	ra
80606fb4:	a462006c 	sh	v0,108(v1)
80606fb8:	3c038062 	lui	v1,0x8062
80606fbc:	24636a90 	addiu	v1,v1,27280
80606fc0:	9462006c 	lhu	v0,108(v1)
80606fc4:	3042ffcf 	andi	v0,v0,0xffcf
80606fc8:	34420020 	ori	v0,v0,0x20
80606fcc:	03e00008 	jr	ra
80606fd0:	a462006c 	sh	v0,108(v1)
80606fd4:	3c028062 	lui	v0,0x8062
80606fd8:	24426a90 	addiu	v0,v0,27280
80606fdc:	24030006 	li	v1,6
80606fe0:	a0430076 	sb	v1,118(v0)
80606fe4:	8c4300b8 	lw	v1,184(v0)
80606fe8:	2404ffc7 	li	a0,-57
80606fec:	00641824 	and	v1,v1,a0
80606ff0:	34630008 	ori	v1,v1,0x8
80606ff4:	ac4300b8 	sw	v1,184(v0)
80606ff8:	3c038061 	lui	v1,0x8061
80606ffc:	906329c5 	lbu	v1,10693(v1)
80607000:	03e00008 	jr	ra
80607004:	a04300a6 	sb	v1,166(v0)
80607008:	3c028062 	lui	v0,0x8062
8060700c:	24426a90 	addiu	v0,v0,27280
80607010:	24030006 	li	v1,6
80607014:	a0430076 	sb	v1,118(v0)
80607018:	8c4300b8 	lw	v1,184(v0)
8060701c:	2404ffc7 	li	a0,-57
80607020:	00641824 	and	v1,v1,a0
80607024:	34630010 	ori	v1,v1,0x10
80607028:	ac4300b8 	sw	v1,184(v0)
8060702c:	3c038061 	lui	v1,0x8061
80607030:	906329c6 	lbu	v1,10694(v1)
80607034:	03e00008 	jr	ra
80607038:	a04300a6 	sb	v1,166(v0)
8060703c:	3c028062 	lui	v0,0x8062
80607040:	24426a90 	addiu	v0,v0,27280
80607044:	24030006 	li	v1,6
80607048:	a0430076 	sb	v1,118(v0)
8060704c:	8c4300b8 	lw	v1,184(v0)
80607050:	2404ffc7 	li	a0,-57
80607054:	00641824 	and	v1,v1,a0
80607058:	34630018 	ori	v1,v1,0x18
8060705c:	ac4300b8 	sw	v1,184(v0)
80607060:	3c038061 	lui	v1,0x8061
80607064:	906329c7 	lbu	v1,10695(v1)
80607068:	03e00008 	jr	ra
8060706c:	a04300a6 	sb	v1,166(v0)
80607070:	3c028062 	lui	v0,0x8062
80607074:	24426a90 	addiu	v0,v0,27280
80607078:	24030001 	li	v1,1
8060707c:	a0430071 	sb	v1,113(v0)
80607080:	8c4300b8 	lw	v1,184(v0)
80607084:	2404fff8 	li	a0,-8
80607088:	00641824 	and	v1,v1,a0
8060708c:	34630001 	ori	v1,v1,0x1
80607090:	ac4300b8 	sw	v1,184(v0)
80607094:	3c038061 	lui	v1,0x8061
80607098:	906329c1 	lbu	v1,10689(v1)
8060709c:	03e00008 	jr	ra
806070a0:	a04300a1 	sb	v1,161(v0)
806070a4:	3c028062 	lui	v0,0x8062
806070a8:	24426a90 	addiu	v0,v0,27280
806070ac:	24030001 	li	v1,1
806070b0:	a0430071 	sb	v1,113(v0)
806070b4:	8c4300b8 	lw	v1,184(v0)
806070b8:	2404fff8 	li	a0,-8
806070bc:	00641824 	and	v1,v1,a0
806070c0:	34630002 	ori	v1,v1,0x2
806070c4:	ac4300b8 	sw	v1,184(v0)
806070c8:	3c038061 	lui	v1,0x8061
806070cc:	906329c2 	lbu	v1,10690(v1)
806070d0:	03e00008 	jr	ra
806070d4:	a04300a1 	sb	v1,161(v0)
806070d8:	3c028062 	lui	v0,0x8062
806070dc:	24426a90 	addiu	v0,v0,27280
806070e0:	24030001 	li	v1,1
806070e4:	a0430071 	sb	v1,113(v0)
806070e8:	8c4300b8 	lw	v1,184(v0)
806070ec:	2404fff8 	li	a0,-8
806070f0:	00641824 	and	v1,v1,a0
806070f4:	34630003 	ori	v1,v1,0x3
806070f8:	ac4300b8 	sw	v1,184(v0)
806070fc:	3c038061 	lui	v1,0x8061
80607100:	906329c3 	lbu	v1,10691(v1)
80607104:	03e00008 	jr	ra
80607108:	a04300a1 	sb	v1,161(v0)
8060710c:	3c038062 	lui	v1,0x8062
80607110:	24636a90 	addiu	v1,v1,27280
80607114:	8c6200b8 	lw	v0,184(v1)
80607118:	2404cfff 	li	a0,-12289
8060711c:	00441024 	and	v0,v0,a0
80607120:	34421000 	ori	v0,v0,0x1000
80607124:	03e00008 	jr	ra
80607128:	ac6200b8 	sw	v0,184(v1)
8060712c:	3c038062 	lui	v1,0x8062
80607130:	24636a90 	addiu	v1,v1,27280
80607134:	8c6200b8 	lw	v0,184(v1)
80607138:	2404cfff 	li	a0,-12289
8060713c:	00441024 	and	v0,v0,a0
80607140:	34422000 	ori	v0,v0,0x2000
80607144:	03e00008 	jr	ra
80607148:	ac6200b8 	sw	v0,184(v1)
8060714c:	3c028062 	lui	v0,0x8062
80607150:	24426a90 	addiu	v0,v0,27280
80607154:	94430ec0 	lhu	v1,3776(v0)
80607158:	24630001 	addiu	v1,v1,1
8060715c:	03e00008 	jr	ra
80607160:	a4430ec0 	sh	v1,3776(v0)
80607164:	3c028062 	lui	v0,0x8062
80607168:	24426a90 	addiu	v0,v0,27280
8060716c:	94430ec2 	lhu	v1,3778(v0)
80607170:	24630001 	addiu	v1,v1,1
80607174:	03e00008 	jr	ra
80607178:	a4430ec2 	sh	v1,3778(v0)
8060717c:	3c028062 	lui	v0,0x8062
80607180:	24426a90 	addiu	v0,v0,27280
80607184:	8c4300bc 	lw	v1,188(v0)
80607188:	34630040 	ori	v1,v1,0x40
8060718c:	03e00008 	jr	ra
80607190:	ac4300bc 	sw	v1,188(v0)
80607194:	3c028062 	lui	v0,0x8062
80607198:	24426a90 	addiu	v0,v0,27280
8060719c:	8c4300bc 	lw	v1,188(v0)
806071a0:	34630080 	ori	v1,v1,0x80
806071a4:	03e00008 	jr	ra
806071a8:	ac4300bc 	sw	v1,188(v0)
806071ac:	3c028062 	lui	v0,0x8062
806071b0:	24426a90 	addiu	v0,v0,27280
806071b4:	8c4300bc 	lw	v1,188(v0)
806071b8:	34630100 	ori	v1,v1,0x100
806071bc:	03e00008 	jr	ra
806071c0:	ac4300bc 	sw	v1,188(v0)
806071c4:	3c028062 	lui	v0,0x8062
806071c8:	24426a90 	addiu	v0,v0,27280
806071cc:	8c4300bc 	lw	v1,188(v0)
806071d0:	34630200 	ori	v1,v1,0x200
806071d4:	03e00008 	jr	ra
806071d8:	ac4300bc 	sw	v1,188(v0)
806071dc:	3c028062 	lui	v0,0x8062
806071e0:	24426a90 	addiu	v0,v0,27280
806071e4:	8c4300bc 	lw	v1,188(v0)
806071e8:	34630400 	ori	v1,v1,0x400
806071ec:	03e00008 	jr	ra
806071f0:	ac4300bc 	sw	v1,188(v0)
806071f4:	3c028062 	lui	v0,0x8062
806071f8:	24426a90 	addiu	v0,v0,27280
806071fc:	8c4300bc 	lw	v1,188(v0)
80607200:	34631000 	ori	v1,v1,0x1000
80607204:	03e00008 	jr	ra
80607208:	ac4300bc 	sw	v1,188(v0)
8060720c:	3c028062 	lui	v0,0x8062
80607210:	24426a90 	addiu	v0,v0,27280
80607214:	8c4300bc 	lw	v1,188(v0)
80607218:	34632000 	ori	v1,v1,0x2000
8060721c:	03e00008 	jr	ra
80607220:	ac4300bc 	sw	v1,188(v0)
80607224:	3c028062 	lui	v0,0x8062
80607228:	24426a90 	addiu	v0,v0,27280
8060722c:	8c4300bc 	lw	v1,188(v0)
80607230:	34634000 	ori	v1,v1,0x4000
80607234:	03e00008 	jr	ra
80607238:	ac4300bc 	sw	v1,188(v0)
8060723c:	3c028062 	lui	v0,0x8062
80607240:	24426a90 	addiu	v0,v0,27280
80607244:	8c4300bc 	lw	v1,188(v0)
80607248:	34638000 	ori	v1,v1,0x8000
8060724c:	03e00008 	jr	ra
80607250:	ac4300bc 	sw	v1,188(v0)
80607254:	3c028062 	lui	v0,0x8062
80607258:	24426a90 	addiu	v0,v0,27280
8060725c:	8c4300bc 	lw	v1,188(v0)
80607260:	3c040001 	lui	a0,0x1
80607264:	00641825 	or	v1,v1,a0
80607268:	03e00008 	jr	ra
8060726c:	ac4300bc 	sw	v1,188(v0)
80607270:	3c028062 	lui	v0,0x8062
80607274:	24426a90 	addiu	v0,v0,27280
80607278:	8c4300bc 	lw	v1,188(v0)
8060727c:	3c040100 	lui	a0,0x100
80607280:	00641825 	or	v1,v1,a0
80607284:	03e00008 	jr	ra
80607288:	ac4300bc 	sw	v1,188(v0)
8060728c:	3c028062 	lui	v0,0x8062
80607290:	24426a90 	addiu	v0,v0,27280
80607294:	8c4300bc 	lw	v1,188(v0)
80607298:	3c040004 	lui	a0,0x4
8060729c:	00641825 	or	v1,v1,a0
806072a0:	03e00008 	jr	ra
806072a4:	ac4300bc 	sw	v1,188(v0)
806072a8:	3c028062 	lui	v0,0x8062
806072ac:	24426a90 	addiu	v0,v0,27280
806072b0:	8c4300bc 	lw	v1,188(v0)
806072b4:	34630001 	ori	v1,v1,0x1
806072b8:	03e00008 	jr	ra
806072bc:	ac4300bc 	sw	v1,188(v0)
806072c0:	3c028062 	lui	v0,0x8062
806072c4:	24426a90 	addiu	v0,v0,27280
806072c8:	8c4300bc 	lw	v1,188(v0)
806072cc:	34630002 	ori	v1,v1,0x2
806072d0:	03e00008 	jr	ra
806072d4:	ac4300bc 	sw	v1,188(v0)
806072d8:	3c028062 	lui	v0,0x8062
806072dc:	24426a90 	addiu	v0,v0,27280
806072e0:	8c4300bc 	lw	v1,188(v0)
806072e4:	34630004 	ori	v1,v1,0x4
806072e8:	03e00008 	jr	ra
806072ec:	ac4300bc 	sw	v1,188(v0)
806072f0:	3c028062 	lui	v0,0x8062
806072f4:	24426a90 	addiu	v0,v0,27280
806072f8:	8c4300bc 	lw	v1,188(v0)
806072fc:	34630008 	ori	v1,v1,0x8
80607300:	03e00008 	jr	ra
80607304:	ac4300bc 	sw	v1,188(v0)
80607308:	3c038062 	lui	v1,0x8062
8060730c:	24636a90 	addiu	v1,v1,27280
80607310:	8c6200bc 	lw	v0,188(v1)
80607314:	3c060fff 	lui	a2,0xfff
80607318:	00022702 	srl	a0,v0,0x1c
8060731c:	24840001 	addiu	a0,a0,1
80607320:	34c6ffff 	ori	a2,a2,0xffff
80607324:	00042700 	sll	a0,a0,0x1c
80607328:	00461024 	and	v0,v0,a2
8060732c:	00441025 	or	v0,v0,a0
80607330:	3c04f000 	lui	a0,0xf000
80607334:	00822024 	and	a0,a0,v0
80607338:	3c074000 	lui	a3,0x4000
8060733c:	14870006 	bne	a0,a3,80607358 <comboAddItemMm+0x83c>
80607340:	ac6200bc 	sw	v0,188(v1)
80607344:	00461024 	and	v0,v0,a2
80607348:	ac6200bc 	sw	v0,188(v1)
8060734c:	94620034 	lhu	v0,52(v1)
80607350:	24420010 	addiu	v0,v0,16
80607354:	a4620034 	sh	v0,52(v1)
80607358:	10a00090 	beqz	a1,8060759c <comboAddItemMm+0xa80>
8060735c:	00000000 	nop
80607360:	0818199e 	j	80606678 <addHealth>
80607364:	24040014 	li	a0,20
80607368:	3c028062 	lui	v0,0x8062
8060736c:	24426a90 	addiu	v0,v0,27280
80607370:	94430034 	lhu	v1,52(v0)
80607374:	24630010 	addiu	v1,v1,16
80607378:	1000fff7 	b	80607358 <comboAddItemMm+0x83c>
8060737c:	a4430034 	sh	v1,52(v0)
80607380:	10a00086 	beqz	a1,8060759c <comboAddItemMm+0xa80>
80607384:	00000000 	nop
80607388:	0818199e 	j	80606678 <addHealth>
8060738c:	24040001 	li	a0,1
80607390:	10a00082 	beqz	a1,8060759c <comboAddItemMm+0xa80>
80607394:	00000000 	nop
80607398:	08181a22 	j	80606888 <addRupees>
8060739c:	24040001 	li	a0,1
806073a0:	10a0007e 	beqz	a1,8060759c <comboAddItemMm+0xa80>
806073a4:	00000000 	nop
806073a8:	08181a22 	j	80606888 <addRupees>
806073ac:	24040005 	li	a0,5
806073b0:	10a0007a 	beqz	a1,8060759c <comboAddItemMm+0xa80>
806073b4:	00000000 	nop
806073b8:	08181a22 	j	80606888 <addRupees>
806073bc:	24040014 	li	a0,20
806073c0:	10a00076 	beqz	a1,8060759c <comboAddItemMm+0xa80>
806073c4:	00000000 	nop
806073c8:	08181a22 	j	80606888 <addRupees>
806073cc:	24040032 	li	a0,50
806073d0:	10a00072 	beqz	a1,8060759c <comboAddItemMm+0xa80>
806073d4:	00000000 	nop
806073d8:	08181a22 	j	80606888 <addRupees>
806073dc:	24040064 	li	a0,100
806073e0:	10a0006e 	beqz	a1,8060759c <comboAddItemMm+0xa80>
806073e4:	00000000 	nop
806073e8:	08181a22 	j	80606888 <addRupees>
806073ec:	240400c8 	li	a0,200
806073f0:	08181a95 	j	80606a54 <comboAddSmallKeyMm>
806073f4:	00002025 	move	a0,zero
806073f8:	08181a95 	j	80606a54 <comboAddSmallKeyMm>
806073fc:	24040001 	li	a0,1
80607400:	08181a95 	j	80606a54 <comboAddSmallKeyMm>
80607404:	24040002 	li	a0,2
80607408:	08181a95 	j	80606a54 <comboAddSmallKeyMm>
8060740c:	24040003 	li	a0,3
80607410:	3c028062 	lui	v0,0x8062
80607414:	24426a90 	addiu	v0,v0,27280
80607418:	904300c0 	lbu	v1,192(v0)
8060741c:	34630001 	ori	v1,v1,0x1
80607420:	03e00008 	jr	ra
80607424:	a04300c0 	sb	v1,192(v0)
80607428:	3c028062 	lui	v0,0x8062
8060742c:	24426a90 	addiu	v0,v0,27280
80607430:	904300c1 	lbu	v1,193(v0)
80607434:	34630001 	ori	v1,v1,0x1
80607438:	03e00008 	jr	ra
8060743c:	a04300c1 	sb	v1,193(v0)
80607440:	3c028062 	lui	v0,0x8062
80607444:	24426a90 	addiu	v0,v0,27280
80607448:	904300c2 	lbu	v1,194(v0)
8060744c:	34630001 	ori	v1,v1,0x1
80607450:	03e00008 	jr	ra
80607454:	a04300c2 	sb	v1,194(v0)
80607458:	3c028062 	lui	v0,0x8062
8060745c:	24426a90 	addiu	v0,v0,27280
80607460:	904300c3 	lbu	v1,195(v0)
80607464:	34630001 	ori	v1,v1,0x1
80607468:	03e00008 	jr	ra
8060746c:	a04300c3 	sb	v1,195(v0)
80607470:	08181aab 	j	80606aac <comboAddStrayFairyMm>
80607474:	00002025 	move	a0,zero
80607478:	08181aab 	j	80606aac <comboAddStrayFairyMm>
8060747c:	24040001 	li	a0,1
80607480:	08181aab 	j	80606aac <comboAddStrayFairyMm>
80607484:	24040002 	li	a0,2
80607488:	08181aab 	j	80606aac <comboAddStrayFairyMm>
8060748c:	24040003 	li	a0,3
80607490:	3c028062 	lui	v0,0x8062
80607494:	24426a90 	addiu	v0,v0,27280
80607498:	90430f00 	lbu	v1,3840(v0)
8060749c:	2404ff80 	li	a0,-128
806074a0:	00641825 	or	v1,v1,a0
806074a4:	03e00008 	jr	ra
806074a8:	a0430f00 	sb	v1,3840(v0)
806074ac:	3c028062 	lui	v0,0x8062
806074b0:	24426a90 	addiu	v0,v0,27280
806074b4:	24030001 	li	v1,1
806074b8:	a0430042 	sb	v1,66(v0)
806074bc:	24030014 	li	v1,20
806074c0:	1000ffa5 	b	80607358 <comboAddItemMm+0x83c>
806074c4:	a04300d3 	sb	v1,211(v0)
806074c8:	3c028062 	lui	v0,0x8062
806074cc:	24426a90 	addiu	v0,v0,27280
806074d0:	90430f0f 	lbu	v1,3855(v0)
806074d4:	34630002 	ori	v1,v1,0x2
806074d8:	03e00008 	jr	ra
806074dc:	a0430f0f 	sb	v1,3855(v0)
806074e0:	3c028062 	lui	v0,0x8062
806074e4:	24426a90 	addiu	v0,v0,27280
806074e8:	904300c0 	lbu	v1,192(v0)
806074ec:	34630004 	ori	v1,v1,0x4
806074f0:	03e00008 	jr	ra
806074f4:	a04300c0 	sb	v1,192(v0)
806074f8:	3c028062 	lui	v0,0x8062
806074fc:	24426a90 	addiu	v0,v0,27280
80607500:	904300c1 	lbu	v1,193(v0)
80607504:	34630004 	ori	v1,v1,0x4
80607508:	03e00008 	jr	ra
8060750c:	a04300c1 	sb	v1,193(v0)
80607510:	3c028062 	lui	v0,0x8062
80607514:	24426a90 	addiu	v0,v0,27280
80607518:	904300c2 	lbu	v1,194(v0)
8060751c:	34630004 	ori	v1,v1,0x4
80607520:	03e00008 	jr	ra
80607524:	a04300c2 	sb	v1,194(v0)
80607528:	3c028062 	lui	v0,0x8062
8060752c:	24426a90 	addiu	v0,v0,27280
80607530:	904300c3 	lbu	v1,195(v0)
80607534:	34630004 	ori	v1,v1,0x4
80607538:	03e00008 	jr	ra
8060753c:	a04300c3 	sb	v1,195(v0)
80607540:	3c028062 	lui	v0,0x8062
80607544:	24426a90 	addiu	v0,v0,27280
80607548:	904300c0 	lbu	v1,192(v0)
8060754c:	34630002 	ori	v1,v1,0x2
80607550:	03e00008 	jr	ra
80607554:	a04300c0 	sb	v1,192(v0)
80607558:	3c028062 	lui	v0,0x8062
8060755c:	24426a90 	addiu	v0,v0,27280
80607560:	904300c1 	lbu	v1,193(v0)
80607564:	34630002 	ori	v1,v1,0x2
80607568:	03e00008 	jr	ra
8060756c:	a04300c1 	sb	v1,193(v0)
80607570:	3c028062 	lui	v0,0x8062
80607574:	24426a90 	addiu	v0,v0,27280
80607578:	904300c2 	lbu	v1,194(v0)
8060757c:	34630002 	ori	v1,v1,0x2
80607580:	03e00008 	jr	ra
80607584:	a04300c2 	sb	v1,194(v0)
80607588:	3c028062 	lui	v0,0x8062
8060758c:	24426a90 	addiu	v0,v0,27280
80607590:	904300c3 	lbu	v1,195(v0)
80607594:	34630002 	ori	v1,v1,0x2
80607598:	a04300c3 	sb	v1,195(v0)
8060759c:	03e00008 	jr	ra
806075a0:	00000000 	nop

806075a4 <comboInitDma>:
806075a4:	27bdffe8 	addiu	sp,sp,-24
806075a8:	3c041000 	lui	a0,0x1000
806075ac:	afb00010 	sw	s0,16(sp)
806075b0:	3c108061 	lui	s0,0x8061
806075b4:	24065e60 	li	a2,24160
806075b8:	26055dd0 	addiu	a1,s0,24016
806075bc:	afbf0014 	sw	ra,20(sp)
806075c0:	0c000217 	jal	8000085c <DMARomToRam>
806075c4:	24847430 	addiu	a0,a0,29744
806075c8:	3c058062 	lui	a1,0x8062
806075cc:	3c041201 	lui	a0,0x1201
806075d0:	24066100 	li	a2,24832
806075d4:	24a5bc30 	addiu	a1,a1,-17360
806075d8:	0c000217 	jal	8000085c <DMARomToRam>
806075dc:	3484a500 	ori	a0,a0,0xa500
806075e0:	3c058062 	lui	a1,0x8062
806075e4:	3c0413f8 	lui	a0,0x13f8
806075e8:	240600f0 	li	a2,240
806075ec:	24a51d30 	addiu	a1,a1,7472
806075f0:	0c000217 	jal	8000085c <DMARomToRam>
806075f4:	3484fee0 	ori	a0,a0,0xfee0
806075f8:	26025dd0 	addiu	v0,s0,24016
806075fc:	24456100 	addiu	a1,v0,24832
80607600:	2406ffff 	li	a2,-1
80607604:	3c040400 	lui	a0,0x400
80607608:	8c435e6c 	lw	v1,24172(v0)
8060760c:	50660008 	beql	v1,a2,80607630 <comboInitDma+0x8c>
80607610:	24420010 	addiu	v0,v0,16
80607614:	8c435e60 	lw	v1,24160(v0)
80607618:	00641825 	or	v1,v1,a0
8060761c:	ac435e60 	sw	v1,24160(v0)
80607620:	8c435e64 	lw	v1,24164(v0)
80607624:	00641825 	or	v1,v1,a0
80607628:	ac435e64 	sw	v1,24164(v0)
8060762c:	24420010 	addiu	v0,v0,16
80607630:	5445fff6 	bnel	v0,a1,8060760c <comboInitDma+0x68>
80607634:	8c435e6c 	lw	v1,24172(v0)
80607638:	8fbf0014 	lw	ra,20(sp)
8060763c:	8fb00010 	lw	s0,16(sp)
80607640:	03e00008 	jr	ra
80607644:	27bd0018 	addiu	sp,sp,24

80607648 <comboDma_NoCacheInval>:
80607648:	3c03a460 	lui	v1,0xa460
8060764c:	8c620010 	lw	v0,16(v1)
80607650:	30420003 	andi	v0,v0,0x3
80607654:	1440fffd 	bnez	v0,8060764c <comboDma_NoCacheInval+0x4>
80607658:	3c071fff 	lui	a3,0x1fff
8060765c:	34e7ffff 	ori	a3,a3,0xffff
80607660:	3c03a460 	lui	v1,0xa460
80607664:	3c091000 	lui	t1,0x1000
80607668:	14c00003 	bnez	a2,80607678 <comboDma_NoCacheInval+0x30>
8060766c:	2cc82001 	sltiu	t0,a2,8193
80607670:	03e00008 	jr	ra
80607674:	00000000 	nop
80607678:	15000002 	bnez	t0,80607684 <comboDma_NoCacheInval+0x3c>
8060767c:	00c01025 	move	v0,a2
80607680:	24022000 	li	v0,8192
80607684:	00874024 	and	t0,a0,a3
80607688:	ac680000 	sw	t0,0(v1)
8060768c:	00a94025 	or	t0,a1,t1
80607690:	ac680004 	sw	t0,4(v1)
80607694:	2448ffff 	addiu	t0,v0,-1
80607698:	ac68000c 	sw	t0,12(v1)
8060769c:	8c680010 	lw	t0,16(v1)
806076a0:	31080003 	andi	t0,t0,0x3
806076a4:	1500fffd 	bnez	t0,8060769c <comboDma_NoCacheInval+0x54>
806076a8:	00000000 	nop
806076ac:	00c23023 	subu	a2,a2,v0
806076b0:	00822021 	addu	a0,a0,v0
806076b4:	1000ffec 	b	80607668 <comboDma_NoCacheInval+0x20>
806076b8:	00a22821 	addu	a1,a1,v0

806076bc <drawTexRGBA32.constprop.0>:
806076bc:	3c088062 	lui	t0,0x8062
806076c0:	8d021e38 	lw	v0,7736(t0)
806076c4:	44862000 	mtc1	a2,$f4
806076c8:	24430004 	addiu	v1,v0,4
806076cc:	306303ff 	andi	v1,v1,0x3ff
806076d0:	27bdffc0 	addiu	sp,sp,-64
806076d4:	4600200d 	trunc.w.s	$f0,$f4
806076d8:	ad031e38 	sw	v1,7736(t0)
806076dc:	3c088061 	lui	t0,0x8061
806076e0:	44030000 	mfc1	v1,$f0
806076e4:	e7a00030 	swc1	$f0,48(sp)
806076e8:	c500dfdc 	lwc1	$f0,-8228(t0)
806076ec:	44871000 	mtc1	a3,$f2
806076f0:	46002100 	add.s	$f4,$f4,$f0
806076f4:	3c068062 	lui	a2,0x8062
806076f8:	00021100 	sll	v0,v0,0x4
806076fc:	46001001 	sub.s	$f0,$f2,$f0
80607700:	4600210d 	trunc.w.s	$f4,$f4
80607704:	24c61e40 	addiu	a2,a2,7744
80607708:	4600000d 	trunc.w.s	$f0,$f0
8060770c:	e7a40034 	swc1	$f4,52(sp)
80607710:	e7a40038 	swc1	$f4,56(sp)
80607714:	afa3003c 	sw	v1,60(sp)
80607718:	4600110d 	trunc.w.s	$f4,$f2
8060771c:	24030180 	li	v1,384
80607720:	00c23021 	addu	a2,a2,v0
80607724:	afa30014 	sw	v1,20(sp)
80607728:	afa30018 	sw	v1,24(sp)
8060772c:	afa30008 	sw	v1,8(sp)
80607730:	afa3000c 	sw	v1,12(sp)
80607734:	e7a40020 	swc1	$f4,32(sp)
80607738:	e7a40024 	swc1	$f4,36(sp)
8060773c:	e7a00028 	swc1	$f0,40(sp)
80607740:	e7a0002c 	swc1	$f0,44(sp)
80607744:	afa00010 	sw	zero,16(sp)
80607748:	afa0001c 	sw	zero,28(sp)
8060774c:	afa00000 	sw	zero,0(sp)
80607750:	afa00004 	sw	zero,4(sp)
80607754:	00c01025 	move	v0,a2
80607758:	00001825 	move	v1,zero
8060775c:	2407ffff 	li	a3,-1
80607760:	24080010 	li	t0,16
80607764:	27a90030 	addiu	t1,sp,48
80607768:	01234821 	addu	t1,t1,v1
8060776c:	8d290000 	lw	t1,0(t1)
80607770:	a4400004 	sh	zero,4(v0)
80607774:	a4490000 	sh	t1,0(v0)
80607778:	27a90020 	addiu	t1,sp,32
8060777c:	01234821 	addu	t1,t1,v1
80607780:	8d290000 	lw	t1,0(t1)
80607784:	a4400006 	sh	zero,6(v0)
80607788:	a4490002 	sh	t1,2(v0)
8060778c:	27a90010 	addiu	t1,sp,16
80607790:	01234821 	addu	t1,t1,v1
80607794:	8d290000 	lw	t1,0(t1)
80607798:	a047000c 	sb	a3,12(v0)
8060779c:	a4490008 	sh	t1,8(v0)
806077a0:	03a34821 	addu	t1,sp,v1
806077a4:	8d290000 	lw	t1,0(t1)
806077a8:	24630004 	addiu	v1,v1,4
806077ac:	a449000a 	sh	t1,10(v0)
806077b0:	a047000d 	sb	a3,13(v0)
806077b4:	a047000e 	sb	a3,14(v0)
806077b8:	a047000f 	sb	a3,15(v0)
806077bc:	1468ffe9 	bne	v1,t0,80607764 <drawTexRGBA32.constprop.0+0xa8>
806077c0:	24420010 	addiu	v0,v0,16
806077c4:	8c870000 	lw	a3,0(a0)
806077c8:	3c030100 	lui	v1,0x100
806077cc:	8ce202c0 	lw	v0,704(a3)
806077d0:	24634008 	addiu	v1,v1,16392
806077d4:	ac430008 	sw	v1,8(v0)
806077d8:	3c03fd18 	lui	v1,0xfd18
806077dc:	2463000b 	addiu	v1,v1,11
806077e0:	ac430018 	sw	v1,24(v0)
806077e4:	3c03f518 	lui	v1,0xf518
806077e8:	24630600 	addiu	v1,v1,1536
806077ec:	3c040700 	lui	a0,0x700
806077f0:	ac430020 	sw	v1,32(v0)
806077f4:	ac440024 	sw	a0,36(v0)
806077f8:	ac430040 	sw	v1,64(v0)
806077fc:	3c04e600 	lui	a0,0xe600
80607800:	3c03f200 	lui	v1,0xf200
80607804:	ac440028 	sw	a0,40(v0)
80607808:	ac430048 	sw	v1,72(v0)
8060780c:	3c04f400 	lui	a0,0xf400
80607810:	3c030002 	lui	v1,0x2
80607814:	ac440030 	sw	a0,48(v0)
80607818:	3463c02c 	ori	v1,v1,0xc02c
8060781c:	3c040702 	lui	a0,0x702
80607820:	ac46000c 	sw	a2,12(v0)
80607824:	ac43004c 	sw	v1,76(v0)
80607828:	3c08e700 	lui	t0,0xe700
8060782c:	3c06e800 	lui	a2,0xe800
80607830:	24430060 	addiu	v1,v0,96
80607834:	3484c02c 	ori	a0,a0,0xc02c
80607838:	ac480000 	sw	t0,0(v0)
8060783c:	ac400004 	sw	zero,4(v0)
80607840:	ac460010 	sw	a2,16(v0)
80607844:	ac400014 	sw	zero,20(v0)
80607848:	ac45001c 	sw	a1,28(v0)
8060784c:	ac40002c 	sw	zero,44(v0)
80607850:	ac440034 	sw	a0,52(v0)
80607854:	ac480038 	sw	t0,56(v0)
80607858:	ac40003c 	sw	zero,60(v0)
8060785c:	ac400044 	sw	zero,68(v0)
80607860:	ac460050 	sw	a2,80(v0)
80607864:	ac400054 	sw	zero,84(v0)
80607868:	ace302c0 	sw	v1,704(a3)
8060786c:	3c030600 	lui	v1,0x600
80607870:	24630402 	addiu	v1,v1,1026
80607874:	ac430058 	sw	v1,88(v0)
80607878:	24030604 	li	v1,1540
8060787c:	ac43005c 	sw	v1,92(v0)
80607880:	03e00008 	jr	ra
80607884:	27bd0040 	addiu	sp,sp,64

80607888 <printChar>:
80607888:	24a5ffe0 	addiu	a1,a1,-32
8060788c:	00051840 	sll	v1,a1,0x1
80607890:	00651821 	addu	v1,v1,a1
80607894:	00031900 	sll	v1,v1,0x4
80607898:	3c088062 	lui	t0,0x8062
8060789c:	3c020600 	lui	v0,0x600
806078a0:	24637000 	addiu	v1,v1,28672
806078a4:	00621825 	or	v1,v1,v0
806078a8:	8d021e38 	lw	v0,7736(t0)
806078ac:	44862000 	mtc1	a2,$f4
806078b0:	24450004 	addiu	a1,v0,4
806078b4:	30a503ff 	andi	a1,a1,0x3ff
806078b8:	27bdffc0 	addiu	sp,sp,-64
806078bc:	4600200d 	trunc.w.s	$f0,$f4
806078c0:	ad051e38 	sw	a1,7736(t0)
806078c4:	3c088061 	lui	t0,0x8061
806078c8:	44050000 	mfc1	a1,$f0
806078cc:	e7a00030 	swc1	$f0,48(sp)
806078d0:	c500dfe0 	lwc1	$f0,-8224(t0)
806078d4:	44871000 	mtc1	a3,$f2
806078d8:	46002000 	add.s	$f0,$f4,$f0
806078dc:	afa5003c 	sw	a1,60(sp)
806078e0:	3c058061 	lui	a1,0x8061
806078e4:	4600000d 	trunc.w.s	$f0,$f0
806078e8:	e7a00034 	swc1	$f0,52(sp)
806078ec:	e7a00038 	swc1	$f0,56(sp)
806078f0:	4600100d 	trunc.w.s	$f0,$f2
806078f4:	e7a00020 	swc1	$f0,32(sp)
806078f8:	e7a00024 	swc1	$f0,36(sp)
806078fc:	c4a0dfdc 	lwc1	$f0,-8228(a1)
80607900:	3c068062 	lui	a2,0x8062
80607904:	46001001 	sub.s	$f0,$f2,$f0
80607908:	24050100 	li	a1,256
8060790c:	00021100 	sll	v0,v0,0x4
80607910:	24c61e40 	addiu	a2,a2,7744
80607914:	4600000d 	trunc.w.s	$f0,$f0
80607918:	afa50014 	sw	a1,20(sp)
8060791c:	afa50018 	sw	a1,24(sp)
80607920:	00c23021 	addu	a2,a2,v0
80607924:	24050180 	li	a1,384
80607928:	afa50008 	sw	a1,8(sp)
8060792c:	afa5000c 	sw	a1,12(sp)
80607930:	e7a00028 	swc1	$f0,40(sp)
80607934:	e7a0002c 	swc1	$f0,44(sp)
80607938:	afa00010 	sw	zero,16(sp)
8060793c:	afa0001c 	sw	zero,28(sp)
80607940:	afa00000 	sw	zero,0(sp)
80607944:	afa00004 	sw	zero,4(sp)
80607948:	00c01025 	move	v0,a2
8060794c:	00002825 	move	a1,zero
80607950:	2407ffff 	li	a3,-1
80607954:	24080010 	li	t0,16
80607958:	27a90030 	addiu	t1,sp,48
8060795c:	01254821 	addu	t1,t1,a1
80607960:	8d290000 	lw	t1,0(t1)
80607964:	a4400004 	sh	zero,4(v0)
80607968:	a4490000 	sh	t1,0(v0)
8060796c:	27a90020 	addiu	t1,sp,32
80607970:	01254821 	addu	t1,t1,a1
80607974:	8d290000 	lw	t1,0(t1)
80607978:	a4400006 	sh	zero,6(v0)
8060797c:	a4490002 	sh	t1,2(v0)
80607980:	27a90010 	addiu	t1,sp,16
80607984:	01254821 	addu	t1,t1,a1
80607988:	8d290000 	lw	t1,0(t1)
8060798c:	a047000c 	sb	a3,12(v0)
80607990:	a4490008 	sh	t1,8(v0)
80607994:	03a54821 	addu	t1,sp,a1
80607998:	8d290000 	lw	t1,0(t1)
8060799c:	24a50004 	addiu	a1,a1,4
806079a0:	a449000a 	sh	t1,10(v0)
806079a4:	a047000d 	sb	a3,13(v0)
806079a8:	a047000e 	sb	a3,14(v0)
806079ac:	a047000f 	sb	a3,15(v0)
806079b0:	14a8ffe9 	bne	a1,t0,80607958 <printChar+0xd0>
806079b4:	24420010 	addiu	v0,v0,16
806079b8:	8c850000 	lw	a1,0(a0)
806079bc:	3c040100 	lui	a0,0x100
806079c0:	8ca202c0 	lw	v0,704(a1)
806079c4:	24844008 	addiu	a0,a0,16392
806079c8:	ac43001c 	sw	v1,28(v0)
806079cc:	3c03f568 	lui	v1,0xf568
806079d0:	24630200 	addiu	v1,v1,512
806079d4:	ac430020 	sw	v1,32(v0)
806079d8:	3c030700 	lui	v1,0x700
806079dc:	ac430024 	sw	v1,36(v0)
806079e0:	3463e02c 	ori	v1,v1,0xe02c
806079e4:	ac430034 	sw	v1,52(v0)
806079e8:	3c03f560 	lui	v1,0xf560
806079ec:	24630200 	addiu	v1,v1,512
806079f0:	ac440008 	sw	a0,8(v0)
806079f4:	ac430040 	sw	v1,64(v0)
806079f8:	3c04fd68 	lui	a0,0xfd68
806079fc:	3c03f200 	lui	v1,0xf200
80607a00:	ac430048 	sw	v1,72(v0)
80607a04:	24840003 	addiu	a0,a0,3
80607a08:	3c030001 	lui	v1,0x1
80607a0c:	ac440018 	sw	a0,24(v0)
80607a10:	3463c02c 	ori	v1,v1,0xc02c
80607a14:	3c04e600 	lui	a0,0xe600
80607a18:	ac46000c 	sw	a2,12(v0)
80607a1c:	ac440028 	sw	a0,40(v0)
80607a20:	ac43004c 	sw	v1,76(v0)
80607a24:	3c07e700 	lui	a3,0xe700
80607a28:	3c06e800 	lui	a2,0xe800
80607a2c:	24430060 	addiu	v1,v0,96
80607a30:	3c04f400 	lui	a0,0xf400
80607a34:	ac470000 	sw	a3,0(v0)
80607a38:	ac400004 	sw	zero,4(v0)
80607a3c:	ac460010 	sw	a2,16(v0)
80607a40:	ac400014 	sw	zero,20(v0)
80607a44:	ac40002c 	sw	zero,44(v0)
80607a48:	ac440030 	sw	a0,48(v0)
80607a4c:	ac470038 	sw	a3,56(v0)
80607a50:	ac40003c 	sw	zero,60(v0)
80607a54:	ac400044 	sw	zero,68(v0)
80607a58:	ac460050 	sw	a2,80(v0)
80607a5c:	ac400054 	sw	zero,84(v0)
80607a60:	aca302c0 	sw	v1,704(a1)
80607a64:	3c030600 	lui	v1,0x600
80607a68:	24630402 	addiu	v1,v1,1026
80607a6c:	ac430058 	sw	v1,88(v0)
80607a70:	24030604 	li	v1,1540
80607a74:	ac43005c 	sw	v1,92(v0)
80607a78:	03e00008 	jr	ra
80607a7c:	27bd0040 	addiu	sp,sp,64

80607a80 <printNum>:
80607a80:	27bdffe0 	addiu	sp,sp,-32
80607a84:	00c05025 	move	t2,a2
80607a88:	00e03025 	move	a2,a3
80607a8c:	8fae0030 	lw	t6,48(sp)
80607a90:	afbf001c 	sw	ra,28(sp)
80607a94:	14a0000f 	bnez	a1,80607ad4 <printNum+0x54>
80607a98:	3c038061 	lui	v1,0x8061
80607a9c:	254affff 	addiu	t2,t2,-1
80607aa0:	448a0000 	mtc1	t2,$f0
80607aa4:	c462dfe0 	lwc1	$f2,-8224(v1)
80607aa8:	46800020 	cvt.s.w	$f0,$f0
80607aac:	46020002 	mul.s	$f0,$f0,$f2
80607ab0:	00000000 	nop
80607ab4:	44861000 	mtc1	a2,$f2
80607ab8:	8fbf001c 	lw	ra,28(sp)
80607abc:	01c03825 	move	a3,t6
80607ac0:	24050030 	li	a1,48
80607ac4:	46020000 	add.s	$f0,$f0,$f2
80607ac8:	44060000 	mfc1	a2,$f0
80607acc:	08181e22 	j	80607888 <printChar>
80607ad0:	27bd0020 	addiu	sp,sp,32
80607ad4:	24020001 	li	v0,1
80607ad8:	00806825 	move	t5,a0
80607adc:	11420005 	beq	t2,v0,80607af4 <printNum+0x74>
80607ae0:	00a05825 	move	t3,a1
80607ae4:	24020003 	li	v0,3
80607ae8:	15420002 	bne	t2,v0,80607af4 <printNum+0x74>
80607aec:	240a000a 	li	t2,10
80607af0:	240a0064 	li	t2,100
80607af4:	c466dfe0 	lwc1	$f6,-8224(v1)
80607af8:	00001025 	move	v0,zero
80607afc:	240c000a 	li	t4,10
80607b00:	016a001a 	div	zero,t3,t2
80607b04:	00002812 	mflo	a1
	...
80607b10:	00ac001a 	div	zero,a1,t4
80607b14:	00002810 	mfhi	a1
80607b18:	00451025 	or	v0,v0,a1
80607b1c:	50400009 	beqzl	v0,80607b44 <printNum+0xc4>
80607b20:	014c001a 	div	zero,t2,t4
80607b24:	01c03825 	move	a3,t6
80607b28:	24a50030 	addiu	a1,a1,48
80607b2c:	01a02025 	move	a0,t5
80607b30:	0c181e22 	jal	80607888 <printChar>
80607b34:	afa60010 	sw	a2,16(sp)
80607b38:	8fa60010 	lw	a2,16(sp)
80607b3c:	24020001 	li	v0,1
80607b40:	014c001a 	div	zero,t2,t4
80607b44:	44860000 	mtc1	a2,$f0
80607b48:	00000000 	nop
80607b4c:	46060000 	add.s	$f0,$f0,$f6
80607b50:	00005012 	mflo	t2
80607b54:	44060000 	mfc1	a2,$f0
80607b58:	5540ffea 	bnezl	t2,80607b04 <printNum+0x84>
80607b5c:	016a001a 	div	zero,t3,t2
80607b60:	8fbf001c 	lw	ra,28(sp)
80607b64:	03e00008 	jr	ra
80607b68:	27bd0020 	addiu	sp,sp,32

80607b6c <printNumColored>:
80607b6c:	00c01025 	move	v0,a2
80607b70:	c7a00014 	lwc1	$f0,20(sp)
80607b74:	00e03025 	move	a2,a3
80607b78:	18a00015 	blez	a1,80607bd0 <printNumColored+0x64>
80607b7c:	8fa70010 	lw	a3,16(sp)
80607b80:	00a2102a 	slt	v0,a1,v0
80607b84:	10400015 	beqz	v0,80607bdc <printNumColored+0x70>
80607b88:	24030064 	li	v1,100
80607b8c:	240300ff 	li	v1,255
80607b90:	240200ff 	li	v0,255
80607b94:	8c890000 	lw	t1,0(a0)
80607b98:	00021600 	sll	v0,v0,0x18
80607b9c:	8d2802c0 	lw	t0,704(t1)
80607ba0:	250a0008 	addiu	t2,t0,8
80607ba4:	ad2a02c0 	sw	t2,704(t1)
80607ba8:	3c09fa00 	lui	t1,0xfa00
80607bac:	ad090000 	sw	t1,0(t0)
80607bb0:	00034a00 	sll	t1,v1,0x8
80607bb4:	00491025 	or	v0,v0,t1
80607bb8:	00031c00 	sll	v1,v1,0x10
80607bbc:	00431025 	or	v0,v0,v1
80607bc0:	344200ff 	ori	v0,v0,0xff
80607bc4:	ad020004 	sw	v0,4(t0)
80607bc8:	08181ea0 	j	80607a80 <printNum>
80607bcc:	e7a00010 	swc1	$f0,16(sp)
80607bd0:	2403007f 	li	v1,127
80607bd4:	1000ffef 	b	80607b94 <printNumColored+0x28>
80607bd8:	2402007f 	li	v0,127
80607bdc:	1000ffed 	b	80607b94 <printNumColored+0x28>
80607be0:	240200c8 	li	v0,200

80607be4 <comboMenuKeysUpdate>:
80607be4:	27bdffe8 	addiu	sp,sp,-24
80607be8:	afb00010 	sw	s0,16(sp)
80607bec:	3c108062 	lui	s0,0x8062
80607bf0:	8e031e30 	lw	v1,7728(s0)
80607bf4:	10600007 	beqz	v1,80607c14 <comboMenuKeysUpdate+0x30>
80607bf8:	afbf0014 	sw	ra,20(sp)
80607bfc:	2463ffff 	addiu	v1,v1,-1
80607c00:	ae031e30 	sw	v1,7728(s0)
80607c04:	8fbf0014 	lw	ra,20(sp)
80607c08:	8fb00010 	lw	s0,16(sp)
80607c0c:	03e00008 	jr	ra
80607c10:	27bd0018 	addiu	sp,sp,24
80607c14:	80820017 	lb	v0,23(a0)
80607c18:	44820000 	mtc1	v0,$f0
80607c1c:	3c028061 	lui	v0,0x8061
80607c20:	c442dfe4 	lwc1	$f2,-8220(v0)
80607c24:	46800020 	cvt.s.w	$f0,$f0
80607c28:	46020002 	mul.s	$f0,$f0,$f2
80607c2c:	00000000 	nop
80607c30:	3c028061 	lui	v0,0x8061
80607c34:	c442dfe8 	lwc1	$f2,-8216(v0)
80607c38:	4600103c 	c.lt.s	$f2,$f0
80607c3c:	00000000 	nop
80607c40:	4500001a 	bc1f	80607cac <comboMenuKeysUpdate+0xc8>
80607c44:	3c048061 	lui	a0,0x8061
80607c48:	3c058062 	lui	a1,0x8062
80607c4c:	8ca21e34 	lw	v0,7732(a1)
80607c50:	18400016 	blez	v0,80607cac <comboMenuKeysUpdate+0xc8>
80607c54:	c482dfec 	lwc1	$f2,-8212(a0)
80607c58:	2442ffff 	addiu	v0,v0,-1
80607c5c:	4602003c 	c.lt.s	$f0,$f2
80607c60:	00000000 	nop
80607c64:	45000008 	bc1f	80607c88 <comboMenuKeysUpdate+0xa4>
80607c68:	aca21e34 	sw	v0,7732(a1)
80607c6c:	24030001 	li	v1,1
80607c70:	3c048062 	lui	a0,0x8062
80607c74:	8c821e34 	lw	v0,7732(a0)
80607c78:	2c450009 	sltiu	a1,v0,9
80607c7c:	10a00007 	beqz	a1,80607c9c <comboMenuKeysUpdate+0xb8>
80607c80:	24420001 	addiu	v0,v0,1
80607c84:	ac821e34 	sw	v0,7732(a0)
80607c88:	0c0191bc 	jal	800646f0 <PlaySound>
80607c8c:	24044809 	li	a0,18441
80607c90:	24020003 	li	v0,3
80607c94:	1000ffdb 	b	80607c04 <comboMenuKeysUpdate+0x20>
80607c98:	ae021e30 	sw	v0,7728(s0)
80607c9c:	1460fffa 	bnez	v1,80607c88 <comboMenuKeysUpdate+0xa4>
80607ca0:	8fbf0014 	lw	ra,20(sp)
80607ca4:	1000ffd9 	b	80607c0c <comboMenuKeysUpdate+0x28>
80607ca8:	8fb00010 	lw	s0,16(sp)
80607cac:	c482dfec 	lwc1	$f2,-8212(a0)
80607cb0:	4602003c 	c.lt.s	$f0,$f2
80607cb4:	00000000 	nop
80607cb8:	4503ffee 	bc1tl	80607c74 <comboMenuKeysUpdate+0x90>
80607cbc:	3c048062 	lui	a0,0x8062
80607cc0:	1000ffd1 	b	80607c08 <comboMenuKeysUpdate+0x24>
80607cc4:	8fbf0014 	lw	ra,20(sp)

80607cc8 <comboMenuKeysDraw>:
80607cc8:	27bdffa8 	addiu	sp,sp,-88
80607ccc:	afb00044 	sw	s0,68(sp)
80607cd0:	00808025 	move	s0,a0
80607cd4:	24040001 	li	a0,1
80607cd8:	afbf0054 	sw	ra,84(sp)
80607cdc:	afb30050 	sw	s3,80(sp)
80607ce0:	afb2004c 	sw	s2,76(sp)
80607ce4:	0c181783 	jal	80605e0c <comboConfig>
80607ce8:	afb10048 	sw	s1,72(sp)
80607cec:	50400005 	beqzl	v0,80607d04 <comboMenuKeysDraw+0x3c>
80607cf0:	8e0f0000 	lw	t7,0(s0)
80607cf4:	3c028061 	lui	v0,0x8061
80607cf8:	24030008 	li	v1,8
80607cfc:	ac43d394 	sw	v1,-11372(v0)
80607d00:	8e0f0000 	lw	t7,0(s0)
80607d04:	3c03fa00 	lui	v1,0xfa00
80607d08:	8de202c0 	lw	v0,704(t7)
80607d0c:	3c058062 	lui	a1,0x8062
80607d10:	ac430000 	sw	v1,0(v0)
80607d14:	240300ff 	li	v1,255
80607d18:	ac430004 	sw	v1,4(v0)
80607d1c:	3c03fcff 	lui	v1,0xfcff
80607d20:	3463ffff 	ori	v1,v1,0xffff
80607d24:	ac430008 	sw	v1,8(v0)
80607d28:	3c03fffd 	lui	v1,0xfffd
80607d2c:	3463f6fb 	ori	v1,v1,0xf6fb
80607d30:	ac43000c 	sw	v1,12(v0)
80607d34:	8ca31e38 	lw	v1,7736(a1)
80607d38:	2407ffff 	li	a3,-1
80607d3c:	24640004 	addiu	a0,v1,4
80607d40:	308403ff 	andi	a0,a0,0x3ff
80607d44:	aca41e38 	sw	a0,7736(a1)
80607d48:	2404ff92 	li	a0,-110
80607d4c:	afa40028 	sw	a0,40(sp)
80607d50:	afa40034 	sw	a0,52(sp)
80607d54:	2404003b 	li	a0,59
80607d58:	afa40018 	sw	a0,24(sp)
80607d5c:	afa4001c 	sw	a0,28(sp)
80607d60:	2404ffbb 	li	a0,-69
80607d64:	afa40020 	sw	a0,32(sp)
80607d68:	afa40024 	sw	a0,36(sp)
80607d6c:	3c048062 	lui	a0,0x8062
80607d70:	00031900 	sll	v1,v1,0x4
80607d74:	24841e40 	addiu	a0,a0,7744
80607d78:	2405006b 	li	a1,107
80607d7c:	00832021 	addu	a0,a0,v1
80607d80:	afa5002c 	sw	a1,44(sp)
80607d84:	afa50030 	sw	a1,48(sp)
80607d88:	00801825 	move	v1,a0
80607d8c:	00002825 	move	a1,zero
80607d90:	24060010 	li	a2,16
80607d94:	27a80028 	addiu	t0,sp,40
80607d98:	01054021 	addu	t0,t0,a1
80607d9c:	8d080000 	lw	t0,0(t0)
80607da0:	a4600004 	sh	zero,4(v1)
80607da4:	a4680000 	sh	t0,0(v1)
80607da8:	27a80018 	addiu	t0,sp,24
80607dac:	01054021 	addu	t0,t0,a1
80607db0:	8d080000 	lw	t0,0(t0)
80607db4:	24a50004 	addiu	a1,a1,4
80607db8:	a4680002 	sh	t0,2(v1)
80607dbc:	a4600008 	sh	zero,8(v1)
80607dc0:	a460000a 	sh	zero,10(v1)
80607dc4:	a4600006 	sh	zero,6(v1)
80607dc8:	a060000c 	sb	zero,12(v1)
80607dcc:	a060000d 	sb	zero,13(v1)
80607dd0:	a060000e 	sb	zero,14(v1)
80607dd4:	a067000f 	sb	a3,15(v1)
80607dd8:	14a6ffee 	bne	a1,a2,80607d94 <comboMenuKeysDraw+0xcc>
80607ddc:	24630010 	addiu	v1,v1,16
80607de0:	3c03e700 	lui	v1,0xe700
80607de4:	ac430010 	sw	v1,16(v0)
80607de8:	3c030100 	lui	v1,0x100
80607dec:	24634008 	addiu	v1,v1,16392
80607df0:	ac430018 	sw	v1,24(v0)
80607df4:	3c030600 	lui	v1,0x600
80607df8:	24630402 	addiu	v1,v1,1026
80607dfc:	ac430020 	sw	v1,32(v0)
80607e00:	24030604 	li	v1,1540
80607e04:	ac430024 	sw	v1,36(v0)
80607e08:	3c03fc11 	lui	v1,0xfc11
80607e0c:	34639623 	ori	v1,v1,0x9623
80607e10:	ac430028 	sw	v1,40(v0)
80607e14:	3c03ff2f 	lui	v1,0xff2f
80607e18:	3463ffff 	ori	v1,v1,0xffff
80607e1c:	ac43002c 	sw	v1,44(v0)
80607e20:	24430038 	addiu	v1,v0,56
80607e24:	ac400014 	sw	zero,20(v0)
80607e28:	ac44001c 	sw	a0,28(v0)
80607e2c:	ade302c0 	sw	v1,704(t7)
80607e30:	3c03db06 	lui	v1,0xdb06
80607e34:	24630018 	addiu	v1,v1,24
80607e38:	ac430030 	sw	v1,48(v0)
80607e3c:	3c038062 	lui	v1,0x8062
80607e40:	8c635ed8 	lw	v1,24280(v1)
80607e44:	3c198061 	lui	t9,0x8061
80607e48:	ac430034 	sw	v1,52(v0)
80607e4c:	3c028061 	lui	v0,0x8061
80607e50:	c44cdff0 	lwc1	$f12,-8208(v0)
80607e54:	3c028061 	lui	v0,0x8061
80607e58:	c44edff4 	lwc1	$f14,-8204(v0)
80607e5c:	0000c025 	move	t8,zero
80607e60:	2739d348 	addiu	t9,t9,-11448
80607e64:	3c028062 	lui	v0,0x8062
80607e68:	8c521e34 	lw	s2,7732(v0)
80607e6c:	00181040 	sll	v0,t8,0x1
80607e70:	00581021 	addu	v0,v0,t8
80607e74:	00021080 	sll	v0,v0,0x2
80607e78:	44820000 	mtc1	v0,$f0
80607e7c:	8de202c0 	lw	v0,704(t7)
80607e80:	03129021 	addu	s2,t8,s2
80607e84:	24430008 	addiu	v1,v0,8
80607e88:	00129100 	sll	s2,s2,0x4
80607e8c:	46800220 	cvt.s.w	$f8,$f0
80607e90:	ade302c0 	sw	v1,704(t7)
80607e94:	03329021 	addu	s2,t9,s2
80607e98:	3c03fa00 	lui	v1,0xfa00
80607e9c:	46086201 	sub.s	$f8,$f12,$f8
80607ea0:	ac430000 	sw	v1,0(v0)
80607ea4:	8e4b0000 	lw	t3,0(s2)
80607ea8:	2403ffff 	li	v1,-1
80607eac:	ac430004 	sw	v1,4(v0)
80607eb0:	00005025 	move	t2,zero
80607eb4:	254a0001 	addiu	t2,t2,1
80607eb8:	016a1021 	addu	v0,t3,t2
80607ebc:	8045ffff 	lb	a1,-1(v0)
80607ec0:	10a0000a 	beqz	a1,80607eec <comboMenuKeysDraw+0x224>
80607ec4:	000a30c0 	sll	a2,t2,0x3
80607ec8:	44860000 	mtc1	a2,$f0
80607ecc:	44074000 	mfc1	a3,$f8
80607ed0:	46800020 	cvt.s.w	$f0,$f0
80607ed4:	460e0001 	sub.s	$f0,$f0,$f14
80607ed8:	44060000 	mfc1	a2,$f0
80607edc:	0c181e22 	jal	80607888 <printChar>
80607ee0:	02002025 	move	a0,s0
80607ee4:	1000fff4 	b	80607eb8 <comboMenuKeysDraw+0x1f0>
80607ee8:	254a0001 	addiu	t2,t2,1
80607eec:	8e430008 	lw	v1,8(s2)
80607ef0:	30640002 	andi	a0,v1,0x2
80607ef4:	10800077 	beqz	a0,806080d4 <comboMenuKeysDraw+0x40c>
80607ef8:	8e420004 	lw	v0,4(s2)
80607efc:	1040000e 	beqz	v0,80607f38 <comboMenuKeysDraw+0x270>
80607f00:	24030001 	li	v1,1
80607f04:	50430028 	beql	v0,v1,80607fa8 <comboMenuKeysDraw+0x2e0>
80607f08:	8de202c0 	lw	v0,704(t7)
80607f0c:	27180001 	addiu	t8,t8,1
80607f10:	2402000a 	li	v0,10
80607f14:	5702ffd4 	bnel	t8,v0,80607e68 <comboMenuKeysDraw+0x1a0>
80607f18:	3c028062 	lui	v0,0x8062
80607f1c:	8fbf0054 	lw	ra,84(sp)
80607f20:	8fb30050 	lw	s3,80(sp)
80607f24:	8fb2004c 	lw	s2,76(sp)
80607f28:	8fb10048 	lw	s1,72(sp)
80607f2c:	8fb00044 	lw	s0,68(sp)
80607f30:	03e00008 	jr	ra
80607f34:	27bd0058 	addiu	sp,sp,88
80607f38:	8de202c0 	lw	v0,704(t7)
80607f3c:	44074000 	mfc1	a3,$f8
80607f40:	24430008 	addiu	v1,v0,8
80607f44:	ade302c0 	sw	v1,704(t7)
80607f48:	3c03fa00 	lui	v1,0xfa00
80607f4c:	ac430000 	sw	v1,0(v0)
80607f50:	3c03bc70 	lui	v1,0xbc70
80607f54:	24632dff 	addiu	v1,v1,11775
80607f58:	ac430004 	sw	v1,4(v0)
80607f5c:	3c028061 	lui	v0,0x8061
80607f60:	8c46dff8 	lw	a2,-8200(v0)
80607f64:	3c050600 	lui	a1,0x600
80607f68:	34a58b00 	ori	a1,a1,0x8b00
80607f6c:	0c181daf 	jal	806076bc <drawTexRGBA32.constprop.0>
80607f70:	02002025 	move	a0,s0
80607f74:	3c028062 	lui	v0,0x8062
80607f78:	80457990 	lb	a1,31120(v0)
80607f7c:	3c028061 	lui	v0,0x8061
80607f80:	c440dffc 	lwc1	$f0,-8196(v0)
80607f84:	e7a80014 	swc1	$f8,20(sp)
80607f88:	e7a00010 	swc1	$f0,16(sp)
80607f8c:	24070002 	li	a3,2
80607f90:	24060001 	li	a2,1
80607f94:	00052fc2 	srl	a1,a1,0x1f
80607f98:	0c181edb 	jal	80607b6c <printNumColored>
80607f9c:	02002025 	move	a0,s0
80607fa0:	1000ffdb 	b	80607f10 <comboMenuKeysDraw+0x248>
80607fa4:	27180001 	addiu	t8,t8,1
80607fa8:	3c13fa00 	lui	s3,0xfa00
80607fac:	24430008 	addiu	v1,v0,8
80607fb0:	ade302c0 	sw	v1,704(t7)
80607fb4:	3c03ffff 	lui	v1,0xffff
80607fb8:	246300ff 	addiu	v1,v1,255
80607fbc:	ac430004 	sw	v1,4(v0)
80607fc0:	ac530000 	sw	s3,0(v0)
80607fc4:	3c028061 	lui	v0,0x8061
80607fc8:	8c46e000 	lw	a2,-8192(v0)
80607fcc:	3c120600 	lui	s2,0x600
80607fd0:	44074000 	mfc1	a3,$f8
80607fd4:	36458d40 	ori	a1,s2,0x8d40
80607fd8:	0c181daf 	jal	806076bc <drawTexRGBA32.constprop.0>
80607fdc:	02002025 	move	a0,s0
80607fe0:	3c028012 	lui	v0,0x8012
80607fe4:	9445a6a0 	lhu	a1,-22880(v0)
80607fe8:	3c028061 	lui	v0,0x8061
80607fec:	c44ae004 	lwc1	$f10,-8188(v0)
80607ff0:	24070003 	li	a3,3
80607ff4:	24060064 	li	a2,100
80607ff8:	02002025 	move	a0,s0
80607ffc:	e7a80014 	swc1	$f8,20(sp)
80608000:	e7aa0010 	swc1	$f10,16(sp)
80608004:	0c181edb 	jal	80607b6c <printNumColored>
80608008:	afa50038 	sw	a1,56(sp)
8060800c:	44075000 	mfc1	a3,$f10
80608010:	8fa50038 	lw	a1,56(sp)
80608014:	24060003 	li	a2,3
80608018:	02002025 	move	a0,s0
8060801c:	0c181ea0 	jal	80607a80 <printNum>
80608020:	e7a80010 	swc1	$f8,16(sp)
80608024:	8de202c0 	lw	v0,704(t7)
80608028:	44074000 	mfc1	a3,$f8
8060802c:	24430008 	addiu	v1,v0,8
80608030:	ade302c0 	sw	v1,704(t7)
80608034:	3c0300ff 	lui	v1,0xff
80608038:	246300ff 	addiu	v1,v1,255
8060803c:	ac430004 	sw	v1,4(v0)
80608040:	ac530000 	sw	s3,0(v0)
80608044:	3c028061 	lui	v0,0x8061
80608048:	8c46e008 	lw	a2,-8184(v0)
8060804c:	36458d40 	ori	a1,s2,0x8d40
80608050:	0c181daf 	jal	806076bc <drawTexRGBA32.constprop.0>
80608054:	02002025 	move	a0,s0
80608058:	3c028061 	lui	v0,0x8061
8060805c:	c440e00c 	lwc1	$f0,-8180(v0)
80608060:	3c118062 	lui	s1,0x8062
80608064:	e7a00010 	swc1	$f0,16(sp)
80608068:	26316a90 	addiu	s1,s1,27280
8060806c:	e7a80014 	swc1	$f8,20(sp)
80608070:	96250ec0 	lhu	a1,3776(s1)
80608074:	24070002 	li	a3,2
80608078:	2406001e 	li	a2,30
8060807c:	0c181edb 	jal	80607b6c <printNumColored>
80608080:	02002025 	move	a0,s0
80608084:	8de202c0 	lw	v0,704(t7)
80608088:	44074000 	mfc1	a3,$f8
8060808c:	24430008 	addiu	v1,v0,8
80608090:	ade302c0 	sw	v1,704(t7)
80608094:	3403ffff 	li	v1,0xffff
80608098:	ac530000 	sw	s3,0(v0)
8060809c:	ac430004 	sw	v1,4(v0)
806080a0:	3c028061 	lui	v0,0x8061
806080a4:	8c46e010 	lw	a2,-8176(v0)
806080a8:	36458d40 	ori	a1,s2,0x8d40
806080ac:	0c181daf 	jal	806076bc <drawTexRGBA32.constprop.0>
806080b0:	02002025 	move	a0,s0
806080b4:	3c028061 	lui	v0,0x8061
806080b8:	c440e014 	lwc1	$f0,-8172(v0)
806080bc:	e7a80014 	swc1	$f8,20(sp)
806080c0:	e7a00010 	swc1	$f0,16(sp)
806080c4:	96250ec2 	lhu	a1,3778(s1)
806080c8:	24070002 	li	a3,2
806080cc:	1000ffb2 	b	80607f98 <comboMenuKeysDraw+0x2d0>
806080d0:	2406001e 	li	a2,30
806080d4:	30640001 	andi	a0,v1,0x1
806080d8:	10800077 	beqz	a0,806082b8 <comboMenuKeysDraw+0x5f0>
806080dc:	3c048012 	lui	a0,0x8012
806080e0:	3c048062 	lui	a0,0x8062
806080e4:	24846a90 	addiu	a0,a0,27280
806080e8:	00441021 	addu	v0,v0,a0
806080ec:	904d00c0 	lbu	t5,192(v0)
806080f0:	905100d4 	lbu	s1,212(v0)
806080f4:	000d7082 	srl	t6,t5,0x2
806080f8:	000d60c2 	srl	t4,t5,0x3
806080fc:	31ab0001 	andi	t3,t5,0x1
80608100:	000d6842 	srl	t5,t5,0x1
80608104:	31ce0001 	andi	t6,t6,0x1
80608108:	31ad0001 	andi	t5,t5,0x1
8060810c:	30630004 	andi	v1,v1,0x4
80608110:	50600020 	beqzl	v1,80608194 <comboMenuKeysDraw+0x4cc>
80608114:	8e420008 	lw	v0,8(s2)
80608118:	93aa001a 	lbu	t2,26(sp)
8060811c:	000e19c0 	sll	v1,t6,0x7
80608120:	314a003f 	andi	t2,t2,0x3f
80608124:	000d1180 	sll	v0,t5,0x6
80608128:	01435025 	or	t2,t2,v1
8060812c:	01425025 	or	t2,t2,v0
80608130:	314a00df 	andi	t2,t2,0xdf
80608134:	000b1140 	sll	v0,t3,0x5
80608138:	01425025 	or	t2,t2,v0
8060813c:	000a1600 	sll	v0,t2,0x18
80608140:	00021603 	sra	v0,v0,0x18
80608144:	04410008 	bgez	v0,80608168 <comboMenuKeysDraw+0x4a0>
80608148:	a3aa001a 	sb	t2,26(sp)
8060814c:	3c028061 	lui	v0,0x8061
80608150:	3c050600 	lui	a1,0x600
80608154:	44074000 	mfc1	a3,$f8
80608158:	8c46e000 	lw	a2,-8192(v0)
8060815c:	34a58680 	ori	a1,a1,0x8680
80608160:	0c181daf 	jal	806076bc <drawTexRGBA32.constprop.0>
80608164:	02002025 	move	a0,s0
80608168:	314a0040 	andi	t2,t2,0x40
8060816c:	51400009 	beqzl	t2,80608194 <comboMenuKeysDraw+0x4cc>
80608170:	8e420008 	lw	v0,8(s2)
80608174:	3c028061 	lui	v0,0x8061
80608178:	3c050600 	lui	a1,0x600
8060817c:	44074000 	mfc1	a3,$f8
80608180:	8c46e004 	lw	a2,-8188(v0)
80608184:	34a588c0 	ori	a1,a1,0x88c0
80608188:	0c181daf 	jal	806076bc <drawTexRGBA32.constprop.0>
8060818c:	02002025 	move	a0,s0
80608190:	8e420008 	lw	v0,8(s2)
80608194:	30420008 	andi	v0,v0,0x8
80608198:	50400016 	beqzl	v0,806081f4 <comboMenuKeysDraw+0x52c>
8060819c:	8e42000c 	lw	v0,12(s2)
806081a0:	93a2001a 	lbu	v0,26(sp)
806081a4:	000e71c0 	sll	t6,t6,0x7
806081a8:	3042003f 	andi	v0,v0,0x3f
806081ac:	000d6980 	sll	t5,t5,0x6
806081b0:	004e1025 	or	v0,v0,t6
806081b4:	004d1025 	or	v0,v0,t5
806081b8:	000b5940 	sll	t3,t3,0x5
806081bc:	304200df 	andi	v0,v0,0xdf
806081c0:	004b5825 	or	t3,v0,t3
806081c4:	a3ab001a 	sb	t3,26(sp)
806081c8:	316b0020 	andi	t3,t3,0x20
806081cc:	51600009 	beqzl	t3,806081f4 <comboMenuKeysDraw+0x52c>
806081d0:	8e42000c 	lw	v0,12(s2)
806081d4:	3c028061 	lui	v0,0x8061
806081d8:	3c050600 	lui	a1,0x600
806081dc:	44074000 	mfc1	a3,$f8
806081e0:	8c46e018 	lw	a2,-8168(v0)
806081e4:	34a58440 	ori	a1,a1,0x8440
806081e8:	0c181daf 	jal	806076bc <drawTexRGBA32.constprop.0>
806081ec:	02002025 	move	a0,s0
806081f0:	8e42000c 	lw	v0,12(s2)
806081f4:	50400012 	beqzl	v0,80608240 <comboMenuKeysDraw+0x578>
806081f8:	8e420008 	lw	v0,8(s2)
806081fc:	3c028061 	lui	v0,0x8061
80608200:	8c46e008 	lw	a2,-8184(v0)
80608204:	44074000 	mfc1	a3,$f8
80608208:	3c050600 	lui	a1,0x600
8060820c:	34a58200 	ori	a1,a1,0x8200
80608210:	0c181daf 	jal	806076bc <drawTexRGBA32.constprop.0>
80608214:	02002025 	move	a0,s0
80608218:	3c028061 	lui	v0,0x8061
8060821c:	c440e00c 	lwc1	$f0,-8180(v0)
80608220:	e7a80014 	swc1	$f8,20(sp)
80608224:	e7a00010 	swc1	$f0,16(sp)
80608228:	8e46000c 	lw	a2,12(s2)
8060822c:	24070001 	li	a3,1
80608230:	01802825 	move	a1,t4
80608234:	0c181edb 	jal	80607b6c <printNumColored>
80608238:	02002025 	move	a0,s0
8060823c:	8e420008 	lw	v0,8(s2)
80608240:	30420010 	andi	v0,v0,0x10
80608244:	5040ff32 	beqzl	v0,80607f10 <comboMenuKeysDraw+0x248>
80608248:	27180001 	addiu	t8,t8,1
8060824c:	8e420004 	lw	v0,4(s2)
80608250:	3c038061 	lui	v1,0x8061
80608254:	2463dfc8 	addiu	v1,v1,-8248
80608258:	00021080 	sll	v0,v0,0x2
8060825c:	00431021 	addu	v0,v0,v1
80608260:	8c430000 	lw	v1,0(v0)
80608264:	8de202c0 	lw	v0,704(t7)
80608268:	44074000 	mfc1	a3,$f8
8060826c:	24440008 	addiu	a0,v0,8
80608270:	ade402c0 	sw	a0,704(t7)
80608274:	3c04fa00 	lui	a0,0xfa00
80608278:	ac440000 	sw	a0,0(v0)
8060827c:	ac430004 	sw	v1,4(v0)
80608280:	3c028061 	lui	v0,0x8061
80608284:	8c46dff8 	lw	a2,-8200(v0)
80608288:	3c050600 	lui	a1,0x600
8060828c:	34a58b00 	ori	a1,a1,0x8b00
80608290:	0c181daf 	jal	806076bc <drawTexRGBA32.constprop.0>
80608294:	02002025 	move	a0,s0
80608298:	3c028061 	lui	v0,0x8061
8060829c:	c440dffc 	lwc1	$f0,-8196(v0)
806082a0:	e7a80014 	swc1	$f8,20(sp)
806082a4:	e7a00010 	swc1	$f0,16(sp)
806082a8:	24070002 	li	a3,2
806082ac:	2406000f 	li	a2,15
806082b0:	1000ff39 	b	80607f98 <comboMenuKeysDraw+0x2d0>
806082b4:	02202825 	move	a1,s1
806082b8:	2484a5d0 	addiu	a0,a0,-23088
806082bc:	00442821 	addu	a1,v0,a0
806082c0:	90ab00a8 	lbu	t3,168(a1)
806082c4:	2405000d 	li	a1,13
806082c8:	000b7082 	srl	t6,t3,0x2
806082cc:	000b6842 	srl	t5,t3,0x1
806082d0:	000b60c2 	srl	t4,t3,0x3
806082d4:	31ce0001 	andi	t6,t6,0x1
806082d8:	14450003 	bne	v0,a1,806082e8 <comboMenuKeysDraw+0x620>
806082dc:	31ad0001 	andi	t5,t5,0x1
806082e0:	8c8b00b0 	lw	t3,176(a0)
806082e4:	000b5a02 	srl	t3,t3,0x8
806082e8:	316b0001 	andi	t3,t3,0x1
806082ec:	1000ff87 	b	8060810c <comboMenuKeysDraw+0x444>
806082f0:	00008825 	move	s1,zero

806082f4 <comboLoadContext>:
806082f4:	27bdffe0 	addiu	sp,sp,-32
806082f8:	afb10014 	sw	s1,20(sp)
806082fc:	afb00010 	sw	s0,16(sp)
80608300:	3c118000 	lui	s1,0x8000
80608304:	3c108062 	lui	s0,0x8062
80608308:	26045e40 	addiu	a0,s0,24128
8060830c:	afb20018 	sw	s2,24(sp)
80608310:	24060014 	li	a2,20
80608314:	26256584 	addiu	a1,s1,25988
80608318:	afbf001c 	sw	ra,28(sp)
8060831c:	0c18349e 	jal	8060d278 <memcpy>
80608320:	3c128061 	lui	s2,0x8061
80608324:	26045e40 	addiu	a0,s0,24128
80608328:	24060008 	li	a2,8
8060832c:	0c1834b5 	jal	8060d2d4 <memcmp>
80608330:	2645e01c 	addiu	a1,s2,-8164
80608334:	10400012 	beqz	v0,80608380 <comboLoadContext+0x8c>
80608338:	26105e40 	addiu	s0,s0,24128
8060833c:	24050014 	li	a1,20
80608340:	0c000ba0 	jal	80002e80 <bzero>
80608344:	02002025 	move	a0,s0
80608348:	24060008 	li	a2,8
8060834c:	2645e01c 	addiu	a1,s2,-8164
80608350:	0c18349e 	jal	8060d278 <memcpy>
80608354:	02002025 	move	a0,s0
80608358:	2402ffff 	li	v0,-1
8060835c:	ae020010 	sw	v0,16(s0)
80608360:	8fbf001c 	lw	ra,28(sp)
80608364:	8fb20018 	lw	s2,24(sp)
80608368:	8fb00010 	lw	s0,16(sp)
8060836c:	26246584 	addiu	a0,s1,25988
80608370:	8fb10014 	lw	s1,20(sp)
80608374:	24050014 	li	a1,20
80608378:	08000ba0 	j	80002e80 <bzero>
8060837c:	27bd0020 	addiu	sp,sp,32
80608380:	24020001 	li	v0,1
80608384:	1000fff6 	b	80608360 <comboLoadContext+0x6c>
80608388:	ae020008 	sw	v0,8(s0)

8060838c <comboExportContext>:
8060838c:	3c058062 	lui	a1,0x8062
80608390:	3c02800a 	lui	v0,0x800a
80608394:	3c04a000 	lui	a0,0xa000
80608398:	24a55e40 	addiu	a1,a1,24128
8060839c:	24428280 	addiu	v0,v0,-32128
806083a0:	00a42825 	or	a1,a1,a0
806083a4:	24060014 	li	a2,20
806083a8:	0818349e 	j	8060d278 <memcpy>
806083ac:	00442025 	or	a0,v0,a0

806083b0 <comboDisableInterrupts>:
806083b0:	40046000 	mfc0	a0,c0_sr
806083b4:	2405fffe 	li	a1,-2
806083b8:	00852024 	and	a0,a0,a1
806083bc:	40846000 	mtc0	a0,c0_sr
806083c0:	40804800 	mtc0	zero,c0_count
806083c4:	40805800 	mtc0	zero,c0_compare
806083c8:	40806800 	mtc0	zero,c0_cause
806083cc:	3c05a430 	lui	a1,0xa430
806083d0:	34040555 	li	a0,0x555
806083d4:	03e00008 	jr	ra
806083d8:	aca4000c 	sw	a0,12(a1)

806083dc <comboToggleTrade>:
806083dc:	00001025 	move	v0,zero
806083e0:	14470004 	bne	v0,a3,806083f4 <comboToggleTrade+0x18>
806083e4:	00c21821 	addu	v1,a2,v0
806083e8:	240300ff 	li	v1,255
806083ec:	03e00008 	jr	ra
806083f0:	a0830000 	sb	v1,0(a0)
806083f4:	90880000 	lbu	t0,0(a0)
806083f8:	90630000 	lbu	v1,0(v1)
806083fc:	5503fff8 	bnel	t0,v1,806083e0 <comboToggleTrade+0x4>
80608400:	24420001 	addiu	v0,v0,1
80608404:	2408ffff 	li	t0,-1
80608408:	1048fff8 	beq	v0,t0,806083ec <comboToggleTrade+0x10>
8060840c:	240300ff 	li	v1,255
80608410:	24080001 	li	t0,1
80608414:	24420001 	addiu	v0,v0,1
80608418:	0047182b 	sltu	v1,v0,a3
8060841c:	50600001 	beqzl	v1,80608424 <comboToggleTrade+0x48>
80608420:	00001025 	move	v0,zero
80608424:	00481804 	sllv	v1,t0,v0
80608428:	00651824 	and	v1,v1,a1
8060842c:	5060fffa 	beqzl	v1,80608418 <comboToggleTrade+0x3c>
80608430:	24420001 	addiu	v0,v0,1
80608434:	00c23021 	addu	a2,a2,v0
80608438:	1000ffec 	b	806083ec <comboToggleTrade+0x10>
8060843c:	90c30000 	lbu	v1,0(a2)

80608440 <comboProgressive>:
80608440:	30830100 	andi	v1,a0,0x100
80608444:	14600003 	bnez	v1,80608454 <comboProgressive+0x14>
80608448:	00000000 	nop
8060844c:	081832d0 	j	8060cb40 <comboProgressiveOot>
80608450:	00000000 	nop
80608454:	27bdffe8 	addiu	sp,sp,-24
80608458:	afbf0014 	sw	ra,20(sp)
8060845c:	0c18171b 	jal	80605c6c <comboProgressiveMm>
80608460:	308400ff 	andi	a0,a0,0xff
80608464:	8fbf0014 	lw	ra,20(sp)
80608468:	34420100 	ori	v0,v0,0x100
8060846c:	03e00008 	jr	ra
80608470:	27bd0018 	addiu	sp,sp,24

80608474 <comboDowngrade>:
80608474:	27bdffe8 	addiu	sp,sp,-24
80608478:	afb00010 	sw	s0,16(sp)
8060847c:	afbf0014 	sw	ra,20(sp)
80608480:	0c182af1 	jal	8060abc4 <comboIsItemUnavailable>
80608484:	00808025 	move	s0,a0
80608488:	10400006 	beqz	v0,806084a4 <comboDowngrade+0x30>
8060848c:	8fbf0014 	lw	ra,20(sp)
80608490:	32020100 	andi	v0,s0,0x100
80608494:	14400003 	bnez	v0,806084a4 <comboDowngrade+0x30>
80608498:	24100102 	li	s0,258
8060849c:	2410004d 	li	s0,77
806084a0:	8fbf0014 	lw	ra,20(sp)
806084a4:	02001025 	move	v0,s0
806084a8:	8fb00010 	lw	s0,16(sp)
806084ac:	03e00008 	jr	ra
806084b0:	27bd0018 	addiu	sp,sp,24

806084b4 <addHealth>:
806084b4:	3c028012 	lui	v0,0x8012
806084b8:	2442a5d0 	addiu	v0,v0,-23088
806084bc:	94430030 	lhu	v1,48(v0)
806084c0:	9445002e 	lhu	a1,46(v0)
806084c4:	00042100 	sll	a0,a0,0x4
806084c8:	00832021 	addu	a0,a0,v1
806084cc:	00801825 	move	v1,a0
806084d0:	00053400 	sll	a2,a1,0x10
806084d4:	00042400 	sll	a0,a0,0x10
806084d8:	00042403 	sra	a0,a0,0x10
806084dc:	00063403 	sra	a2,a2,0x10
806084e0:	00c4202a 	slt	a0,a2,a0
806084e4:	54800001 	bnezl	a0,806084ec <addHealth+0x38>
806084e8:	00a01825 	move	v1,a1
806084ec:	03e00008 	jr	ra
806084f0:	a4430030 	sh	v1,48(v0)

806084f4 <addSticks>:
806084f4:	3c028012 	lui	v0,0x8012
806084f8:	2442a5d0 	addiu	v0,v0,-23088
806084fc:	8c4300a0 	lw	v1,160(v0)
80608500:	3c05000e 	lui	a1,0xe
80608504:	00a32824 	and	a1,a1,v1
80608508:	14a00009 	bnez	a1,80608530 <addSticks+0x3c>
8060850c:	3c058061 	lui	a1,0x8061
80608510:	3c05fff1 	lui	a1,0xfff1
80608514:	34a5ffff 	ori	a1,a1,0xffff
80608518:	00651824 	and	v1,v1,a1
8060851c:	3c050002 	lui	a1,0x2
80608520:	00651825 	or	v1,v1,a1
80608524:	ac4300a0 	sw	v1,160(v0)
80608528:	8c4300a0 	lw	v1,160(v0)
8060852c:	3c058061 	lui	a1,0x8061
80608530:	00031c42 	srl	v1,v1,0x11
80608534:	24a529cc 	addiu	a1,a1,10700
80608538:	30630007 	andi	v1,v1,0x7
8060853c:	00651821 	addu	v1,v1,a1
80608540:	90650000 	lbu	a1,0(v1)
80608544:	9043008c 	lbu	v1,140(v0)
80608548:	00832021 	addu	a0,a0,v1
8060854c:	00801825 	move	v1,a0
80608550:	308400ff 	andi	a0,a0,0xff
80608554:	00a4202b 	sltu	a0,a1,a0
80608558:	10800002 	beqz	a0,80608564 <addSticks+0x70>
8060855c:	a0400074 	sb	zero,116(v0)
80608560:	00a01825 	move	v1,a1
80608564:	03e00008 	jr	ra
80608568:	a043008c 	sb	v1,140(v0)

8060856c <addNewBottle>:
8060856c:	3c028012 	lui	v0,0x8012
80608570:	2442a5d0 	addiu	v0,v0,-23088
80608574:	90450086 	lbu	a1,134(v0)
80608578:	240300ff 	li	v1,255
8060857c:	50a3000a 	beql	a1,v1,806085a8 <addNewBottle+0x3c>
80608580:	24030012 	li	v1,18
80608584:	90450087 	lbu	a1,135(v0)
80608588:	50a30007 	beql	a1,v1,806085a8 <addNewBottle+0x3c>
8060858c:	24030013 	li	v1,19
80608590:	90450088 	lbu	a1,136(v0)
80608594:	50a30004 	beql	a1,v1,806085a8 <addNewBottle+0x3c>
80608598:	24030014 	li	v1,20
8060859c:	90450089 	lbu	a1,137(v0)
806085a0:	14a30003 	bne	a1,v1,806085b0 <addNewBottle+0x44>
806085a4:	24030015 	li	v1,21
806085a8:	00431021 	addu	v0,v0,v1
806085ac:	a0440074 	sb	a0,116(v0)
806085b0:	03e00008 	jr	ra
806085b4:	00000000 	nop
806085b8:	1000fffb 	b	806085a8 <addNewBottle+0x3c>
806085bc:	24030013 	li	v1,19

806085c0 <fillBottle>:
806085c0:	3c028012 	lui	v0,0x8012
806085c4:	2442a5d0 	addiu	v0,v0,-23088
806085c8:	90450086 	lbu	a1,134(v0)
806085cc:	24030014 	li	v1,20
806085d0:	50a3000a 	beql	a1,v1,806085fc <fillBottle+0x3c>
806085d4:	24030012 	li	v1,18
806085d8:	90450087 	lbu	a1,135(v0)
806085dc:	50a30007 	beql	a1,v1,806085fc <fillBottle+0x3c>
806085e0:	24030013 	li	v1,19
806085e4:	90450088 	lbu	a1,136(v0)
806085e8:	10a30005 	beq	a1,v1,80608600 <fillBottle+0x40>
806085ec:	00432821 	addu	a1,v0,v1
806085f0:	90450089 	lbu	a1,137(v0)
806085f4:	14a30011 	bne	a1,v1,8060863c <fillBottle+0x7c>
806085f8:	24030015 	li	v1,21
806085fc:	00432821 	addu	a1,v0,v1
80608600:	308400ff 	andi	a0,a0,0xff
80608604:	a0a40074 	sb	a0,116(a1)
80608608:	9045006c 	lbu	a1,108(v0)
8060860c:	50650001 	beql	v1,a1,80608614 <fillBottle+0x54>
80608610:	a0440069 	sb	a0,105(v0)
80608614:	9045006d 	lbu	a1,109(v0)
80608618:	50650001 	beql	v1,a1,80608620 <fillBottle+0x60>
8060861c:	a044006a 	sb	a0,106(v0)
80608620:	9045006e 	lbu	a1,110(v0)
80608624:	14650005 	bne	v1,a1,8060863c <fillBottle+0x7c>
80608628:	00000000 	nop
8060862c:	03e00008 	jr	ra
80608630:	a044006b 	sb	a0,107(v0)
80608634:	1000fff1 	b	806085fc <fillBottle+0x3c>
80608638:	24030014 	li	v1,20
8060863c:	03e00008 	jr	ra
80608640:	00000000 	nop

80608644 <addTradeChild>:
80608644:	3c028012 	lui	v0,0x8012
80608648:	2442a5d0 	addiu	v0,v0,-23088
8060864c:	9045008b 	lbu	a1,139(v0)
80608650:	240300ff 	li	v1,255
80608654:	14a30007 	bne	a1,v1,80608674 <addTradeChild+0x30>
80608658:	24030001 	li	v1,1
8060865c:	3c038061 	lui	v1,0x8061
80608660:	2463e31c 	addiu	v1,v1,-7396
80608664:	00641821 	addu	v1,v1,a0
80608668:	90630000 	lbu	v1,0(v1)
8060866c:	a043008b 	sb	v1,139(v0)
80608670:	24030001 	li	v1,1
80608674:	00832004 	sllv	a0,v1,a0
80608678:	944300e4 	lhu	v1,228(v0)
8060867c:	00832025 	or	a0,a0,v1
80608680:	03e00008 	jr	ra
80608684:	a44400e4 	sh	a0,228(v0)

80608688 <addTradeAdult>:
80608688:	3c028012 	lui	v0,0x8012
8060868c:	2442a5d0 	addiu	v0,v0,-23088
80608690:	9045008a 	lbu	a1,138(v0)
80608694:	240300ff 	li	v1,255
80608698:	14a30007 	bne	a1,v1,806086b8 <addTradeAdult+0x30>
8060869c:	24030001 	li	v1,1
806086a0:	3c038061 	lui	v1,0x8061
806086a4:	2463e328 	addiu	v1,v1,-7384
806086a8:	00641821 	addu	v1,v1,a0
806086ac:	90630000 	lbu	v1,0(v1)
806086b0:	a043008a 	sb	v1,138(v0)
806086b4:	24030001 	li	v1,1
806086b8:	00832004 	sllv	a0,v1,a0
806086bc:	944300e6 	lhu	v1,230(v0)
806086c0:	00832025 	or	a0,a0,v1
806086c4:	03e00008 	jr	ra
806086c8:	a44400e6 	sh	a0,230(v0)

806086cc <addRupees>:
806086cc:	3c038012 	lui	v1,0x8012
806086d0:	2463a5d0 	addiu	v1,v1,-23088
806086d4:	94620034 	lhu	v0,52(v1)
806086d8:	3c058061 	lui	a1,0x8061
806086dc:	00822021 	addu	a0,a0,v0
806086e0:	8c6200a0 	lw	v0,160(v1)
806086e4:	24a529b4 	addiu	a1,a1,10676
806086e8:	000212c2 	srl	v0,v0,0xb
806086ec:	30420006 	andi	v0,v0,0x6
806086f0:	00451021 	addu	v0,v0,a1
806086f4:	94450000 	lhu	a1,0(v0)
806086f8:	00801025 	move	v0,a0
806086fc:	30a6ffff 	andi	a2,a1,0xffff
80608700:	3084ffff 	andi	a0,a0,0xffff
80608704:	00c4202b 	sltu	a0,a2,a0
80608708:	54800001 	bnezl	a0,80608710 <addRupees+0x44>
8060870c:	00a01025 	move	v0,a1
80608710:	03e00008 	jr	ra
80608714:	a4620034 	sh	v0,52(v1)

80608718 <addHookshot>:
80608718:	3c028012 	lui	v0,0x8012
8060871c:	2442a5d0 	addiu	v0,v0,-23088
80608720:	24830009 	addiu	v1,a0,9
80608724:	24050001 	li	a1,1
80608728:	2484ffff 	addiu	a0,a0,-1
8060872c:	00852004 	sllv	a0,a1,a0
80608730:	90450101 	lbu	a1,257(v0)
80608734:	306300ff 	andi	v1,v1,0xff
80608738:	00852025 	or	a0,a0,a1
8060873c:	9045006c 	lbu	a1,108(v0)
80608740:	a0440101 	sb	a0,257(v0)
80608744:	24040009 	li	a0,9
80608748:	14a40002 	bne	a1,a0,80608754 <addHookshot+0x3c>
8060874c:	a043007d 	sb	v1,125(v0)
80608750:	a0430069 	sb	v1,105(v0)
80608754:	9045006d 	lbu	a1,109(v0)
80608758:	24040009 	li	a0,9
8060875c:	50a40001 	beql	a1,a0,80608764 <addHookshot+0x4c>
80608760:	a043006a 	sb	v1,106(v0)
80608764:	9045006e 	lbu	a1,110(v0)
80608768:	24040009 	li	a0,9
8060876c:	50a40001 	beql	a1,a0,80608774 <addHookshot+0x5c>
80608770:	a043006b 	sb	v1,107(v0)
80608774:	03e00008 	jr	ra
80608778:	00000000 	nop

8060877c <addOcarina>:
8060877c:	3c028012 	lui	v0,0x8012
80608780:	2442a5d0 	addiu	v0,v0,-23088
80608784:	24830006 	addiu	v1,a0,6
80608788:	24050001 	li	a1,1
8060878c:	2484ffff 	addiu	a0,a0,-1
80608790:	00852004 	sllv	a0,a1,a0
80608794:	90450103 	lbu	a1,259(v0)
80608798:	306300ff 	andi	v1,v1,0xff
8060879c:	00852025 	or	a0,a0,a1
806087a0:	9045006c 	lbu	a1,108(v0)
806087a4:	a0440103 	sb	a0,259(v0)
806087a8:	24040007 	li	a0,7
806087ac:	14a40002 	bne	a1,a0,806087b8 <addOcarina+0x3c>
806087b0:	a043007b 	sb	v1,123(v0)
806087b4:	a0430069 	sb	v1,105(v0)
806087b8:	9045006d 	lbu	a1,109(v0)
806087bc:	24040007 	li	a0,7
806087c0:	50a40001 	beql	a1,a0,806087c8 <addOcarina+0x4c>
806087c4:	a043006a 	sb	v1,106(v0)
806087c8:	9045006e 	lbu	a1,110(v0)
806087cc:	24040007 	li	a0,7
806087d0:	50a40001 	beql	a1,a0,806087d8 <addOcarina+0x5c>
806087d4:	a043006b 	sb	v1,107(v0)
806087d8:	03e00008 	jr	ra
806087dc:	00000000 	nop

806087e0 <addBombchu>:
806087e0:	3c028012 	lui	v0,0x8012
806087e4:	2442a5d0 	addiu	v0,v0,-23088
806087e8:	24030009 	li	v1,9
806087ec:	a043007c 	sb	v1,124(v0)
806087f0:	90430094 	lbu	v1,148(v0)
806087f4:	00832021 	addu	a0,a0,v1
806087f8:	00801825 	move	v1,a0
806087fc:	308400ff 	andi	a0,a0,0xff
80608800:	2c840033 	sltiu	a0,a0,51
80608804:	50800001 	beqzl	a0,8060880c <addBombchu+0x2c>
80608808:	24030032 	li	v1,50
8060880c:	03e00008 	jr	ra
80608810:	a0430094 	sb	v1,148(v0)

80608814 <addSeeds>:
80608814:	3c028012 	lui	v0,0x8012
80608818:	2442a5d0 	addiu	v0,v0,-23088
8060881c:	8c4300a0 	lw	v1,160(v0)
80608820:	3c050001 	lui	a1,0x1
80608824:	34a5c000 	ori	a1,a1,0xc000
80608828:	00652824 	and	a1,v1,a1
8060882c:	10a00013 	beqz	a1,8060887c <addSeeds+0x68>
80608830:	00031b82 	srl	v1,v1,0xe
80608834:	3c058061 	lui	a1,0x8061
80608838:	24a529bc 	addiu	a1,a1,10684
8060883c:	30630007 	andi	v1,v1,0x7
80608840:	00651821 	addu	v1,v1,a1
80608844:	90650000 	lbu	a1,0(v1)
80608848:	24030006 	li	v1,6
8060884c:	a043007a 	sb	v1,122(v0)
80608850:	90430092 	lbu	v1,146(v0)
80608854:	00832021 	addu	a0,a0,v1
80608858:	00801825 	move	v1,a0
8060885c:	308400ff 	andi	a0,a0,0xff
80608860:	00a4202b 	sltu	a0,a1,a0
80608864:	54800001 	bnezl	a0,8060886c <addSeeds+0x58>
80608868:	00a01825 	move	v1,a1
8060886c:	a0430092 	sb	v1,146(v0)
80608870:	94430ef2 	lhu	v1,3826(v0)
80608874:	34630008 	ori	v1,v1,0x8
80608878:	a4430ef2 	sh	v1,3826(v0)
8060887c:	03e00008 	jr	ra
80608880:	00000000 	nop

80608884 <addArrows>:
80608884:	3c028012 	lui	v0,0x8012
80608888:	2442a5d0 	addiu	v0,v0,-23088
8060888c:	8c4500a0 	lw	a1,160(v0)
80608890:	30a50007 	andi	a1,a1,0x7
80608894:	10a0000d 	beqz	a1,806088cc <addArrows+0x48>
80608898:	3c038061 	lui	v1,0x8061
8060889c:	246329c0 	addiu	v1,v1,10688
806088a0:	00651821 	addu	v1,v1,a1
806088a4:	24050003 	li	a1,3
806088a8:	a0450077 	sb	a1,119(v0)
806088ac:	9045008f 	lbu	a1,143(v0)
806088b0:	90630000 	lbu	v1,0(v1)
806088b4:	00852021 	addu	a0,a0,a1
806088b8:	308400ff 	andi	a0,a0,0xff
806088bc:	0064282b 	sltu	a1,v1,a0
806088c0:	54a00002 	bnezl	a1,806088cc <addArrows+0x48>
806088c4:	a043008f 	sb	v1,143(v0)
806088c8:	a044008f 	sb	a0,143(v0)
806088cc:	03e00008 	jr	ra
806088d0:	00000000 	nop

806088d4 <addBombs>:
806088d4:	3c038012 	lui	v1,0x8012
806088d8:	2463a5d0 	addiu	v1,v1,-23088
806088dc:	8c6200a0 	lw	v0,160(v1)
806088e0:	30450038 	andi	a1,v0,0x38
806088e4:	10a0000f 	beqz	a1,80608924 <addBombs+0x50>
806088e8:	000210c2 	srl	v0,v0,0x3
806088ec:	3c058061 	lui	a1,0x8061
806088f0:	24a529c4 	addiu	a1,a1,10692
806088f4:	30420007 	andi	v0,v0,0x7
806088f8:	00451021 	addu	v0,v0,a1
806088fc:	24050002 	li	a1,2
80608900:	a0650076 	sb	a1,118(v1)
80608904:	9065008e 	lbu	a1,142(v1)
80608908:	90420000 	lbu	v0,0(v0)
8060890c:	00852021 	addu	a0,a0,a1
80608910:	308400ff 	andi	a0,a0,0xff
80608914:	0044282b 	sltu	a1,v0,a0
80608918:	54a00002 	bnezl	a1,80608924 <addBombs+0x50>
8060891c:	a062008e 	sb	v0,142(v1)
80608920:	a064008e 	sb	a0,142(v1)
80608924:	03e00008 	jr	ra
80608928:	00000000 	nop

8060892c <addNuts>:
8060892c:	3c028012 	lui	v0,0x8012
80608930:	2442a5d0 	addiu	v0,v0,-23088
80608934:	8c4300a0 	lw	v1,160(v0)
80608938:	3c050070 	lui	a1,0x70
8060893c:	00a32824 	and	a1,a1,v1
80608940:	14a00009 	bnez	a1,80608968 <addNuts+0x3c>
80608944:	3c058061 	lui	a1,0x8061
80608948:	3c05ff8f 	lui	a1,0xff8f
8060894c:	34a5ffff 	ori	a1,a1,0xffff
80608950:	00651824 	and	v1,v1,a1
80608954:	3c050010 	lui	a1,0x10
80608958:	00651825 	or	v1,v1,a1
8060895c:	ac4300a0 	sw	v1,160(v0)
80608960:	8c4300a0 	lw	v1,160(v0)
80608964:	3c058061 	lui	a1,0x8061
80608968:	00031d02 	srl	v1,v1,0x14
8060896c:	24a529c8 	addiu	a1,a1,10696
80608970:	30630007 	andi	v1,v1,0x7
80608974:	00651821 	addu	v1,v1,a1
80608978:	90650000 	lbu	a1,0(v1)
8060897c:	24030001 	li	v1,1
80608980:	a0430075 	sb	v1,117(v0)
80608984:	9043008d 	lbu	v1,141(v0)
80608988:	00832021 	addu	a0,a0,v1
8060898c:	00801825 	move	v1,a0
80608990:	308400ff 	andi	a0,a0,0xff
80608994:	00a4202b 	sltu	a0,a1,a0
80608998:	54800001 	bnezl	a0,806089a0 <addNuts+0x74>
8060899c:	00a01825 	move	v1,a1
806089a0:	03e00008 	jr	ra
806089a4:	a043008d 	sb	v1,141(v0)

806089a8 <comboAddSmallKeyOot>:
806089a8:	3c028012 	lui	v0,0x8012
806089ac:	2442a5d0 	addiu	v0,v0,-23088
806089b0:	00441821 	addu	v1,v0,a0
806089b4:	806300bc 	lb	v1,188(v1)
806089b8:	04600004 	bltz	v1,806089cc <comboAddSmallKeyOot+0x24>
806089bc:	24050001 	li	a1,1
806089c0:	24630001 	addiu	v1,v1,1
806089c4:	00032e00 	sll	a1,v1,0x18
806089c8:	00052e03 	sra	a1,a1,0x18
806089cc:	00442021 	addu	a0,v0,a0
806089d0:	908200a8 	lbu	v0,168(a0)
806089d4:	a08500bc 	sb	a1,188(a0)
806089d8:	24420008 	addiu	v0,v0,8
806089dc:	03e00008 	jr	ra
806089e0:	a08200a8 	sb	v0,168(a0)

806089e4 <comboAddBossKeyOot>:
806089e4:	3c028012 	lui	v0,0x8012
806089e8:	2442a5d0 	addiu	v0,v0,-23088
806089ec:	00442021 	addu	a0,v0,a0
806089f0:	908200a8 	lbu	v0,168(a0)
806089f4:	34420001 	ori	v0,v0,0x1
806089f8:	03e00008 	jr	ra
806089fc:	a08200a8 	sb	v0,168(a0)

80608a00 <comboAddCompassOot>:
80608a00:	3c028012 	lui	v0,0x8012
80608a04:	2442a5d0 	addiu	v0,v0,-23088
80608a08:	00442021 	addu	a0,v0,a0
80608a0c:	908200a8 	lbu	v0,168(a0)
80608a10:	34420002 	ori	v0,v0,0x2
80608a14:	03e00008 	jr	ra
80608a18:	a08200a8 	sb	v0,168(a0)

80608a1c <comboAddMapOot>:
80608a1c:	3c028012 	lui	v0,0x8012
80608a20:	2442a5d0 	addiu	v0,v0,-23088
80608a24:	00442021 	addu	a0,v0,a0
80608a28:	908200a8 	lbu	v0,168(a0)
80608a2c:	34420004 	ori	v0,v0,0x4
80608a30:	03e00008 	jr	ra
80608a34:	a08200a8 	sb	v0,168(a0)

80608a38 <comboAddItemOot>:
80608a38:	2484ffff 	addiu	a0,a0,-1
80608a3c:	3084ffff 	andi	a0,a0,0xffff
80608a40:	2c8200bd 	sltiu	v0,a0,189
80608a44:	1040037b 	beqz	v0,80609834 <comboAddItemOot+0xdfc>
80608a48:	3c028061 	lui	v0,0x8061
80608a4c:	00042080 	sll	a0,a0,0x2
80608a50:	2442e028 	addiu	v0,v0,-8152
80608a54:	00441021 	addu	v0,v0,a0
80608a58:	8c420000 	lw	v0,0(v0)
80608a5c:	00400008 	jr	v0
80608a60:	00000000 	nop
80608a64:	0818213d 	j	806084f4 <addSticks>
80608a68:	24040001 	li	a0,1
80608a6c:	0818213d 	j	806084f4 <addSticks>
80608a70:	24040005 	li	a0,5
80608a74:	0818213d 	j	806084f4 <addSticks>
80608a78:	2404000a 	li	a0,10
80608a7c:	0818224b 	j	8060892c <addNuts>
80608a80:	24040005 	li	a0,5
80608a84:	0818224b 	j	8060892c <addNuts>
80608a88:	2404000a 	li	a0,10
80608a8c:	08182235 	j	806088d4 <addBombs>
80608a90:	24040001 	li	a0,1
80608a94:	08182235 	j	806088d4 <addBombs>
80608a98:	24040005 	li	a0,5
80608a9c:	08182235 	j	806088d4 <addBombs>
80608aa0:	2404000a 	li	a0,10
80608aa4:	08182235 	j	806088d4 <addBombs>
80608aa8:	24040014 	li	a0,20
80608aac:	08182235 	j	806088d4 <addBombs>
80608ab0:	2404001e 	li	a0,30
80608ab4:	3c028012 	lui	v0,0x8012
80608ab8:	2442a5d0 	addiu	v0,v0,-23088
80608abc:	24030003 	li	v1,3
80608ac0:	a0430077 	sb	v1,119(v0)
80608ac4:	8c4300a0 	lw	v1,160(v0)
80608ac8:	2404fff8 	li	a0,-8
80608acc:	00641824 	and	v1,v1,a0
80608ad0:	34630001 	ori	v1,v1,0x1
80608ad4:	ac4300a0 	sw	v1,160(v0)
80608ad8:	3c038061 	lui	v1,0x8061
80608adc:	906329c1 	lbu	v1,10689(v1)
80608ae0:	03e00008 	jr	ra
80608ae4:	a043008f 	sb	v1,143(v0)
80608ae8:	08182221 	j	80608884 <addArrows>
80608aec:	24040005 	li	a0,5
80608af0:	08182221 	j	80608884 <addArrows>
80608af4:	2404000a 	li	a0,10
80608af8:	08182221 	j	80608884 <addArrows>
80608afc:	2404001e 	li	a0,30
80608b00:	3c028012 	lui	v0,0x8012
80608b04:	24030004 	li	v1,4
80608b08:	03e00008 	jr	ra
80608b0c:	a043a648 	sb	v1,-22968(v0)
80608b10:	3c028012 	lui	v0,0x8012
80608b14:	24030005 	li	v1,5
80608b18:	03e00008 	jr	ra
80608b1c:	a043a649 	sb	v1,-22967(v0)
80608b20:	3c028012 	lui	v0,0x8012
80608b24:	2442a5d0 	addiu	v0,v0,-23088
80608b28:	24030006 	li	v1,6
80608b2c:	a043007a 	sb	v1,122(v0)
80608b30:	3c04fffe 	lui	a0,0xfffe
80608b34:	8c4300a0 	lw	v1,160(v0)
80608b38:	24843fff 	addiu	a0,a0,16383
80608b3c:	00641824 	and	v1,v1,a0
80608b40:	34634000 	ori	v1,v1,0x4000
80608b44:	ac4300a0 	sw	v1,160(v0)
80608b48:	3c038061 	lui	v1,0x8061
80608b4c:	906329bd 	lbu	v1,10685(v1)
80608b50:	03e00008 	jr	ra
80608b54:	a0430092 	sb	v1,146(v0)
80608b58:	08182205 	j	80608814 <addSeeds>
80608b5c:	24040005 	li	a0,5
80608b60:	08182205 	j	80608814 <addSeeds>
80608b64:	2404001e 	li	a0,30
80608b68:	081821df 	j	8060877c <addOcarina>
80608b6c:	24040001 	li	a0,1
80608b70:	081821df 	j	8060877c <addOcarina>
80608b74:	24040002 	li	a0,2
80608b78:	081821f8 	j	806087e0 <addBombchu>
80608b7c:	24040005 	li	a0,5
80608b80:	081821f8 	j	806087e0 <addBombchu>
80608b84:	2404000a 	li	a0,10
80608b88:	081821f8 	j	806087e0 <addBombchu>
80608b8c:	24040014 	li	a0,20
80608b90:	081821c6 	j	80608718 <addHookshot>
80608b94:	24040001 	li	a0,1
80608b98:	081821c6 	j	80608718 <addHookshot>
80608b9c:	24040002 	li	a0,2
80608ba0:	3c028012 	lui	v0,0x8012
80608ba4:	2403000c 	li	v1,12
80608ba8:	03e00008 	jr	ra
80608bac:	a043a64e 	sb	v1,-22962(v0)
80608bb0:	3c028012 	lui	v0,0x8012
80608bb4:	2403000d 	li	v1,13
80608bb8:	03e00008 	jr	ra
80608bbc:	a043a64f 	sb	v1,-22961(v0)
80608bc0:	3c028012 	lui	v0,0x8012
80608bc4:	2403000e 	li	v1,14
80608bc8:	03e00008 	jr	ra
80608bcc:	a043a650 	sb	v1,-22960(v0)
80608bd0:	3c028012 	lui	v0,0x8012
80608bd4:	2403000f 	li	v1,15
80608bd8:	03e00008 	jr	ra
80608bdc:	a043a651 	sb	v1,-22959(v0)
80608be0:	3c028012 	lui	v0,0x8012
80608be4:	2442a5d0 	addiu	v0,v0,-23088
80608be8:	24030010 	li	v1,16
80608bec:	a0430082 	sb	v1,130(v0)
80608bf0:	2403000a 	li	v1,10
80608bf4:	03e00008 	jr	ra
80608bf8:	a043009a 	sb	v1,154(v0)
80608bfc:	3c028012 	lui	v0,0x8012
80608c00:	24030011 	li	v1,17
80608c04:	03e00008 	jr	ra
80608c08:	a043a653 	sb	v1,-22957(v0)
80608c0c:	3c028012 	lui	v0,0x8012
80608c10:	24030012 	li	v1,18
80608c14:	03e00008 	jr	ra
80608c18:	a043a654 	sb	v1,-22956(v0)
80608c1c:	3c028012 	lui	v0,0x8012
80608c20:	24030013 	li	v1,19
80608c24:	03e00008 	jr	ra
80608c28:	a043a655 	sb	v1,-22955(v0)
80608c2c:	0818215b 	j	8060856c <addNewBottle>
80608c30:	24040014 	li	a0,20
80608c34:	0818215b 	j	8060856c <addNewBottle>
80608c38:	2404001b 	li	a0,27
80608c3c:	0818215b 	j	8060856c <addNewBottle>
80608c40:	2404001a 	li	a0,26
80608c44:	08182170 	j	806085c0 <fillBottle>
80608c48:	24040015 	li	a0,21
80608c4c:	08182170 	j	806085c0 <fillBottle>
80608c50:	24040017 	li	a0,23
80608c54:	08182170 	j	806085c0 <fillBottle>
80608c58:	24040016 	li	a0,22
80608c5c:	08182170 	j	806085c0 <fillBottle>
80608c60:	24040019 	li	a0,25
80608c64:	08182170 	j	806085c0 <fillBottle>
80608c68:	2404001c 	li	a0,28
80608c6c:	08182170 	j	806085c0 <fillBottle>
80608c70:	2404001d 	li	a0,29
80608c74:	08182170 	j	806085c0 <fillBottle>
80608c78:	2404001a 	li	a0,26
80608c7c:	3c028012 	lui	v0,0x8012
80608c80:	2442a5d0 	addiu	v0,v0,-23088
80608c84:	9443009c 	lhu	v1,156(v0)
80608c88:	34630001 	ori	v1,v1,0x1
80608c8c:	03e00008 	jr	ra
80608c90:	a443009c 	sh	v1,156(v0)
80608c94:	3c028012 	lui	v0,0x8012
80608c98:	2442a5d0 	addiu	v0,v0,-23088
80608c9c:	9443009c 	lhu	v1,156(v0)
80608ca0:	34630002 	ori	v1,v1,0x2
80608ca4:	03e00008 	jr	ra
80608ca8:	a443009c 	sh	v1,156(v0)
80608cac:	3c028012 	lui	v0,0x8012
80608cb0:	2442a5d0 	addiu	v0,v0,-23088
80608cb4:	9443009c 	lhu	v1,156(v0)
80608cb8:	34630004 	ori	v1,v1,0x4
80608cbc:	a443009c 	sh	v1,156(v0)
80608cc0:	24030008 	li	v1,8
80608cc4:	03e00008 	jr	ra
80608cc8:	a4430036 	sh	v1,54(v0)
80608ccc:	3c028012 	lui	v0,0x8012
80608cd0:	2442a5d0 	addiu	v0,v0,-23088
80608cd4:	9444009c 	lhu	a0,156(v0)
80608cd8:	9443009c 	lhu	v1,156(v0)
80608cdc:	30840007 	andi	a0,a0,0x7
80608ce0:	34840004 	ori	a0,a0,0x4
80608ce4:	3063fff0 	andi	v1,v1,0xfff0
80608ce8:	00641825 	or	v1,v1,a0
80608cec:	a443009c 	sh	v1,156(v0)
80608cf0:	24030001 	li	v1,1
80608cf4:	03e00008 	jr	ra
80608cf8:	a043003e 	sb	v1,62(v0)
80608cfc:	3c028012 	lui	v0,0x8012
80608d00:	2442a5d0 	addiu	v0,v0,-23088
80608d04:	90430102 	lbu	v1,258(v0)
80608d08:	34630001 	ori	v1,v1,0x1
80608d0c:	a0430102 	sb	v1,258(v0)
80608d10:	3c028012 	lui	v0,0x8012
80608d14:	2442a5d0 	addiu	v0,v0,-23088
80608d18:	9443009c 	lhu	v1,156(v0)
80608d1c:	34630010 	ori	v1,v1,0x10
80608d20:	03e00008 	jr	ra
80608d24:	a443009c 	sh	v1,156(v0)
80608d28:	3c028012 	lui	v0,0x8012
80608d2c:	2442a5d0 	addiu	v0,v0,-23088
80608d30:	90430102 	lbu	v1,258(v0)
80608d34:	34630002 	ori	v1,v1,0x2
80608d38:	a0430102 	sb	v1,258(v0)
80608d3c:	3c028012 	lui	v0,0x8012
80608d40:	2442a5d0 	addiu	v0,v0,-23088
80608d44:	9443009c 	lhu	v1,156(v0)
80608d48:	34630020 	ori	v1,v1,0x20
80608d4c:	03e00008 	jr	ra
80608d50:	a443009c 	sh	v1,156(v0)
80608d54:	3c028012 	lui	v0,0x8012
80608d58:	2442a5d0 	addiu	v0,v0,-23088
80608d5c:	9443009c 	lhu	v1,156(v0)
80608d60:	34630040 	ori	v1,v1,0x40
80608d64:	a443009c 	sh	v1,156(v0)
80608d68:	90430102 	lbu	v1,258(v0)
80608d6c:	34630004 	ori	v1,v1,0x4
80608d70:	03e00008 	jr	ra
80608d74:	a0430102 	sb	v1,258(v0)
80608d78:	3c028012 	lui	v0,0x8012
80608d7c:	2442a5d0 	addiu	v0,v0,-23088
80608d80:	9443009c 	lhu	v1,156(v0)
80608d84:	34630200 	ori	v1,v1,0x200
80608d88:	03e00008 	jr	ra
80608d8c:	a443009c 	sh	v1,156(v0)
80608d90:	3c028012 	lui	v0,0x8012
80608d94:	2442a5d0 	addiu	v0,v0,-23088
80608d98:	9443009c 	lhu	v1,156(v0)
80608d9c:	34630400 	ori	v1,v1,0x400
80608da0:	03e00008 	jr	ra
80608da4:	a443009c 	sh	v1,156(v0)
80608da8:	3c028012 	lui	v0,0x8012
80608dac:	2442a5d0 	addiu	v0,v0,-23088
80608db0:	9443009c 	lhu	v1,156(v0)
80608db4:	34632000 	ori	v1,v1,0x2000
80608db8:	03e00008 	jr	ra
80608dbc:	a443009c 	sh	v1,156(v0)
80608dc0:	3c028012 	lui	v0,0x8012
80608dc4:	2442a5d0 	addiu	v0,v0,-23088
80608dc8:	9443009c 	lhu	v1,156(v0)
80608dcc:	34634000 	ori	v1,v1,0x4000
80608dd0:	03e00008 	jr	ra
80608dd4:	a443009c 	sh	v1,156(v0)
80608dd8:	3c038012 	lui	v1,0x8012
80608ddc:	2463a5d0 	addiu	v1,v1,-23088
80608de0:	8c6200a0 	lw	v0,160(v1)
80608de4:	2404fe3f 	li	a0,-449
80608de8:	00441024 	and	v0,v0,a0
80608dec:	34420040 	ori	v0,v0,0x40
80608df0:	03e00008 	jr	ra
80608df4:	ac6200a0 	sw	v0,160(v1)
80608df8:	3c038012 	lui	v1,0x8012
80608dfc:	2463a5d0 	addiu	v1,v1,-23088
80608e00:	8c6200a0 	lw	v0,160(v1)
80608e04:	2404fe3f 	li	a0,-449
80608e08:	00441024 	and	v0,v0,a0
80608e0c:	34420080 	ori	v0,v0,0x80
80608e10:	03e00008 	jr	ra
80608e14:	ac6200a0 	sw	v0,160(v1)
80608e18:	3c038012 	lui	v1,0x8012
80608e1c:	2463a5d0 	addiu	v1,v1,-23088
80608e20:	8c6200a0 	lw	v0,160(v1)
80608e24:	2404fe3f 	li	a0,-449
80608e28:	00441024 	and	v0,v0,a0
80608e2c:	344200c0 	ori	v0,v0,0xc0
80608e30:	03e00008 	jr	ra
80608e34:	ac6200a0 	sw	v0,160(v1)
80608e38:	3c038012 	lui	v1,0x8012
80608e3c:	2463a5d0 	addiu	v1,v1,-23088
80608e40:	8c6200a0 	lw	v0,160(v1)
80608e44:	2404f1ff 	li	a0,-3585
80608e48:	00441024 	and	v0,v0,a0
80608e4c:	34420200 	ori	v0,v0,0x200
80608e50:	03e00008 	jr	ra
80608e54:	ac6200a0 	sw	v0,160(v1)
80608e58:	3c038012 	lui	v1,0x8012
80608e5c:	2463a5d0 	addiu	v1,v1,-23088
80608e60:	8c6200a0 	lw	v0,160(v1)
80608e64:	2404f1ff 	li	a0,-3585
80608e68:	00441024 	and	v0,v0,a0
80608e6c:	34420400 	ori	v0,v0,0x400
80608e70:	03e00008 	jr	ra
80608e74:	ac6200a0 	sw	v0,160(v1)
80608e78:	3c028012 	lui	v0,0x8012
80608e7c:	2442a5d0 	addiu	v0,v0,-23088
80608e80:	24030006 	li	v1,6
80608e84:	a043007a 	sb	v1,122(v0)
80608e88:	3c04fffe 	lui	a0,0xfffe
80608e8c:	8c4300a0 	lw	v1,160(v0)
80608e90:	24843fff 	addiu	a0,a0,16383
80608e94:	00641824 	and	v1,v1,a0
80608e98:	34638000 	ori	v1,v1,0x8000
80608e9c:	ac4300a0 	sw	v1,160(v0)
80608ea0:	3c038061 	lui	v1,0x8061
80608ea4:	906329be 	lbu	v1,10686(v1)
80608ea8:	03e00008 	jr	ra
80608eac:	a0430092 	sb	v1,146(v0)
80608eb0:	3c028012 	lui	v0,0x8012
80608eb4:	2442a5d0 	addiu	v0,v0,-23088
80608eb8:	24030006 	li	v1,6
80608ebc:	a043007a 	sb	v1,122(v0)
80608ec0:	3c04fffe 	lui	a0,0xfffe
80608ec4:	8c4300a0 	lw	v1,160(v0)
80608ec8:	24843fff 	addiu	a0,a0,16383
80608ecc:	00641824 	and	v1,v1,a0
80608ed0:	3463c000 	ori	v1,v1,0xc000
80608ed4:	ac4300a0 	sw	v1,160(v0)
80608ed8:	3c038061 	lui	v1,0x8061
80608edc:	906329bf 	lbu	v1,10687(v1)
80608ee0:	03e00008 	jr	ra
80608ee4:	a0430092 	sb	v1,146(v0)
80608ee8:	3c028012 	lui	v0,0x8012
80608eec:	2442a5d0 	addiu	v0,v0,-23088
80608ef0:	24030003 	li	v1,3
80608ef4:	a0430077 	sb	v1,119(v0)
80608ef8:	8c4300a0 	lw	v1,160(v0)
80608efc:	2404fff8 	li	a0,-8
80608f00:	00641824 	and	v1,v1,a0
80608f04:	34630002 	ori	v1,v1,0x2
80608f08:	ac4300a0 	sw	v1,160(v0)
80608f0c:	3c038061 	lui	v1,0x8061
80608f10:	906329c2 	lbu	v1,10690(v1)
80608f14:	03e00008 	jr	ra
80608f18:	a043008f 	sb	v1,143(v0)
80608f1c:	3c028012 	lui	v0,0x8012
80608f20:	2442a5d0 	addiu	v0,v0,-23088
80608f24:	24030003 	li	v1,3
80608f28:	a0430077 	sb	v1,119(v0)
80608f2c:	8c4300a0 	lw	v1,160(v0)
80608f30:	2404fff8 	li	a0,-8
80608f34:	00641824 	and	v1,v1,a0
80608f38:	34630003 	ori	v1,v1,0x3
80608f3c:	ac4300a0 	sw	v1,160(v0)
80608f40:	3c038061 	lui	v1,0x8061
80608f44:	906329c3 	lbu	v1,10691(v1)
80608f48:	03e00008 	jr	ra
80608f4c:	a043008f 	sb	v1,143(v0)
80608f50:	3c028012 	lui	v0,0x8012
80608f54:	2442a5d0 	addiu	v0,v0,-23088
80608f58:	24030002 	li	v1,2
80608f5c:	a0430076 	sb	v1,118(v0)
80608f60:	8c4300a0 	lw	v1,160(v0)
80608f64:	2404ffc7 	li	a0,-57
80608f68:	00641824 	and	v1,v1,a0
80608f6c:	34630008 	ori	v1,v1,0x8
80608f70:	ac4300a0 	sw	v1,160(v0)
80608f74:	3c038061 	lui	v1,0x8061
80608f78:	906329c5 	lbu	v1,10693(v1)
80608f7c:	03e00008 	jr	ra
80608f80:	a043008e 	sb	v1,142(v0)
80608f84:	3c028012 	lui	v0,0x8012
80608f88:	2442a5d0 	addiu	v0,v0,-23088
80608f8c:	24030002 	li	v1,2
80608f90:	a0430076 	sb	v1,118(v0)
80608f94:	8c4300a0 	lw	v1,160(v0)
80608f98:	2404ffc7 	li	a0,-57
80608f9c:	00641824 	and	v1,v1,a0
80608fa0:	34630010 	ori	v1,v1,0x10
80608fa4:	ac4300a0 	sw	v1,160(v0)
80608fa8:	3c038061 	lui	v1,0x8061
80608fac:	906329c6 	lbu	v1,10694(v1)
80608fb0:	03e00008 	jr	ra
80608fb4:	a043008e 	sb	v1,142(v0)
80608fb8:	3c028012 	lui	v0,0x8012
80608fbc:	2442a5d0 	addiu	v0,v0,-23088
80608fc0:	24030002 	li	v1,2
80608fc4:	a0430076 	sb	v1,118(v0)
80608fc8:	8c4300a0 	lw	v1,160(v0)
80608fcc:	2404ffc7 	li	a0,-57
80608fd0:	00641824 	and	v1,v1,a0
80608fd4:	34630018 	ori	v1,v1,0x18
80608fd8:	ac4300a0 	sw	v1,160(v0)
80608fdc:	3c038061 	lui	v1,0x8061
80608fe0:	906329c7 	lbu	v1,10695(v1)
80608fe4:	03e00008 	jr	ra
80608fe8:	a043008e 	sb	v1,142(v0)
80608fec:	3c038012 	lui	v1,0x8012
80608ff0:	2463a5d0 	addiu	v1,v1,-23088
80608ff4:	8c6200a0 	lw	v0,160(v1)
80608ff8:	2404cfff 	li	a0,-12289
80608ffc:	00441024 	and	v0,v0,a0
80609000:	34421000 	ori	v0,v0,0x1000
80609004:	03e00008 	jr	ra
80609008:	ac6200a0 	sw	v0,160(v1)
8060900c:	3c038012 	lui	v1,0x8012
80609010:	2463a5d0 	addiu	v1,v1,-23088
80609014:	8c6200a0 	lw	v0,160(v1)
80609018:	2404cfff 	li	a0,-12289
8060901c:	00441024 	and	v0,v0,a0
80609020:	34422000 	ori	v0,v0,0x2000
80609024:	03e00008 	jr	ra
80609028:	ac6200a0 	sw	v0,160(v1)
8060902c:	3c028012 	lui	v0,0x8012
80609030:	2442a5d0 	addiu	v0,v0,-23088
80609034:	24030001 	li	v1,1
80609038:	10a001fe 	beqz	a1,80609834 <comboAddItemOot+0xdfc>
8060903c:	a043003a 	sb	v1,58(v0)
80609040:	24030130 	li	v1,304
80609044:	03e00008 	jr	ra
80609048:	a4430032 	sh	v1,50(v0)
8060904c:	3c028012 	lui	v0,0x8012
80609050:	2442a5d0 	addiu	v0,v0,-23088
80609054:	24030001 	li	v1,1
80609058:	a043003a 	sb	v1,58(v0)
8060905c:	10a001f5 	beqz	a1,80609834 <comboAddItemOot+0xdfc>
80609060:	a043003c 	sb	v1,60(v0)
80609064:	24030260 	li	v1,608
80609068:	03e00008 	jr	ra
8060906c:	a4430032 	sh	v1,50(v0)
80609070:	3c028012 	lui	v0,0x8012
80609074:	2442a5d0 	addiu	v0,v0,-23088
80609078:	24030001 	li	v1,1
8060907c:	a0430075 	sb	v1,117(v0)
80609080:	3c04ff8f 	lui	a0,0xff8f
80609084:	8c4300a0 	lw	v1,160(v0)
80609088:	3484ffff 	ori	a0,a0,0xffff
8060908c:	00641824 	and	v1,v1,a0
80609090:	3c040020 	lui	a0,0x20
80609094:	00641825 	or	v1,v1,a0
80609098:	ac4300a0 	sw	v1,160(v0)
8060909c:	3c038061 	lui	v1,0x8061
806090a0:	906329ca 	lbu	v1,10698(v1)
806090a4:	03e00008 	jr	ra
806090a8:	a043008d 	sb	v1,141(v0)
806090ac:	3c028012 	lui	v0,0x8012
806090b0:	2442a5d0 	addiu	v0,v0,-23088
806090b4:	24030001 	li	v1,1
806090b8:	a0430075 	sb	v1,117(v0)
806090bc:	3c04ff8f 	lui	a0,0xff8f
806090c0:	8c4300a0 	lw	v1,160(v0)
806090c4:	3484ffff 	ori	a0,a0,0xffff
806090c8:	00641824 	and	v1,v1,a0
806090cc:	3c040030 	lui	a0,0x30
806090d0:	00641825 	or	v1,v1,a0
806090d4:	ac4300a0 	sw	v1,160(v0)
806090d8:	3c038061 	lui	v1,0x8061
806090dc:	906329cb 	lbu	v1,10699(v1)
806090e0:	03e00008 	jr	ra
806090e4:	a043008d 	sb	v1,141(v0)
806090e8:	3c028012 	lui	v0,0x8012
806090ec:	2442a5d0 	addiu	v0,v0,-23088
806090f0:	8c4300a0 	lw	v1,160(v0)
806090f4:	3c04fff1 	lui	a0,0xfff1
806090f8:	3484ffff 	ori	a0,a0,0xffff
806090fc:	00641824 	and	v1,v1,a0
80609100:	3c040004 	lui	a0,0x4
80609104:	00641825 	or	v1,v1,a0
80609108:	ac4300a0 	sw	v1,160(v0)
8060910c:	3c038061 	lui	v1,0x8061
80609110:	906329ce 	lbu	v1,10702(v1)
80609114:	a0400074 	sb	zero,116(v0)
80609118:	03e00008 	jr	ra
8060911c:	a043008c 	sb	v1,140(v0)
80609120:	3c028012 	lui	v0,0x8012
80609124:	2442a5d0 	addiu	v0,v0,-23088
80609128:	8c4300a0 	lw	v1,160(v0)
8060912c:	3c04fff1 	lui	a0,0xfff1
80609130:	3484ffff 	ori	a0,a0,0xffff
80609134:	00641824 	and	v1,v1,a0
80609138:	3c040006 	lui	a0,0x6
8060913c:	00641825 	or	v1,v1,a0
80609140:	ac4300a0 	sw	v1,160(v0)
80609144:	3c038061 	lui	v1,0x8061
80609148:	906329cf 	lbu	v1,10703(v1)
8060914c:	a0400074 	sb	zero,116(v0)
80609150:	03e00008 	jr	ra
80609154:	a043008c 	sb	v1,140(v0)
80609158:	3c028012 	lui	v0,0x8012
8060915c:	2442a5d0 	addiu	v0,v0,-23088
80609160:	24030001 	li	v1,1
80609164:	a043003d 	sb	v1,61(v0)
80609168:	24030014 	li	v1,20
8060916c:	a04300cf 	sb	v1,207(v0)
80609170:	10a001b0 	beqz	a1,80609834 <comboAddItemOot+0xdfc>
80609174:	00000000 	nop
80609178:	0818212d 	j	806084b4 <addHealth>
8060917c:	24040014 	li	a0,20
80609180:	3c038012 	lui	v1,0x8012
80609184:	2463a5d0 	addiu	v1,v1,-23088
80609188:	8c6200a4 	lw	v0,164(v1)
8060918c:	3c070fff 	lui	a3,0xfff
80609190:	00023702 	srl	a2,v0,0x1c
80609194:	24c60001 	addiu	a2,a2,1
80609198:	34e7ffff 	ori	a3,a3,0xffff
8060919c:	30c4000f 	andi	a0,a2,0xf
806091a0:	00471024 	and	v0,v0,a3
806091a4:	00063700 	sll	a2,a2,0x1c
806091a8:	00461025 	or	v0,v0,a2
806091ac:	10a001a1 	beqz	a1,80609834 <comboAddItemOot+0xdfc>
806091b0:	ac6200a4 	sw	v0,164(v1)
806091b4:	2c850004 	sltiu	a1,a0,4
806091b8:	14a0ffef 	bnez	a1,80609178 <comboAddItemOot+0x740>
806091bc:	2484fffc 	addiu	a0,a0,-4
806091c0:	00042700 	sll	a0,a0,0x1c
806091c4:	00471024 	and	v0,v0,a3
806091c8:	00441025 	or	v0,v0,a0
806091cc:	ac6200a4 	sw	v0,164(v1)
806091d0:	9462002e 	lhu	v0,46(v1)
806091d4:	24420010 	addiu	v0,v0,16
806091d8:	1000ffe7 	b	80609178 <comboAddItemOot+0x740>
806091dc:	a462002e 	sh	v0,46(v1)
806091e0:	3c028012 	lui	v0,0x8012
806091e4:	2442a5d0 	addiu	v0,v0,-23088
806091e8:	9443002e 	lhu	v1,46(v0)
806091ec:	24630010 	addiu	v1,v1,16
806091f0:	1000ffdf 	b	80609170 <comboAddItemOot+0x738>
806091f4:	a443002e 	sh	v1,46(v0)
806091f8:	3c028012 	lui	v0,0x8012
806091fc:	2442a5d0 	addiu	v0,v0,-23088
80609200:	8c4300a4 	lw	v1,164(v0)
80609204:	3c040080 	lui	a0,0x80
80609208:	00641825 	or	v1,v1,a0
8060920c:	ac4300a4 	sw	v1,164(v0)
80609210:	944300d0 	lhu	v1,208(v0)
80609214:	24630001 	addiu	v1,v1,1
80609218:	03e00008 	jr	ra
8060921c:	a44300d0 	sh	v1,208(v0)
80609220:	3c028012 	lui	v0,0x8012
80609224:	2442a5d0 	addiu	v0,v0,-23088
80609228:	8c4300a4 	lw	v1,164(v0)
8060922c:	3c040040 	lui	a0,0x40
80609230:	00641825 	or	v1,v1,a0
80609234:	03e00008 	jr	ra
80609238:	ac4300a4 	sw	v1,164(v0)
8060923c:	3c028012 	lui	v0,0x8012
80609240:	2442a5d0 	addiu	v0,v0,-23088
80609244:	8c4300a4 	lw	v1,164(v0)
80609248:	3c040020 	lui	a0,0x20
8060924c:	00641825 	or	v1,v1,a0
80609250:	03e00008 	jr	ra
80609254:	ac4300a4 	sw	v1,164(v0)
80609258:	3c028012 	lui	v0,0x8012
8060925c:	2442a5d0 	addiu	v0,v0,-23088
80609260:	8c4300a4 	lw	v1,164(v0)
80609264:	3c040010 	lui	a0,0x10
80609268:	00641825 	or	v1,v1,a0
8060926c:	03e00008 	jr	ra
80609270:	ac4300a4 	sw	v1,164(v0)
80609274:	3c028012 	lui	v0,0x8012
80609278:	2442a5d0 	addiu	v0,v0,-23088
8060927c:	8c4300a4 	lw	v1,164(v0)
80609280:	3c040008 	lui	a0,0x8
80609284:	00641825 	or	v1,v1,a0
80609288:	03e00008 	jr	ra
8060928c:	ac4300a4 	sw	v1,164(v0)
80609290:	3c028012 	lui	v0,0x8012
80609294:	2442a5d0 	addiu	v0,v0,-23088
80609298:	8c4300a4 	lw	v1,164(v0)
8060929c:	3c040004 	lui	a0,0x4
806092a0:	00641825 	or	v1,v1,a0
806092a4:	03e00008 	jr	ra
806092a8:	ac4300a4 	sw	v1,164(v0)
806092ac:	3c028012 	lui	v0,0x8012
806092b0:	2442a5d0 	addiu	v0,v0,-23088
806092b4:	8c4300a4 	lw	v1,164(v0)
806092b8:	3c040002 	lui	a0,0x2
806092bc:	00641825 	or	v1,v1,a0
806092c0:	03e00008 	jr	ra
806092c4:	ac4300a4 	sw	v1,164(v0)
806092c8:	3c028012 	lui	v0,0x8012
806092cc:	2442a5d0 	addiu	v0,v0,-23088
806092d0:	8c4300a4 	lw	v1,164(v0)
806092d4:	3c040001 	lui	a0,0x1
806092d8:	00641825 	or	v1,v1,a0
806092dc:	03e00008 	jr	ra
806092e0:	ac4300a4 	sw	v1,164(v0)
806092e4:	3c028012 	lui	v0,0x8012
806092e8:	2442a5d0 	addiu	v0,v0,-23088
806092ec:	8c4300a4 	lw	v1,164(v0)
806092f0:	34638000 	ori	v1,v1,0x8000
806092f4:	03e00008 	jr	ra
806092f8:	ac4300a4 	sw	v1,164(v0)
806092fc:	3c028012 	lui	v0,0x8012
80609300:	2442a5d0 	addiu	v0,v0,-23088
80609304:	8c4300a4 	lw	v1,164(v0)
80609308:	34634000 	ori	v1,v1,0x4000
8060930c:	03e00008 	jr	ra
80609310:	ac4300a4 	sw	v1,164(v0)
80609314:	3c028012 	lui	v0,0x8012
80609318:	2442a5d0 	addiu	v0,v0,-23088
8060931c:	8c4300a4 	lw	v1,164(v0)
80609320:	34632000 	ori	v1,v1,0x2000
80609324:	ac4300a4 	sw	v1,164(v0)
80609328:	94430ed6 	lhu	v1,3798(v0)
8060932c:	34630100 	ori	v1,v1,0x100
80609330:	03e00008 	jr	ra
80609334:	a4430ed6 	sh	v1,3798(v0)
80609338:	3c028012 	lui	v0,0x8012
8060933c:	2442a5d0 	addiu	v0,v0,-23088
80609340:	8c4300a4 	lw	v1,164(v0)
80609344:	34631000 	ori	v1,v1,0x1000
80609348:	03e00008 	jr	ra
8060934c:	ac4300a4 	sw	v1,164(v0)
80609350:	3c028012 	lui	v0,0x8012
80609354:	2442a5d0 	addiu	v0,v0,-23088
80609358:	8c4300a4 	lw	v1,164(v0)
8060935c:	34630800 	ori	v1,v1,0x800
80609360:	03e00008 	jr	ra
80609364:	ac4300a4 	sw	v1,164(v0)
80609368:	3c028012 	lui	v0,0x8012
8060936c:	2442a5d0 	addiu	v0,v0,-23088
80609370:	8c4300a4 	lw	v1,164(v0)
80609374:	34630400 	ori	v1,v1,0x400
80609378:	03e00008 	jr	ra
8060937c:	ac4300a4 	sw	v1,164(v0)
80609380:	3c028012 	lui	v0,0x8012
80609384:	2442a5d0 	addiu	v0,v0,-23088
80609388:	8c4300a4 	lw	v1,164(v0)
8060938c:	34630200 	ori	v1,v1,0x200
80609390:	03e00008 	jr	ra
80609394:	ac4300a4 	sw	v1,164(v0)
80609398:	3c028012 	lui	v0,0x8012
8060939c:	2442a5d0 	addiu	v0,v0,-23088
806093a0:	8c4300a4 	lw	v1,164(v0)
806093a4:	34630100 	ori	v1,v1,0x100
806093a8:	03e00008 	jr	ra
806093ac:	ac4300a4 	sw	v1,164(v0)
806093b0:	3c028012 	lui	v0,0x8012
806093b4:	2442a5d0 	addiu	v0,v0,-23088
806093b8:	8c4300a4 	lw	v1,164(v0)
806093bc:	34630080 	ori	v1,v1,0x80
806093c0:	03e00008 	jr	ra
806093c4:	ac4300a4 	sw	v1,164(v0)
806093c8:	3c028012 	lui	v0,0x8012
806093cc:	2442a5d0 	addiu	v0,v0,-23088
806093d0:	8c4300a4 	lw	v1,164(v0)
806093d4:	34630040 	ori	v1,v1,0x40
806093d8:	03e00008 	jr	ra
806093dc:	ac4300a4 	sw	v1,164(v0)
806093e0:	3c028012 	lui	v0,0x8012
806093e4:	2442a5d0 	addiu	v0,v0,-23088
806093e8:	8c4300a4 	lw	v1,164(v0)
806093ec:	34630020 	ori	v1,v1,0x20
806093f0:	03e00008 	jr	ra
806093f4:	ac4300a4 	sw	v1,164(v0)
806093f8:	3c028012 	lui	v0,0x8012
806093fc:	2442a5d0 	addiu	v0,v0,-23088
80609400:	8c4300a4 	lw	v1,164(v0)
80609404:	34630010 	ori	v1,v1,0x10
80609408:	03e00008 	jr	ra
8060940c:	ac4300a4 	sw	v1,164(v0)
80609410:	3c028012 	lui	v0,0x8012
80609414:	2442a5d0 	addiu	v0,v0,-23088
80609418:	8c4300a4 	lw	v1,164(v0)
8060941c:	34630008 	ori	v1,v1,0x8
80609420:	03e00008 	jr	ra
80609424:	ac4300a4 	sw	v1,164(v0)
80609428:	3c028012 	lui	v0,0x8012
8060942c:	2442a5d0 	addiu	v0,v0,-23088
80609430:	8c4300a4 	lw	v1,164(v0)
80609434:	34630004 	ori	v1,v1,0x4
80609438:	03e00008 	jr	ra
8060943c:	ac4300a4 	sw	v1,164(v0)
80609440:	3c028012 	lui	v0,0x8012
80609444:	2442a5d0 	addiu	v0,v0,-23088
80609448:	8c4300a4 	lw	v1,164(v0)
8060944c:	34630002 	ori	v1,v1,0x2
80609450:	03e00008 	jr	ra
80609454:	ac4300a4 	sw	v1,164(v0)
80609458:	3c028012 	lui	v0,0x8012
8060945c:	2442a5d0 	addiu	v0,v0,-23088
80609460:	8c4300a4 	lw	v1,164(v0)
80609464:	34630001 	ori	v1,v1,0x1
80609468:	03e00008 	jr	ra
8060946c:	ac4300a4 	sw	v1,164(v0)
80609470:	10a000f0 	beqz	a1,80609834 <comboAddItemOot+0xdfc>
80609474:	00000000 	nop
80609478:	081821b3 	j	806086cc <addRupees>
8060947c:	24040001 	li	a0,1
80609480:	10a000ec 	beqz	a1,80609834 <comboAddItemOot+0xdfc>
80609484:	00000000 	nop
80609488:	081821b3 	j	806086cc <addRupees>
8060948c:	24040005 	li	a0,5
80609490:	10a000e8 	beqz	a1,80609834 <comboAddItemOot+0xdfc>
80609494:	00000000 	nop
80609498:	081821b3 	j	806086cc <addRupees>
8060949c:	24040014 	li	a0,20
806094a0:	10a000e4 	beqz	a1,80609834 <comboAddItemOot+0xdfc>
806094a4:	00000000 	nop
806094a8:	081821b3 	j	806086cc <addRupees>
806094ac:	24040032 	li	a0,50
806094b0:	10a000e0 	beqz	a1,80609834 <comboAddItemOot+0xdfc>
806094b4:	00000000 	nop
806094b8:	081821b3 	j	806086cc <addRupees>
806094bc:	240400c8 	li	a0,200
806094c0:	10a000dc 	beqz	a1,80609834 <comboAddItemOot+0xdfc>
806094c4:	00000000 	nop
806094c8:	0818212d 	j	806084b4 <addHealth>
806094cc:	24040001 	li	a0,1
806094d0:	08182191 	j	80608644 <addTradeChild>
806094d4:	00002025 	move	a0,zero
806094d8:	08182191 	j	80608644 <addTradeChild>
806094dc:	24040001 	li	a0,1
806094e0:	08182191 	j	80608644 <addTradeChild>
806094e4:	24040002 	li	a0,2
806094e8:	08182191 	j	80608644 <addTradeChild>
806094ec:	24040003 	li	a0,3
806094f0:	08182191 	j	80608644 <addTradeChild>
806094f4:	24040004 	li	a0,4
806094f8:	08182191 	j	80608644 <addTradeChild>
806094fc:	24040005 	li	a0,5
80609500:	08182191 	j	80608644 <addTradeChild>
80609504:	24040006 	li	a0,6
80609508:	08182191 	j	80608644 <addTradeChild>
8060950c:	24040007 	li	a0,7
80609510:	08182191 	j	80608644 <addTradeChild>
80609514:	24040008 	li	a0,8
80609518:	08182191 	j	80608644 <addTradeChild>
8060951c:	24040009 	li	a0,9
80609520:	08182191 	j	80608644 <addTradeChild>
80609524:	2404000a 	li	a0,10
80609528:	081821a2 	j	80608688 <addTradeAdult>
8060952c:	00002025 	move	a0,zero
80609530:	081821a2 	j	80608688 <addTradeAdult>
80609534:	24040001 	li	a0,1
80609538:	081821a2 	j	80608688 <addTradeAdult>
8060953c:	24040002 	li	a0,2
80609540:	081821a2 	j	80608688 <addTradeAdult>
80609544:	24040003 	li	a0,3
80609548:	081821a2 	j	80608688 <addTradeAdult>
8060954c:	24040004 	li	a0,4
80609550:	081821a2 	j	80608688 <addTradeAdult>
80609554:	24040005 	li	a0,5
80609558:	081821a2 	j	80608688 <addTradeAdult>
8060955c:	24040006 	li	a0,6
80609560:	081821a2 	j	80608688 <addTradeAdult>
80609564:	24040007 	li	a0,7
80609568:	081821a2 	j	80608688 <addTradeAdult>
8060956c:	24040008 	li	a0,8
80609570:	081821a2 	j	80608688 <addTradeAdult>
80609574:	24040009 	li	a0,9
80609578:	081821a2 	j	80608688 <addTradeAdult>
8060957c:	2404000a 	li	a0,10
80609580:	0818226a 	j	806089a8 <comboAddSmallKeyOot>
80609584:	24040003 	li	a0,3
80609588:	0818226a 	j	806089a8 <comboAddSmallKeyOot>
8060958c:	24040004 	li	a0,4
80609590:	0818226a 	j	806089a8 <comboAddSmallKeyOot>
80609594:	24040005 	li	a0,5
80609598:	0818226a 	j	806089a8 <comboAddSmallKeyOot>
8060959c:	24040006 	li	a0,6
806095a0:	0818226a 	j	806089a8 <comboAddSmallKeyOot>
806095a4:	24040007 	li	a0,7
806095a8:	0818226a 	j	806089a8 <comboAddSmallKeyOot>
806095ac:	2404000d 	li	a0,13
806095b0:	0818226a 	j	806089a8 <comboAddSmallKeyOot>
806095b4:	24040008 	li	a0,8
806095b8:	0818226a 	j	806089a8 <comboAddSmallKeyOot>
806095bc:	2404000c 	li	a0,12
806095c0:	0818226a 	j	806089a8 <comboAddSmallKeyOot>
806095c4:	2404000b 	li	a0,11
806095c8:	3c028012 	lui	v0,0x8012
806095cc:	2442a5d0 	addiu	v0,v0,-23088
806095d0:	904300ab 	lbu	v1,171(v0)
806095d4:	34630001 	ori	v1,v1,0x1
806095d8:	03e00008 	jr	ra
806095dc:	a04300ab 	sb	v1,171(v0)
806095e0:	3c028012 	lui	v0,0x8012
806095e4:	2442a5d0 	addiu	v0,v0,-23088
806095e8:	904300ac 	lbu	v1,172(v0)
806095ec:	34630001 	ori	v1,v1,0x1
806095f0:	03e00008 	jr	ra
806095f4:	a04300ac 	sb	v1,172(v0)
806095f8:	3c028012 	lui	v0,0x8012
806095fc:	2442a5d0 	addiu	v0,v0,-23088
80609600:	904300ad 	lbu	v1,173(v0)
80609604:	34630001 	ori	v1,v1,0x1
80609608:	03e00008 	jr	ra
8060960c:	a04300ad 	sb	v1,173(v0)
80609610:	3c028012 	lui	v0,0x8012
80609614:	2442a5d0 	addiu	v0,v0,-23088
80609618:	904300ae 	lbu	v1,174(v0)
8060961c:	34630001 	ori	v1,v1,0x1
80609620:	03e00008 	jr	ra
80609624:	a04300ae 	sb	v1,174(v0)
80609628:	3c028012 	lui	v0,0x8012
8060962c:	2442a5d0 	addiu	v0,v0,-23088
80609630:	904300af 	lbu	v1,175(v0)
80609634:	34630001 	ori	v1,v1,0x1
80609638:	03e00008 	jr	ra
8060963c:	a04300af 	sb	v1,175(v0)
80609640:	3c028012 	lui	v0,0x8012
80609644:	2442a5d0 	addiu	v0,v0,-23088
80609648:	904300b2 	lbu	v1,178(v0)
8060964c:	34630001 	ori	v1,v1,0x1
80609650:	03e00008 	jr	ra
80609654:	a04300b2 	sb	v1,178(v0)
80609658:	3c028012 	lui	v0,0x8012
8060965c:	2442a5d0 	addiu	v0,v0,-23088
80609660:	904300a8 	lbu	v1,168(v0)
80609664:	34630004 	ori	v1,v1,0x4
80609668:	03e00008 	jr	ra
8060966c:	a04300a8 	sb	v1,168(v0)
80609670:	3c028012 	lui	v0,0x8012
80609674:	2442a5d0 	addiu	v0,v0,-23088
80609678:	904300a9 	lbu	v1,169(v0)
8060967c:	34630004 	ori	v1,v1,0x4
80609680:	03e00008 	jr	ra
80609684:	a04300a9 	sb	v1,169(v0)
80609688:	3c028012 	lui	v0,0x8012
8060968c:	2442a5d0 	addiu	v0,v0,-23088
80609690:	904300aa 	lbu	v1,170(v0)
80609694:	34630004 	ori	v1,v1,0x4
80609698:	03e00008 	jr	ra
8060969c:	a04300aa 	sb	v1,170(v0)
806096a0:	3c028012 	lui	v0,0x8012
806096a4:	2442a5d0 	addiu	v0,v0,-23088
806096a8:	904300ab 	lbu	v1,171(v0)
806096ac:	34630004 	ori	v1,v1,0x4
806096b0:	03e00008 	jr	ra
806096b4:	a04300ab 	sb	v1,171(v0)
806096b8:	3c028012 	lui	v0,0x8012
806096bc:	2442a5d0 	addiu	v0,v0,-23088
806096c0:	904300ac 	lbu	v1,172(v0)
806096c4:	34630004 	ori	v1,v1,0x4
806096c8:	03e00008 	jr	ra
806096cc:	a04300ac 	sb	v1,172(v0)
806096d0:	3c028012 	lui	v0,0x8012
806096d4:	2442a5d0 	addiu	v0,v0,-23088
806096d8:	904300ad 	lbu	v1,173(v0)
806096dc:	34630004 	ori	v1,v1,0x4
806096e0:	03e00008 	jr	ra
806096e4:	a04300ad 	sb	v1,173(v0)
806096e8:	3c028012 	lui	v0,0x8012
806096ec:	2442a5d0 	addiu	v0,v0,-23088
806096f0:	904300ae 	lbu	v1,174(v0)
806096f4:	34630004 	ori	v1,v1,0x4
806096f8:	03e00008 	jr	ra
806096fc:	a04300ae 	sb	v1,174(v0)
80609700:	3c028012 	lui	v0,0x8012
80609704:	2442a5d0 	addiu	v0,v0,-23088
80609708:	904300af 	lbu	v1,175(v0)
8060970c:	34630004 	ori	v1,v1,0x4
80609710:	03e00008 	jr	ra
80609714:	a04300af 	sb	v1,175(v0)
80609718:	3c028012 	lui	v0,0x8012
8060971c:	2442a5d0 	addiu	v0,v0,-23088
80609720:	904300b0 	lbu	v1,176(v0)
80609724:	34630004 	ori	v1,v1,0x4
80609728:	03e00008 	jr	ra
8060972c:	a04300b0 	sb	v1,176(v0)
80609730:	3c028012 	lui	v0,0x8012
80609734:	2442a5d0 	addiu	v0,v0,-23088
80609738:	904300b1 	lbu	v1,177(v0)
8060973c:	34630004 	ori	v1,v1,0x4
80609740:	03e00008 	jr	ra
80609744:	a04300b1 	sb	v1,177(v0)
80609748:	3c028012 	lui	v0,0x8012
8060974c:	2442a5d0 	addiu	v0,v0,-23088
80609750:	904300a8 	lbu	v1,168(v0)
80609754:	34630002 	ori	v1,v1,0x2
80609758:	03e00008 	jr	ra
8060975c:	a04300a8 	sb	v1,168(v0)
80609760:	3c028012 	lui	v0,0x8012
80609764:	2442a5d0 	addiu	v0,v0,-23088
80609768:	904300a9 	lbu	v1,169(v0)
8060976c:	34630002 	ori	v1,v1,0x2
80609770:	03e00008 	jr	ra
80609774:	a04300a9 	sb	v1,169(v0)
80609778:	3c028012 	lui	v0,0x8012
8060977c:	2442a5d0 	addiu	v0,v0,-23088
80609780:	904300aa 	lbu	v1,170(v0)
80609784:	34630002 	ori	v1,v1,0x2
80609788:	03e00008 	jr	ra
8060978c:	a04300aa 	sb	v1,170(v0)
80609790:	3c028012 	lui	v0,0x8012
80609794:	2442a5d0 	addiu	v0,v0,-23088
80609798:	904300ab 	lbu	v1,171(v0)
8060979c:	34630002 	ori	v1,v1,0x2
806097a0:	03e00008 	jr	ra
806097a4:	a04300ab 	sb	v1,171(v0)
806097a8:	3c028012 	lui	v0,0x8012
806097ac:	2442a5d0 	addiu	v0,v0,-23088
806097b0:	904300ac 	lbu	v1,172(v0)
806097b4:	34630002 	ori	v1,v1,0x2
806097b8:	03e00008 	jr	ra
806097bc:	a04300ac 	sb	v1,172(v0)
806097c0:	3c028012 	lui	v0,0x8012
806097c4:	2442a5d0 	addiu	v0,v0,-23088
806097c8:	904300ad 	lbu	v1,173(v0)
806097cc:	34630002 	ori	v1,v1,0x2
806097d0:	03e00008 	jr	ra
806097d4:	a04300ad 	sb	v1,173(v0)
806097d8:	3c028012 	lui	v0,0x8012
806097dc:	2442a5d0 	addiu	v0,v0,-23088
806097e0:	904300ae 	lbu	v1,174(v0)
806097e4:	34630002 	ori	v1,v1,0x2
806097e8:	03e00008 	jr	ra
806097ec:	a04300ae 	sb	v1,174(v0)
806097f0:	3c028012 	lui	v0,0x8012
806097f4:	2442a5d0 	addiu	v0,v0,-23088
806097f8:	904300af 	lbu	v1,175(v0)
806097fc:	34630002 	ori	v1,v1,0x2
80609800:	03e00008 	jr	ra
80609804:	a04300af 	sb	v1,175(v0)
80609808:	3c028012 	lui	v0,0x8012
8060980c:	2442a5d0 	addiu	v0,v0,-23088
80609810:	904300b0 	lbu	v1,176(v0)
80609814:	34630002 	ori	v1,v1,0x2
80609818:	03e00008 	jr	ra
8060981c:	a04300b0 	sb	v1,176(v0)
80609820:	3c028012 	lui	v0,0x8012
80609824:	2442a5d0 	addiu	v0,v0,-23088
80609828:	904300b1 	lbu	v1,177(v0)
8060982c:	34630002 	ori	v1,v1,0x2
80609830:	a04300b1 	sb	v1,177(v0)
80609834:	03e00008 	jr	ra
80609838:	00000000 	nop

8060983c <comboInitObjects>:
8060983c:	3c058062 	lui	a1,0x8062
80609840:	3c0413f8 	lui	a0,0x13f8
80609844:	24060078 	li	a2,120
80609848:	24a55e60 	addiu	a1,a1,24160
8060984c:	08000217 	j	8000085c <DMARomToRam>
80609850:	3484ffd0 	ori	a0,a0,0xffd0

80609854 <comboLoadObject>:
80609854:	27bdffd8 	addiu	sp,sp,-40
80609858:	afb10018 	sw	s1,24(sp)
8060985c:	afbf0024 	sw	ra,36(sp)
80609860:	afb30020 	sw	s3,32(sp)
80609864:	afb2001c 	sw	s2,28(sp)
80609868:	afb00014 	sw	s0,20(sp)
8060986c:	10a00023 	beqz	a1,806098fc <comboLoadObject+0xa8>
80609870:	00008825 	move	s1,zero
80609874:	30a22000 	andi	v0,a1,0x2000
80609878:	00809025 	move	s2,a0
8060987c:	14400027 	bnez	v0,8060991c <comboLoadObject+0xc8>
80609880:	00a08025 	move	s0,a1
80609884:	30a21000 	andi	v0,a1,0x1000
80609888:	14400028 	bnez	v0,8060992c <comboLoadObject+0xd8>
8060988c:	3c028061 	lui	v0,0x8061
80609890:	3c028010 	lui	v0,0x8010
80609894:	00009825 	move	s3,zero
80609898:	24428ff8 	addiu	v0,v0,-28680
8060989c:	32030fff 	andi	v1,s0,0xfff
806098a0:	000318c0 	sll	v1,v1,0x3
806098a4:	00431021 	addu	v0,v0,v1
806098a8:	8c450000 	lw	a1,0(v0)
806098ac:	8c510004 	lw	s1,4(v0)
806098b0:	12400012 	beqz	s2,806098fc <comboLoadObject+0xa8>
806098b4:	02258823 	subu	s1,s1,a1
806098b8:	02203025 	move	a2,s1
806098bc:	0c00037c 	jal	80000df0 <LoadFile>
806098c0:	02402025 	move	a0,s2
806098c4:	1260000e 	beqz	s3,80609900 <comboLoadObject+0xac>
806098c8:	8fbf0024 	lw	ra,36(sp)
806098cc:	3c038061 	lui	v1,0x8061
806098d0:	2463e340 	addiu	v1,v1,-7360
806098d4:	3210efff 	andi	s0,s0,0xefff
806098d8:	00002025 	move	a0,zero
806098dc:	00601025 	move	v0,v1
806098e0:	24050020 	li	a1,32
806098e4:	94660000 	lhu	a2,0(v1)
806098e8:	50d00013 	beql	a2,s0,80609938 <comboLoadObject+0xe4>
806098ec:	000418c0 	sll	v1,a0,0x3
806098f0:	24840001 	addiu	a0,a0,1
806098f4:	1485fffb 	bne	a0,a1,806098e4 <comboLoadObject+0x90>
806098f8:	24630012 	addiu	v1,v1,18
806098fc:	8fbf0024 	lw	ra,36(sp)
80609900:	8fb30020 	lw	s3,32(sp)
80609904:	8fb2001c 	lw	s2,28(sp)
80609908:	8fb00014 	lw	s0,20(sp)
8060990c:	02201025 	move	v0,s1
80609910:	8fb10018 	lw	s1,24(sp)
80609914:	03e00008 	jr	ra
80609918:	27bd0028 	addiu	sp,sp,40
8060991c:	3c028062 	lui	v0,0x8062
80609920:	24130001 	li	s3,1
80609924:	1000ffdd 	b	8060989c <comboLoadObject+0x48>
80609928:	24425e60 	addiu	v0,v0,24160
8060992c:	24130001 	li	s3,1
80609930:	1000ffda 	b	8060989c <comboLoadObject+0x48>
80609934:	2442e580 	addiu	v0,v0,-6784
80609938:	00641821 	addu	v1,v1,a0
8060993c:	00031840 	sll	v1,v1,0x1
80609940:	3c040005 	lui	a0,0x5
80609944:	00431021 	addu	v0,v0,v1
80609948:	3c0900ff 	lui	t1,0xff
8060994c:	3c030003 	lui	v1,0x3
80609950:	3c0a0007 	lui	t2,0x7
80609954:	3c0b0004 	lui	t3,0x4
80609958:	248d4f20 	addiu	t5,a0,20256
8060995c:	24873390 	addiu	a3,a0,13200
80609960:	24080008 	li	t0,8
80609964:	3529ffff 	ori	t1,t1,0xffff
80609968:	346e9450 	ori	t6,v1,0x9450
8060996c:	354adf10 	ori	t2,t2,0xdf10
80609970:	256b4fb0 	addiu	t3,t3,20400
80609974:	246f2930 	addiu	t7,v1,10544
80609978:	24643130 	addiu	a0,v1,12592
8060997c:	3c0c0400 	lui	t4,0x400
80609980:	94430002 	lhu	v1,2(v0)
80609984:	1060ffde 	beqz	v1,80609900 <comboLoadObject+0xac>
80609988:	8fbf0024 	lw	ra,36(sp)
8060998c:	24630004 	addiu	v1,v1,4
80609990:	02431821 	addu	v1,s2,v1
80609994:	8c660000 	lw	a2,0(v1)
80609998:	00c93024 	and	a2,a2,t1
8060999c:	10cd0006 	beq	a2,t5,806099b8 <comboLoadObject+0x164>
806099a0:	01c02825 	move	a1,t6
806099a4:	10ca0004 	beq	a2,t2,806099b8 <comboLoadObject+0x164>
806099a8:	00e02825 	move	a1,a3
806099ac:	14cb0002 	bne	a2,t3,806099b8 <comboLoadObject+0x164>
806099b0:	01e02825 	move	a1,t7
806099b4:	00802825 	move	a1,a0
806099b8:	00ac2825 	or	a1,a1,t4
806099bc:	2508ffff 	addiu	t0,t0,-1
806099c0:	ac650000 	sw	a1,0(v1)
806099c4:	1500ffee 	bnez	t0,80609980 <comboLoadObject+0x12c>
806099c8:	24420002 	addiu	v0,v0,2
806099cc:	1000ffcc 	b	80609900 <comboLoadObject+0xac>
806099d0:	8fbf0024 	lw	ra,36(sp)

806099d4 <comboLoadCustomKeep>:
806099d4:	3c028062 	lui	v0,0x8062
806099d8:	24425e60 	addiu	v0,v0,24160
806099dc:	8c440074 	lw	a0,116(v0)
806099e0:	8c420070 	lw	v0,112(v0)
806099e4:	27bdffe8 	addiu	sp,sp,-24
806099e8:	afbf0014 	sw	ra,20(sp)
806099ec:	0c033688 	jal	800cda20 <malloc>
806099f0:	00822023 	subu	a0,a0,v0
806099f4:	8fbf0014 	lw	ra,20(sp)
806099f8:	00402025 	move	a0,v0
806099fc:	3c028062 	lui	v0,0x8062
80609a00:	2405200e 	li	a1,8206
80609a04:	27bd0018 	addiu	sp,sp,24
80609a08:	08182615 	j	80609854 <comboLoadObject>
80609a0c:	ac445ed8 	sw	a0,24280(v0)

80609a10 <comboGetObject>:
80609a10:	27bdffd8 	addiu	sp,sp,-40
80609a14:	afb10018 	sw	s1,24(sp)
80609a18:	afbf0024 	sw	ra,36(sp)
80609a1c:	afb30020 	sw	s3,32(sp)
80609a20:	afb2001c 	sw	s2,28(sp)
80609a24:	afb00014 	sw	s0,20(sp)
80609a28:	10800015 	beqz	a0,80609a80 <comboGetObject+0x70>
80609a2c:	00008825 	move	s1,zero
80609a30:	3c028062 	lui	v0,0x8062
80609a34:	24425f3c 	addiu	v0,v0,24380
80609a38:	00809025 	move	s2,a0
80609a3c:	00008025 	move	s0,zero
80609a40:	00409825 	move	s3,v0
80609a44:	24040010 	li	a0,16
80609a48:	94430000 	lhu	v1,0(v0)
80609a4c:	14720014 	bne	v1,s2,80609aa0 <comboGetObject+0x90>
80609a50:	00000000 	nop
80609a54:	3c038062 	lui	v1,0x8062
80609a58:	00101040 	sll	v0,s0,0x1
80609a5c:	24635edc 	addiu	v1,v1,24284
80609a60:	00431021 	addu	v0,v0,v1
80609a64:	24030006 	li	v1,6
80609a68:	a4430000 	sh	v1,0(v0)
80609a6c:	3c028062 	lui	v0,0x8062
80609a70:	00108080 	sll	s0,s0,0x2
80609a74:	24425efc 	addiu	v0,v0,24316
80609a78:	02028021 	addu	s0,s0,v0
80609a7c:	8e110000 	lw	s1,0(s0)
80609a80:	8fbf0024 	lw	ra,36(sp)
80609a84:	8fb30020 	lw	s3,32(sp)
80609a88:	8fb2001c 	lw	s2,28(sp)
80609a8c:	8fb00014 	lw	s0,20(sp)
80609a90:	02201025 	move	v0,s1
80609a94:	8fb10018 	lw	s1,24(sp)
80609a98:	03e00008 	jr	ra
80609a9c:	27bd0028 	addiu	sp,sp,40
80609aa0:	54600018 	bnezl	v1,80609b04 <comboGetObject+0xf4>
80609aa4:	26100001 	addiu	s0,s0,1
80609aa8:	02402825 	move	a1,s2
80609aac:	0c182615 	jal	80609854 <comboLoadObject>
80609ab0:	00002025 	move	a0,zero
80609ab4:	0c019b04 	jal	80066c10 <ActorAlloc>
80609ab8:	00402025 	move	a0,v0
80609abc:	00402025 	move	a0,v0
80609ac0:	02402825 	move	a1,s2
80609ac4:	0c182615 	jal	80609854 <comboLoadObject>
80609ac8:	00408825 	move	s1,v0
80609acc:	3c038062 	lui	v1,0x8062
80609ad0:	00101040 	sll	v0,s0,0x1
80609ad4:	24635efc 	addiu	v1,v1,24316
80609ad8:	00108080 	sll	s0,s0,0x2
80609adc:	02038021 	addu	s0,s0,v1
80609ae0:	3c038062 	lui	v1,0x8062
80609ae4:	24635edc 	addiu	v1,v1,24284
80609ae8:	02629821 	addu	s3,s3,v0
80609aec:	00431021 	addu	v0,v0,v1
80609af0:	24030006 	li	v1,6
80609af4:	a6720000 	sh	s2,0(s3)
80609af8:	ae110000 	sw	s1,0(s0)
80609afc:	1000ffe0 	b	80609a80 <comboGetObject+0x70>
80609b00:	a4430000 	sh	v1,0(v0)
80609b04:	1604ffd0 	bne	s0,a0,80609a48 <comboGetObject+0x38>
80609b08:	24420002 	addiu	v0,v0,2
80609b0c:	1000ffdc 	b	80609a80 <comboGetObject+0x70>
80609b10:	00008825 	move	s1,zero

80609b14 <comboObjectsReset>:
80609b14:	3c038062 	lui	v1,0x8062
80609b18:	3c058062 	lui	a1,0x8062
80609b1c:	3c048062 	lui	a0,0x8062
80609b20:	24635efc 	addiu	v1,v1,24316
80609b24:	00001025 	move	v0,zero
80609b28:	24a55f3c 	addiu	a1,a1,24380
80609b2c:	24845edc 	addiu	a0,a0,24284
80609b30:	24060020 	li	a2,32
80609b34:	00a23821 	addu	a3,a1,v0
80609b38:	a4e00000 	sh	zero,0(a3)
80609b3c:	00823821 	addu	a3,a0,v0
80609b40:	24420002 	addiu	v0,v0,2
80609b44:	ac600000 	sw	zero,0(v1)
80609b48:	a4e00000 	sh	zero,0(a3)
80609b4c:	1446fff9 	bne	v0,a2,80609b34 <comboObjectsReset+0x20>
80609b50:	24630004 	addiu	v1,v1,4
80609b54:	03e00008 	jr	ra
80609b58:	00000000 	nop

80609b5c <comboObjectsGC>:
80609b5c:	27bdffd8 	addiu	sp,sp,-40
80609b60:	afb3001c 	sw	s3,28(sp)
80609b64:	afb10014 	sw	s1,20(sp)
80609b68:	afb00010 	sw	s0,16(sp)
80609b6c:	3c118062 	lui	s1,0x8062
80609b70:	3c108062 	lui	s0,0x8062
80609b74:	3c138062 	lui	s3,0x8062
80609b78:	afb40020 	sw	s4,32(sp)
80609b7c:	afb20018 	sw	s2,24(sp)
80609b80:	afbf0024 	sw	ra,36(sp)
80609b84:	26315efc 	addiu	s1,s1,24316
80609b88:	26105edc 	addiu	s0,s0,24284
80609b8c:	00009025 	move	s2,zero
80609b90:	26735f3c 	addiu	s3,s3,24380
80609b94:	24140020 	li	s4,32
80609b98:	8e240000 	lw	a0,0(s1)
80609b9c:	5080000b 	beqzl	a0,80609bcc <comboObjectsGC+0x70>
80609ba0:	26520002 	addiu	s2,s2,2
80609ba4:	96020000 	lhu	v0,0(s0)
80609ba8:	14400013 	bnez	v0,80609bf8 <comboObjectsGC+0x9c>
80609bac:	2442ffff 	addiu	v0,v0,-1
80609bb0:	0c019b24 	jal	80066c90 <ActorFree>
80609bb4:	00000000 	nop
80609bb8:	02721021 	addu	v0,s3,s2
80609bbc:	a4400000 	sh	zero,0(v0)
80609bc0:	ae200000 	sw	zero,0(s1)
80609bc4:	a6000000 	sh	zero,0(s0)
80609bc8:	26520002 	addiu	s2,s2,2
80609bcc:	26310004 	addiu	s1,s1,4
80609bd0:	1654fff1 	bne	s2,s4,80609b98 <comboObjectsGC+0x3c>
80609bd4:	26100002 	addiu	s0,s0,2
80609bd8:	8fbf0024 	lw	ra,36(sp)
80609bdc:	8fb40020 	lw	s4,32(sp)
80609be0:	8fb3001c 	lw	s3,28(sp)
80609be4:	8fb20018 	lw	s2,24(sp)
80609be8:	8fb10014 	lw	s1,20(sp)
80609bec:	8fb00010 	lw	s0,16(sp)
80609bf0:	03e00008 	jr	ra
80609bf4:	27bd0028 	addiu	sp,sp,40
80609bf8:	1000fff3 	b	80609bc8 <comboObjectsGC+0x6c>
80609bfc:	a6020000 	sh	v0,0(s0)

80609c00 <comboInitData>:
80609c00:	3c058062 	lui	a1,0x8062
80609c04:	2406005c 	li	a2,92
80609c08:	24a55f60 	addiu	a1,a1,24416
80609c0c:	08000217 	j	8000085c <DMARomToRam>
80609c10:	3c0413fe 	lui	a0,0x13fe

80609c14 <comboInit>:
80609c14:	27bdffe8 	addiu	sp,sp,-24
80609c18:	afbf0014 	sw	ra,20(sp)
80609c1c:	0c1820bd 	jal	806082f4 <comboLoadContext>
80609c20:	00000000 	nop
80609c24:	0c181d69 	jal	806075a4 <comboInitDma>
80609c28:	00000000 	nop
80609c2c:	0c182700 	jal	80609c00 <comboInitData>
80609c30:	00000000 	nop
80609c34:	0c18260f 	jal	8060983c <comboInitObjects>
80609c38:	00000000 	nop
80609c3c:	0c183120 	jal	8060c480 <comboInitOverride>
80609c40:	00000000 	nop
80609c44:	0c182ee6 	jal	8060bb98 <comboInitHints>
80609c48:	00000000 	nop
80609c4c:	8fbf0014 	lw	ra,20(sp)
80609c50:	0818347c 	j	8060d1f0 <comboInitEntrances>
80609c54:	27bd0018 	addiu	sp,sp,24

80609c58 <comboTextAutoLineBreaks>:
80609c58:	27bdffc8 	addiu	sp,sp,-56
80609c5c:	afbe0030 	sw	s8,48(sp)
80609c60:	afb7002c 	sw	s7,44(sp)
80609c64:	afb60028 	sw	s6,40(sp)
80609c68:	afb50024 	sw	s5,36(sp)
80609c6c:	afb40020 	sw	s4,32(sp)
80609c70:	afb3001c 	sw	s3,28(sp)
80609c74:	afb20018 	sw	s2,24(sp)
80609c78:	afb10014 	sw	s1,20(sp)
80609c7c:	afb00010 	sw	s0,16(sp)
80609c80:	afbf0034 	sw	ra,52(sp)
80609c84:	00809825 	move	s3,a0
80609c88:	2410ffff 	li	s0,-1
80609c8c:	00009025 	move	s2,zero
80609c90:	00008825 	move	s1,zero
80609c94:	24140002 	li	s4,2
80609c98:	2415ffff 	li	s5,-1
80609c9c:	24160001 	li	s6,1
80609ca0:	24170020 	li	s7,32
80609ca4:	241e0001 	li	s8,1
80609ca8:	02721021 	addu	v0,s3,s2
80609cac:	80420000 	lb	v0,0(v0)
80609cb0:	1054001c 	beq	v0,s4,80609d24 <comboTextAutoLineBreaks+0xcc>
80609cb4:	304400ff 	andi	a0,v0,0xff
80609cb8:	2483ffe0 	addiu	v1,a0,-32
80609cbc:	2c63005f 	sltiu	v1,v1,95
80609cc0:	1060000b 	beqz	v1,80609cf0 <comboTextAutoLineBreaks+0x98>
80609cc4:	00000000 	nop
80609cc8:	26310001 	addiu	s1,s1,1
80609ccc:	2a230025 	slti	v1,s1,37
80609cd0:	14600007 	bnez	v1,80609cf0 <comboTextAutoLineBreaks+0x98>
80609cd4:	00000000 	nop
80609cd8:	12150005 	beq	s0,s5,80609cf0 <comboTextAutoLineBreaks+0x98>
80609cdc:	00000000 	nop
80609ce0:	02508823 	subu	s1,s2,s0
80609ce4:	02708021 	addu	s0,s3,s0
80609ce8:	a2160000 	sb	s6,0(s0)
80609cec:	2410ffff 	li	s0,-1
80609cf0:	50970008 	beql	a0,s7,80609d14 <comboTextAutoLineBreaks+0xbc>
80609cf4:	02408025 	move	s0,s2
80609cf8:	505e0005 	beql	v0,s8,80609d10 <comboTextAutoLineBreaks+0xb8>
80609cfc:	2410ffff 	li	s0,-1
80609d00:	24030004 	li	v1,4
80609d04:	14430003 	bne	v0,v1,80609d14 <comboTextAutoLineBreaks+0xbc>
80609d08:	00000000 	nop
80609d0c:	2410ffff 	li	s0,-1
80609d10:	00008825 	move	s1,zero
80609d14:	0c18123d 	jal	806048f4 <comboMultibyteCharSize>
80609d18:	00000000 	nop
80609d1c:	1000ffe2 	b	80609ca8 <comboTextAutoLineBreaks+0x50>
80609d20:	02429021 	addu	s2,s2,v0
80609d24:	8fbf0034 	lw	ra,52(sp)
80609d28:	8fbe0030 	lw	s8,48(sp)
80609d2c:	8fb7002c 	lw	s7,44(sp)
80609d30:	8fb60028 	lw	s6,40(sp)
80609d34:	8fb50024 	lw	s5,36(sp)
80609d38:	8fb40020 	lw	s4,32(sp)
80609d3c:	8fb3001c 	lw	s3,28(sp)
80609d40:	8fb20018 	lw	s2,24(sp)
80609d44:	8fb10014 	lw	s1,20(sp)
80609d48:	8fb00010 	lw	s0,16(sp)
80609d4c:	03e00008 	jr	ra
80609d50:	27bd0038 	addiu	sp,sp,56

80609d54 <comboTextAppendStr>:
80609d54:	27bdffe0 	addiu	sp,sp,-32
80609d58:	afb00014 	sw	s0,20(sp)
80609d5c:	00808025 	move	s0,a0
80609d60:	00a02025 	move	a0,a1
80609d64:	afbf001c 	sw	ra,28(sp)
80609d68:	afb10018 	sw	s1,24(sp)
80609d6c:	0c1834c1 	jal	8060d304 <strlen>
80609d70:	afa50024 	sw	a1,36(sp)
80609d74:	8fa50024 	lw	a1,36(sp)
80609d78:	8e040000 	lw	a0,0(s0)
80609d7c:	00403025 	move	a2,v0
80609d80:	0c18349e 	jal	8060d278 <memcpy>
80609d84:	00408825 	move	s1,v0
80609d88:	8e020000 	lw	v0,0(s0)
80609d8c:	8fbf001c 	lw	ra,28(sp)
80609d90:	00511021 	addu	v0,v0,s1
80609d94:	ae020000 	sw	v0,0(s0)
80609d98:	8fb10018 	lw	s1,24(sp)
80609d9c:	8fb00014 	lw	s0,20(sp)
80609da0:	03e00008 	jr	ra
80609da4:	27bd0020 	addiu	sp,sp,32

80609da8 <comboTextAppendHeader>:
80609da8:	3c058061 	lui	a1,0x8061
80609dac:	08182755 	j	80609d54 <comboTextAppendStr>
80609db0:	24a5f998 	addiu	a1,a1,-1640

80609db4 <comboTextAppendShopHeader>:
80609db4:	3c058061 	lui	a1,0x8061
80609db8:	08182755 	j	80609d54 <comboTextAppendStr>
80609dbc:	24a5f998 	addiu	a1,a1,-1640

80609dc0 <comboTextAppendClearColor>:
80609dc0:	3c058061 	lui	a1,0x8061
80609dc4:	08182755 	j	80609d54 <comboTextAppendStr>
80609dc8:	24a5f99c 	addiu	a1,a1,-1636

80609dcc <comboTextAppendNum>:
80609dcc:	3c023b9a 	lui	v0,0x3b9a
80609dd0:	2407000a 	li	a3,10
80609dd4:	00001825 	move	v1,zero
80609dd8:	3442ca00 	ori	v0,v0,0xca00
80609ddc:	2408000a 	li	t0,10
80609de0:	00a2001a 	div	zero,a1,v0
80609de4:	00003012 	mflo	a2
80609de8:	00661825 	or	v1,v1,a2
80609dec:	00002810 	mfhi	a1
80609df0:	00000000 	nop
80609df4:	10600008 	beqz	v1,80609e18 <comboTextAppendNum+0x4c>
80609df8:	0048001a 	div	zero,v0,t0
80609dfc:	8c830000 	lw	v1,0(a0)
80609e00:	24c60030 	addiu	a2,a2,48
80609e04:	a0660000 	sb	a2,0(v1)
80609e08:	8c830000 	lw	v1,0(a0)
80609e0c:	24630001 	addiu	v1,v1,1
80609e10:	ac830000 	sw	v1,0(a0)
80609e14:	24030001 	li	v1,1
80609e18:	24e7ffff 	addiu	a3,a3,-1
80609e1c:	00001012 	mflo	v0
80609e20:	00000000 	nop
80609e24:	54e0ffef 	bnezl	a3,80609de4 <comboTextAppendNum+0x18>
80609e28:	00a2001a 	div	zero,a1,v0
80609e2c:	14600006 	bnez	v1,80609e48 <comboTextAppendNum+0x7c>
80609e30:	24030030 	li	v1,48
80609e34:	8c820000 	lw	v0,0(a0)
80609e38:	a0430000 	sb	v1,0(v0)
80609e3c:	8c820000 	lw	v0,0(a0)
80609e40:	24420001 	addiu	v0,v0,1
80609e44:	ac820000 	sw	v0,0(a0)
80609e48:	03e00008 	jr	ra
80609e4c:	00000000 	nop

80609e50 <comboTextAppendItemName>:
80609e50:	2402feff 	li	v0,-257
80609e54:	27bdffd0 	addiu	sp,sp,-48
80609e58:	00a21024 	and	v0,a1,v0
80609e5c:	afb30020 	sw	s3,32(sp)
80609e60:	afb10018 	sw	s1,24(sp)
80609e64:	30b30100 	andi	s3,a1,0x100
80609e68:	00808825 	move	s1,a0
80609e6c:	2444ffff 	addiu	a0,v0,-1
80609e70:	afb2001c 	sw	s2,28(sp)
80609e74:	afbf002c 	sw	ra,44(sp)
80609e78:	afb50028 	sw	s5,40(sp)
80609e7c:	afb40024 	sw	s4,36(sp)
80609e80:	afb00014 	sw	s0,20(sp)
80609e84:	00c09025 	move	s2,a2
80609e88:	1260006f 	beqz	s3,8060a048 <comboTextAppendItemName+0x1f8>
80609e8c:	00042080 	sll	a0,a0,0x2
80609e90:	3c038061 	lui	v1,0x8061
80609e94:	24631e70 	addiu	v1,v1,7792
80609e98:	00641821 	addu	v1,v1,a0
80609e9c:	8c740000 	lw	s4,0(v1)
80609ea0:	28430061 	slti	v1,v0,97
80609ea4:	10600058 	beqz	v1,8060a008 <comboTextAppendItemName+0x1b8>
80609ea8:	2843004c 	slti	v1,v0,76
80609eac:	1060004a 	beqz	v1,80609fd8 <comboTextAppendItemName+0x188>
80609eb0:	28430043 	slti	v1,v0,67
80609eb4:	1060000d 	beqz	v1,80609eec <comboTextAppendItemName+0x9c>
80609eb8:	00008025 	move	s0,zero
80609ebc:	2843002e 	slti	v1,v0,46
80609ec0:	10600049 	beqz	v1,80609fe8 <comboTextAppendItemName+0x198>
80609ec4:	2843002b 	slti	v1,v0,43
80609ec8:	10600008 	beqz	v1,80609eec <comboTextAppendItemName+0x9c>
80609ecc:	2843000c 	slti	v1,v0,12
80609ed0:	10600049 	beqz	v1,80609ff8 <comboTextAppendItemName+0x1a8>
80609ed4:	28430003 	slti	v1,v0,3
80609ed8:	14600004 	bnez	v1,80609eec <comboTextAppendItemName+0x9c>
80609edc:	0002802a 	slt	s0,zero,v0
80609ee0:	2442fffc 	addiu	v0,v0,-4
80609ee4:	3042ffff 	andi	v0,v0,0xffff
80609ee8:	2c500007 	sltiu	s0,v0,7
80609eec:	32420004 	andi	v0,s2,0x4
80609ef0:	10400010 	beqz	v0,80609f34 <comboTextAppendItemName+0xe4>
80609ef4:	02202025 	move	a0,s1
80609ef8:	24020045 	li	v0,69
80609efc:	10a200b5 	beq	a1,v0,8060a1d4 <comboTextAppendItemName+0x384>
80609f00:	28a20046 	slti	v0,a1,70
80609f04:	10400084 	beqz	v0,8060a118 <comboTextAppendItemName+0x2c8>
80609f08:	24020028 	li	v0,40
80609f0c:	10a200a3 	beq	a1,v0,8060a19c <comboTextAppendItemName+0x34c>
80609f10:	28a20029 	slti	v0,a1,41
80609f14:	10400078 	beqz	v0,8060a0f8 <comboTextAppendItemName+0x2a8>
80609f18:	24020037 	li	v0,55
80609f1c:	24020008 	li	v0,8
80609f20:	10a200a5 	beq	a1,v0,8060a1b8 <comboTextAppendItemName+0x368>
80609f24:	24020027 	li	v0,39
80609f28:	10a20094 	beq	a1,v0,8060a17c <comboTextAppendItemName+0x32c>
80609f2c:	00000000 	nop
80609f30:	02202025 	move	a0,s1
80609f34:	02802825 	move	a1,s4
80609f38:	0c182755 	jal	80609d54 <comboTextAppendStr>
80609f3c:	8e350000 	lw	s5,0(s1)
80609f40:	0c182770 	jal	80609dc0 <comboTextAppendClearColor>
80609f44:	02202025 	move	a0,s1
80609f48:	52000012 	beqzl	s0,80609f94 <comboTextAppendItemName+0x144>
80609f4c:	32520001 	andi	s2,s2,0x1
80609f50:	3c058061 	lui	a1,0x8061
80609f54:	24a5fa8c 	addiu	a1,a1,-1396
80609f58:	0c182755 	jal	80609d54 <comboTextAppendStr>
80609f5c:	02202025 	move	a0,s1
80609f60:	126000a2 	beqz	s3,8060a1ec <comboTextAppendItemName+0x39c>
80609f64:	3c058061 	lui	a1,0x8061
80609f68:	3c058061 	lui	a1,0x8061
80609f6c:	24a5fa90 	addiu	a1,a1,-1392
80609f70:	0c182755 	jal	80609d54 <comboTextAppendStr>
80609f74:	02202025 	move	a0,s1
80609f78:	0c182770 	jal	80609dc0 <comboTextAppendClearColor>
80609f7c:	02202025 	move	a0,s1
80609f80:	3c058061 	lui	a1,0x8061
80609f84:	24a50fe8 	addiu	a1,a1,4072
80609f88:	0c182755 	jal	80609d54 <comboTextAppendStr>
80609f8c:	02202025 	move	a0,s1
80609f90:	32520001 	andi	s2,s2,0x1
80609f94:	12400005 	beqz	s2,80609fac <comboTextAppendItemName+0x15c>
80609f98:	8fbf002c 	lw	ra,44(sp)
80609f9c:	0c183497 	jal	8060d25c <toupper>
80609fa0:	82a40000 	lb	a0,0(s5)
80609fa4:	a2a20000 	sb	v0,0(s5)
80609fa8:	8fbf002c 	lw	ra,44(sp)
80609fac:	8fb50028 	lw	s5,40(sp)
80609fb0:	8fb40024 	lw	s4,36(sp)
80609fb4:	8fb30020 	lw	s3,32(sp)
80609fb8:	8fb2001c 	lw	s2,28(sp)
80609fbc:	8fb10018 	lw	s1,24(sp)
80609fc0:	8fb00014 	lw	s0,20(sp)
80609fc4:	03e00008 	jr	ra
80609fc8:	27bd0030 	addiu	sp,sp,48
80609fcc:	2442ff87 	addiu	v0,v0,-121
80609fd0:	1000001a 	b	8060a03c <comboTextAppendItemName+0x1ec>
80609fd4:	261000c3 	addiu	s0,s0,195
80609fd8:	3c100010 	lui	s0,0x10
80609fdc:	2442ffb4 	addiu	v0,v0,-76
80609fe0:	10000016 	b	8060a03c <comboTextAppendItemName+0x1ec>
80609fe4:	26106001 	addiu	s0,s0,24577
80609fe8:	3c100018 	lui	s0,0x18
80609fec:	2442ffd2 	addiu	v0,v0,-46
80609ff0:	10000012 	b	8060a03c <comboTextAppendItemName+0x1ec>
80609ff4:	261013b1 	addiu	s0,s0,5041
80609ff8:	3c107fdf 	lui	s0,0x7fdf
80609ffc:	2442fff4 	addiu	v0,v0,-12
8060a000:	1000000e 	b	8060a03c <comboTextAppendItemName+0x1ec>
8060a004:	3610ff03 	ori	s0,s0,0xff03
8060a008:	2843008b 	slti	v1,v0,139
8060a00c:	50600006 	beqzl	v1,8060a028 <comboTextAppendItemName+0x1d8>
8060a010:	2442ff45 	addiu	v0,v0,-187
8060a014:	28430079 	slti	v1,v0,121
8060a018:	5060ffec 	beqzl	v1,80609fcc <comboTextAppendItemName+0x17c>
8060a01c:	3c100002 	lui	s0,0x2
8060a020:	1000ffb2 	b	80609eec <comboTextAppendItemName+0x9c>
8060a024:	00008025 	move	s0,zero
8060a028:	3042ffff 	andi	v0,v0,0xffff
8060a02c:	2c43000e 	sltiu	v1,v0,14
8060a030:	1060ffae 	beqz	v1,80609eec <comboTextAppendItemName+0x9c>
8060a034:	00008025 	move	s0,zero
8060a038:	24102a07 	li	s0,10759
8060a03c:	00508006 	srlv	s0,s0,v0
8060a040:	1000ffaa 	b	80609eec <comboTextAppendItemName+0x9c>
8060a044:	32100001 	andi	s0,s0,0x1
8060a048:	3c038061 	lui	v1,0x8061
8060a04c:	24632208 	addiu	v1,v1,8712
8060a050:	00641821 	addu	v1,v1,a0
8060a054:	8c740000 	lw	s4,0(v1)
8060a058:	28430050 	slti	v1,v0,80
8060a05c:	10600015 	beqz	v1,8060a0b4 <comboTextAppendItemName+0x264>
8060a060:	2843003d 	slti	v1,v0,61
8060a064:	10600008 	beqz	v1,8060a088 <comboTextAppendItemName+0x238>
8060a068:	28430015 	slti	v1,v0,21
8060a06c:	5060000a 	beqzl	v1,8060a098 <comboTextAppendItemName+0x248>
8060a070:	2442ffea 	addiu	v0,v0,-22
8060a074:	5840ff9d 	blezl	v0,80609eec <comboTextAppendItemName+0x9c>
8060a078:	00008025 	move	s0,zero
8060a07c:	3c100010 	lui	s0,0x10
8060a080:	1000ffee 	b	8060a03c <comboTextAppendItemName+0x1ec>
8060a084:	3610959e 	ori	s0,s0,0x959e
8060a088:	3c100007 	lui	s0,0x7
8060a08c:	2442ffc3 	addiu	v0,v0,-61
8060a090:	1000ffea 	b	8060a03c <comboTextAppendItemName+0x1ec>
8060a094:	3610fb03 	ori	s0,s0,0xfb03
8060a098:	3042ffff 	andi	v0,v0,0xffff
8060a09c:	2c43001f 	sltiu	v1,v0,31
8060a0a0:	1060ff92 	beqz	v1,80609eec <comboTextAppendItemName+0x9c>
8060a0a4:	00008025 	move	s0,zero
8060a0a8:	3c107c32 	lui	s0,0x7c32
8060a0ac:	1000ffe3 	b	8060a03c <comboTextAppendItemName+0x1ec>
8060a0b0:	26100071 	addiu	s0,s0,113
8060a0b4:	2843006c 	slti	v1,v0,108
8060a0b8:	10600007 	beqz	v1,8060a0d8 <comboTextAppendItemName+0x288>
8060a0bc:	24030050 	li	v1,80
8060a0c0:	5043ff8a 	beql	v0,v1,80609eec <comboTextAppendItemName+0x9c>
8060a0c4:	00008025 	move	s0,zero
8060a0c8:	3c1006ff 	lui	s0,0x6ff
8060a0cc:	2442ffaf 	addiu	v0,v0,-81
8060a0d0:	1000ffda 	b	8060a03c <comboTextAppendItemName+0x1ec>
8060a0d4:	261003b3 	addiu	s0,s0,947
8060a0d8:	2442ff79 	addiu	v0,v0,-135
8060a0dc:	3042ffff 	andi	v0,v0,0xffff
8060a0e0:	2c430012 	sltiu	v1,v0,18
8060a0e4:	5060ff81 	beqzl	v1,80609eec <comboTextAppendItemName+0x9c>
8060a0e8:	00008025 	move	s0,zero
8060a0ec:	3c100003 	lui	s0,0x3
8060a0f0:	1000ffd2 	b	8060a03c <comboTextAppendItemName+0x1ec>
8060a0f4:	36108019 	ori	s0,s0,0x8019
8060a0f8:	10a20033 	beq	a1,v0,8060a1c8 <comboTextAppendItemName+0x378>
8060a0fc:	2402003b 	li	v0,59
8060a100:	54a2ff8c 	bnel	a1,v0,80609f34 <comboTextAppendItemName+0xe4>
8060a104:	02202025 	move	a0,s1
8060a108:	3c148061 	lui	s4,0x8061
8060a10c:	24100001 	li	s0,1
8060a110:	1000ff87 	b	80609f30 <comboTextAppendItemName+0xe0>
8060a114:	2694f9ec 	addiu	s4,s4,-1556
8060a118:	24020137 	li	v0,311
8060a11c:	10a2001b 	beq	a1,v0,8060a18c <comboTextAppendItemName+0x33c>
8060a120:	28a20138 	slti	v0,a1,312
8060a124:	1040000c 	beqz	v0,8060a158 <comboTextAppendItemName+0x308>
8060a128:	240201c9 	li	v0,457
8060a12c:	24020099 	li	v0,153
8060a130:	10a2000e 	beq	a1,v0,8060a16c <comboTextAppendItemName+0x31c>
8060a134:	24020108 	li	v0,264
8060a138:	50a20027 	beql	a1,v0,8060a1d8 <comboTextAppendItemName+0x388>
8060a13c:	3c148061 	lui	s4,0x8061
8060a140:	24020054 	li	v0,84
8060a144:	54a2ff7b 	bnel	a1,v0,80609f34 <comboTextAppendItemName+0xe4>
8060a148:	02202025 	move	a0,s1
8060a14c:	3c148061 	lui	s4,0x8061
8060a150:	1000ff77 	b	80609f30 <comboTextAppendItemName+0xe0>
8060a154:	2694fa70 	addiu	s4,s4,-1424
8060a158:	50a20022 	beql	a1,v0,8060a1e4 <comboTextAppendItemName+0x394>
8060a15c:	3c148061 	lui	s4,0x8061
8060a160:	240201cf 	li	v0,463
8060a164:	54a2ff73 	bnel	a1,v0,80609f34 <comboTextAppendItemName+0xe4>
8060a168:	02202025 	move	a0,s1
8060a16c:	3c148061 	lui	s4,0x8061
8060a170:	24100001 	li	s0,1
8060a174:	1000ff6e 	b	80609f30 <comboTextAppendItemName+0xe0>
8060a178:	2694f9d4 	addiu	s4,s4,-1580
8060a17c:	0c181783 	jal	80605e0c <comboConfig>
8060a180:	24040004 	li	a0,4
8060a184:	5040ff6b 	beqzl	v0,80609f34 <comboTextAppendItemName+0xe4>
8060a188:	02202025 	move	a0,s1
8060a18c:	3c148061 	lui	s4,0x8061
8060a190:	24100001 	li	s0,1
8060a194:	1000ff66 	b	80609f30 <comboTextAppendItemName+0xe0>
8060a198:	2694f9a0 	addiu	s4,s4,-1632
8060a19c:	0c181783 	jal	80605e0c <comboConfig>
8060a1a0:	24040005 	li	a0,5
8060a1a4:	5040ff63 	beqzl	v0,80609f34 <comboTextAppendItemName+0xe4>
8060a1a8:	02202025 	move	a0,s1
8060a1ac:	3c148061 	lui	s4,0x8061
8060a1b0:	1000ff5f 	b	80609f30 <comboTextAppendItemName+0xe0>
8060a1b4:	2694f9b8 	addiu	s4,s4,-1608
8060a1b8:	3c148061 	lui	s4,0x8061
8060a1bc:	24100001 	li	s0,1
8060a1c0:	1000ff5b 	b	80609f30 <comboTextAppendItemName+0xe0>
8060a1c4:	2694fa04 	addiu	s4,s4,-1532
8060a1c8:	3c148061 	lui	s4,0x8061
8060a1cc:	1000ff58 	b	80609f30 <comboTextAppendItemName+0xe0>
8060a1d0:	2694fa58 	addiu	s4,s4,-1448
8060a1d4:	3c148061 	lui	s4,0x8061
8060a1d8:	24100001 	li	s0,1
8060a1dc:	1000ff54 	b	80609f30 <comboTextAppendItemName+0xe0>
8060a1e0:	2694fa20 	addiu	s4,s4,-1504
8060a1e4:	1000ff52 	b	80609f30 <comboTextAppendItemName+0xe0>
8060a1e8:	2694fa38 	addiu	s4,s4,-1480
8060a1ec:	1000ff60 	b	80609f70 <comboTextAppendItemName+0x120>
8060a1f0:	24a5fa98 	addiu	a1,a1,-1384

8060a1f4 <comboTextAppendRegionName>:
8060a1f4:	27bdffd8 	addiu	sp,sp,-40
8060a1f8:	30c20002 	andi	v0,a2,0x2
8060a1fc:	afb2001c 	sw	s2,28(sp)
8060a200:	afbf0024 	sw	ra,36(sp)
8060a204:	afb30020 	sw	s3,32(sp)
8060a208:	afb10018 	sw	s1,24(sp)
8060a20c:	afb00014 	sw	s0,20(sp)
8060a210:	14a00012 	bnez	a1,8060a25c <comboTextAppendRegionName+0x68>
8060a214:	00809025 	move	s2,a0
8060a218:	50400005 	beqzl	v0,8060a230 <comboTextAppendRegionName+0x3c>
8060a21c:	3c058061 	lui	a1,0x8061
8060a220:	3c058061 	lui	a1,0x8061
8060a224:	0c182755 	jal	80609d54 <comboTextAppendStr>
8060a228:	24a5faa0 	addiu	a1,a1,-1376
8060a22c:	3c058061 	lui	a1,0x8061
8060a230:	02402025 	move	a0,s2
8060a234:	0c182755 	jal	80609d54 <comboTextAppendStr>
8060a238:	24a5faa4 	addiu	a1,a1,-1372
8060a23c:	8fbf0024 	lw	ra,36(sp)
8060a240:	8fb30020 	lw	s3,32(sp)
8060a244:	8fb10018 	lw	s1,24(sp)
8060a248:	8fb00014 	lw	s0,20(sp)
8060a24c:	02402025 	move	a0,s2
8060a250:	8fb2001c 	lw	s2,28(sp)
8060a254:	08182770 	j	80609dc0 <comboTextAppendClearColor>
8060a258:	27bd0028 	addiu	sp,sp,40
8060a25c:	00051e00 	sll	v1,a1,0x18
8060a260:	00031e03 	sra	v1,v1,0x18
8060a264:	04610022 	bgez	v1,8060a2f0 <comboTextAppendRegionName+0xfc>
8060a268:	00c08825 	move	s1,a2
8060a26c:	30a5007f 	andi	a1,a1,0x7f
8060a270:	24a5ffff 	addiu	a1,a1,-1
8060a274:	3c108061 	lui	s0,0x8061
8060a278:	000528c0 	sll	a1,a1,0x3
8060a27c:	26101c00 	addiu	s0,s0,7168
8060a280:	8e530000 	lw	s3,0(s2)
8060a284:	10400008 	beqz	v0,8060a2a8 <comboTextAppendRegionName+0xb4>
8060a288:	02058021 	addu	s0,s0,a1
8060a28c:	8e050000 	lw	a1,0(s0)
8060a290:	0c182755 	jal	80609d54 <comboTextAppendStr>
8060a294:	02402025 	move	a0,s2
8060a298:	3c058061 	lui	a1,0x8061
8060a29c:	24a5d944 	addiu	a1,a1,-9916
8060a2a0:	0c182755 	jal	80609d54 <comboTextAppendStr>
8060a2a4:	02402025 	move	a0,s2
8060a2a8:	8e050004 	lw	a1,4(s0)
8060a2ac:	0c182755 	jal	80609d54 <comboTextAppendStr>
8060a2b0:	02402025 	move	a0,s2
8060a2b4:	32310001 	andi	s1,s1,0x1
8060a2b8:	0c182770 	jal	80609dc0 <comboTextAppendClearColor>
8060a2bc:	02402025 	move	a0,s2
8060a2c0:	12200005 	beqz	s1,8060a2d8 <comboTextAppendRegionName+0xe4>
8060a2c4:	8fbf0024 	lw	ra,36(sp)
8060a2c8:	0c183497 	jal	8060d25c <toupper>
8060a2cc:	82640000 	lb	a0,0(s3)
8060a2d0:	a2620000 	sb	v0,0(s3)
8060a2d4:	8fbf0024 	lw	ra,36(sp)
8060a2d8:	8fb30020 	lw	s3,32(sp)
8060a2dc:	8fb2001c 	lw	s2,28(sp)
8060a2e0:	8fb10018 	lw	s1,24(sp)
8060a2e4:	8fb00014 	lw	s0,20(sp)
8060a2e8:	03e00008 	jr	ra
8060a2ec:	27bd0028 	addiu	sp,sp,40
8060a2f0:	24a5ffff 	addiu	a1,a1,-1
8060a2f4:	3c108061 	lui	s0,0x8061
8060a2f8:	000528c0 	sll	a1,a1,0x3
8060a2fc:	1000ffe0 	b	8060a280 <comboTextAppendRegionName+0x8c>
8060a300:	26101d50 	addiu	s0,s0,7504

8060a304 <comboTextAppendCheckName>:
8060a304:	00051600 	sll	v0,a1,0x18
8060a308:	27bdffe0 	addiu	sp,sp,-32
8060a30c:	00021603 	sra	v0,v0,0x18
8060a310:	0441000e 	bgez	v0,8060a34c <comboTextAppendCheckName+0x48>
8060a314:	afbf001c 	sw	ra,28(sp)
8060a318:	30a5007f 	andi	a1,a1,0x7f
8060a31c:	24a5ffff 	addiu	a1,a1,-1
8060a320:	3c028061 	lui	v0,0x8061
8060a324:	00052880 	sll	a1,a1,0x2
8060a328:	24421ba0 	addiu	v0,v0,7072
8060a32c:	00a22821 	addu	a1,a1,v0
8060a330:	8ca50000 	lw	a1,0(a1)
8060a334:	0c182755 	jal	80609d54 <comboTextAppendStr>
8060a338:	afa40010 	sw	a0,16(sp)
8060a33c:	8fa40010 	lw	a0,16(sp)
8060a340:	8fbf001c 	lw	ra,28(sp)
8060a344:	08182770 	j	80609dc0 <comboTextAppendClearColor>
8060a348:	27bd0020 	addiu	sp,sp,32
8060a34c:	24a5ffff 	addiu	a1,a1,-1
8060a350:	3c028061 	lui	v0,0x8061
8060a354:	00052880 	sll	a1,a1,0x2
8060a358:	1000fff4 	b	8060a32c <comboTextAppendCheckName+0x28>
8060a35c:	24421bd8 	addiu	v0,v0,7128

8060a360 <comboTextHijackItem>:
8060a360:	3402fe88 	li	v0,0xfe88
8060a364:	27bdffe0 	addiu	sp,sp,-32
8060a368:	00822021 	addu	a0,a0,v0
8060a36c:	afa40010 	sw	a0,16(sp)
8060a370:	27a40010 	addiu	a0,sp,16
8060a374:	afbf001c 	sw	ra,28(sp)
8060a378:	afb00018 	sw	s0,24(sp)
8060a37c:	0c18276a 	jal	80609da8 <comboTextAppendHeader>
8060a380:	00a08025 	move	s0,a1
8060a384:	3c058061 	lui	a1,0x8061
8060a388:	27a40010 	addiu	a0,sp,16
8060a38c:	0c182755 	jal	80609d54 <comboTextAppendStr>
8060a390:	24a5fab0 	addiu	a1,a1,-1360
8060a394:	00003025 	move	a2,zero
8060a398:	02002825 	move	a1,s0
8060a39c:	0c182794 	jal	80609e50 <comboTextAppendItemName>
8060a3a0:	27a40010 	addiu	a0,sp,16
8060a3a4:	3c058061 	lui	a1,0x8061
8060a3a8:	27a40010 	addiu	a0,sp,16
8060a3ac:	0c182755 	jal	80609d54 <comboTextAppendStr>
8060a3b0:	24a5fabc 	addiu	a1,a1,-1348
8060a3b4:	3c058061 	lui	a1,0x8061
8060a3b8:	27a40010 	addiu	a0,sp,16
8060a3bc:	0c182755 	jal	80609d54 <comboTextAppendStr>
8060a3c0:	24a5fac0 	addiu	a1,a1,-1344
8060a3c4:	8fbf001c 	lw	ra,28(sp)
8060a3c8:	8fb00018 	lw	s0,24(sp)
8060a3cc:	03e00008 	jr	ra
8060a3d0:	27bd0020 	addiu	sp,sp,32

8060a3d4 <comboTextHijackItemShop>:
8060a3d4:	27bdffd8 	addiu	sp,sp,-40
8060a3d8:	3402fe88 	li	v0,0xfe88
8060a3dc:	00822021 	addu	a0,a0,v0
8060a3e0:	afb20020 	sw	s2,32(sp)
8060a3e4:	00a09025 	move	s2,a1
8060a3e8:	3c058061 	lui	a1,0x8061
8060a3ec:	afa40010 	sw	a0,16(sp)
8060a3f0:	24a5f998 	addiu	a1,a1,-1640
8060a3f4:	27a40010 	addiu	a0,sp,16
8060a3f8:	afbf0024 	sw	ra,36(sp)
8060a3fc:	afb1001c 	sw	s1,28(sp)
8060a400:	afb00018 	sw	s0,24(sp)
8060a404:	00c08825 	move	s1,a2
8060a408:	0c182755 	jal	80609d54 <comboTextAppendStr>
8060a40c:	00e08025 	move	s0,a3
8060a410:	24060001 	li	a2,1
8060a414:	02402825 	move	a1,s2
8060a418:	0c182794 	jal	80609e50 <comboTextAppendItemName>
8060a41c:	27a40010 	addiu	a0,sp,16
8060a420:	3c058061 	lui	a1,0x8061
8060a424:	24a5fac4 	addiu	a1,a1,-1340
8060a428:	0c182755 	jal	80609d54 <comboTextAppendStr>
8060a42c:	27a40010 	addiu	a0,sp,16
8060a430:	02202825 	move	a1,s1
8060a434:	0c182773 	jal	80609dcc <comboTextAppendNum>
8060a438:	27a40010 	addiu	a0,sp,16
8060a43c:	3c058061 	lui	a1,0x8061
8060a440:	0c182755 	jal	80609d54 <comboTextAppendStr>
8060a444:	24a5d8c4 	addiu	a1,a1,-10044
8060a448:	52000017 	beqzl	s0,8060a4a8 <comboTextHijackItemShop+0xd4>
8060a44c:	3c058061 	lui	a1,0x8061
8060a450:	3c058061 	lui	a1,0x8061
8060a454:	24a5fac8 	addiu	a1,a1,-1336
8060a458:	0c182755 	jal	80609d54 <comboTextAppendStr>
8060a45c:	27a40010 	addiu	a0,sp,16
8060a460:	3c058061 	lui	a1,0x8061
8060a464:	24a5fad0 	addiu	a1,a1,-1328
8060a468:	0c182755 	jal	80609d54 <comboTextAppendStr>
8060a46c:	27a40010 	addiu	a0,sp,16
8060a470:	3c058061 	lui	a1,0x8061
8060a474:	24a5fad8 	addiu	a1,a1,-1320
8060a478:	0c182755 	jal	80609d54 <comboTextAppendStr>
8060a47c:	27a40010 	addiu	a0,sp,16
8060a480:	3c058061 	lui	a1,0x8061
8060a484:	27a40010 	addiu	a0,sp,16
8060a488:	0c182755 	jal	80609d54 <comboTextAppendStr>
8060a48c:	24a5fac0 	addiu	a1,a1,-1344
8060a490:	8fbf0024 	lw	ra,36(sp)
8060a494:	8fb20020 	lw	s2,32(sp)
8060a498:	8fb1001c 	lw	s1,28(sp)
8060a49c:	8fb00018 	lw	s0,24(sp)
8060a4a0:	03e00008 	jr	ra
8060a4a4:	27bd0028 	addiu	sp,sp,40
8060a4a8:	1000fff3 	b	8060a478 <comboTextHijackItemShop+0xa4>
8060a4ac:	24a5fae4 	addiu	a1,a1,-1308

8060a4b0 <comboMessageCancel>:
8060a4b0:	3c020001 	lui	v0,0x1
8060a4b4:	00821021 	addu	v0,a0,v0
8060a4b8:	24030002 	li	v1,2
8060a4bc:	a04304bf 	sb	v1,1215(v0)
8060a4c0:	24030036 	li	v1,54
8060a4c4:	a04303dc 	sb	v1,988(v0)
8060a4c8:	a04004bc 	sb	zero,1212(v0)
8060a4cc:	24030004 	li	v1,4
8060a4d0:	a44304c6 	sh	v1,1222(v0)
8060a4d4:	8c821c44 	lw	v0,7236(a0)
8060a4d8:	03e00008 	jr	ra
8060a4dc:	a0400141 	sb	zero,321(v0)

8060a4e0 <comboTextHijackSkullReward>:
8060a4e0:	27bdffd8 	addiu	sp,sp,-40
8060a4e4:	3402fe88 	li	v0,0xfe88
8060a4e8:	afb00018 	sw	s0,24(sp)
8060a4ec:	00828021 	addu	s0,a0,v0
8060a4f0:	27a40010 	addiu	a0,sp,16
8060a4f4:	afbf0024 	sw	ra,36(sp)
8060a4f8:	afb20020 	sw	s2,32(sp)
8060a4fc:	afb1001c 	sw	s1,28(sp)
8060a500:	00c09025 	move	s2,a2
8060a504:	00a08825 	move	s1,a1
8060a508:	0c18276a 	jal	80609da8 <comboTextAppendHeader>
8060a50c:	afb00010 	sw	s0,16(sp)
8060a510:	3c058061 	lui	a1,0x8061
8060a514:	27a40010 	addiu	a0,sp,16
8060a518:	0c182755 	jal	80609d54 <comboTextAppendStr>
8060a51c:	24a5fae8 	addiu	a1,a1,-1304
8060a520:	27a40010 	addiu	a0,sp,16
8060a524:	0c182773 	jal	80609dcc <comboTextAppendNum>
8060a528:	02402825 	move	a1,s2
8060a52c:	3c058061 	lui	a1,0x8061
8060a530:	0c182755 	jal	80609d54 <comboTextAppendStr>
8060a534:	24a5fb20 	addiu	a1,a1,-1248
8060a538:	02202825 	move	a1,s1
8060a53c:	27a40010 	addiu	a0,sp,16
8060a540:	0c182794 	jal	80609e50 <comboTextAppendItemName>
8060a544:	24060004 	li	a2,4
8060a548:	3c058061 	lui	a1,0x8061
8060a54c:	27a40010 	addiu	a0,sp,16
8060a550:	0c182755 	jal	80609d54 <comboTextAppendStr>
8060a554:	24a5fb50 	addiu	a1,a1,-1200
8060a558:	8fbf0024 	lw	ra,36(sp)
8060a55c:	8fb20020 	lw	s2,32(sp)
8060a560:	8fb1001c 	lw	s1,28(sp)
8060a564:	02002025 	move	a0,s0
8060a568:	8fb00018 	lw	s0,24(sp)
8060a56c:	08182716 	j	80609c58 <comboTextAutoLineBreaks>
8060a570:	27bd0028 	addiu	sp,sp,40

8060a574 <comboTextHijackLightArrows>:
8060a574:	27bdffe0 	addiu	sp,sp,-32
8060a578:	3402fe88 	li	v0,0xfe88
8060a57c:	afb00018 	sw	s0,24(sp)
8060a580:	00828021 	addu	s0,a0,v0
8060a584:	27a40010 	addiu	a0,sp,16
8060a588:	afbf001c 	sw	ra,28(sp)
8060a58c:	0c18276a 	jal	80609da8 <comboTextAppendHeader>
8060a590:	afb00010 	sw	s0,16(sp)
8060a594:	3c058061 	lui	a1,0x8061
8060a598:	27a40010 	addiu	a0,sp,16
8060a59c:	0c182755 	jal	80609d54 <comboTextAppendStr>
8060a5a0:	24a5fb58 	addiu	a1,a1,-1192
8060a5a4:	3c028062 	lui	v0,0x8062
8060a5a8:	90455fad 	lbu	a1,24493(v0)
8060a5ac:	27a40010 	addiu	a0,sp,16
8060a5b0:	0c18287d 	jal	8060a1f4 <comboTextAppendRegionName>
8060a5b4:	24060002 	li	a2,2
8060a5b8:	3c058061 	lui	a1,0x8061
8060a5bc:	27a40010 	addiu	a0,sp,16
8060a5c0:	0c182755 	jal	80609d54 <comboTextAppendStr>
8060a5c4:	24a5fb80 	addiu	a1,a1,-1152
8060a5c8:	8fbf001c 	lw	ra,28(sp)
8060a5cc:	02002025 	move	a0,s0
8060a5d0:	8fb00018 	lw	s0,24(sp)
8060a5d4:	08182716 	j	80609c58 <comboTextAutoLineBreaks>
8060a5d8:	27bd0020 	addiu	sp,sp,32

8060a5dc <comboTextAppendNpcReward>:
8060a5dc:	27bdffe0 	addiu	sp,sp,-32
8060a5e0:	00c03825 	move	a3,a2
8060a5e4:	30a6ffff 	andi	a2,a1,0xffff
8060a5e8:	afb00018 	sw	s0,24(sp)
8060a5ec:	afa00010 	sw	zero,16(sp)
8060a5f0:	00808025 	move	s0,a0
8060a5f4:	00002825 	move	a1,zero
8060a5f8:	afbf001c 	sw	ra,28(sp)
8060a5fc:	0c183126 	jal	8060c498 <comboOverrideEx>
8060a600:	24040002 	li	a0,2
8060a604:	8fbf001c 	lw	ra,28(sp)
8060a608:	02002025 	move	a0,s0
8060a60c:	8fb00018 	lw	s0,24(sp)
8060a610:	24060006 	li	a2,6
8060a614:	00402825 	move	a1,v0
8060a618:	08182794 	j	80609e50 <comboTextAppendItemName>
8060a61c:	27bd0020 	addiu	sp,sp,32

8060a620 <csmcFromItem>:
8060a620:	04810005 	bgez	a0,8060a638 <csmcFromItem+0x18>
8060a624:	30820100 	andi	v0,a0,0x100
8060a628:	00042023 	negu	a0,a0
8060a62c:	00042400 	sll	a0,a0,0x10
8060a630:	00042403 	sra	a0,a0,0x10
8060a634:	30820100 	andi	v0,a0,0x100
8060a638:	1040000d 	beqz	v0,8060a670 <csmcFromItem+0x50>
8060a63c:	3083ffff 	andi	v1,a0,0xffff
8060a640:	2402feff 	li	v0,-257
8060a644:	00822024 	and	a0,a0,v0
8060a648:	2484fff8 	addiu	a0,a0,-8
8060a64c:	3084ffff 	andi	a0,a0,0xffff
8060a650:	2c8300d7 	sltiu	v1,a0,215
8060a654:	1060000f 	beqz	v1,8060a694 <csmcFromItem+0x74>
8060a658:	00001025 	move	v0,zero
8060a65c:	3c028061 	lui	v0,0x8061
8060a660:	24422530 	addiu	v0,v0,9520
8060a664:	00822021 	addu	a0,a0,v0
8060a668:	03e00008 	jr	ra
8060a66c:	80820000 	lb	v0,0(a0)
8060a670:	2463fffc 	addiu	v1,v1,-4
8060a674:	3063ffff 	andi	v1,v1,0xffff
8060a678:	2c6400a6 	sltiu	a0,v1,166
8060a67c:	10800005 	beqz	a0,8060a694 <csmcFromItem+0x74>
8060a680:	00001025 	move	v0,zero
8060a684:	3c028061 	lui	v0,0x8061
8060a688:	24422608 	addiu	v0,v0,9736
8060a68c:	00621821 	addu	v1,v1,v0
8060a690:	80620000 	lb	v0,0(v1)
8060a694:	03e00008 	jr	ra
8060a698:	00000000 	nop

8060a69c <comboCsmcInit>:
8060a69c:	27bdffe0 	addiu	sp,sp,-32
8060a6a0:	afb00010 	sw	s0,16(sp)
8060a6a4:	00808025 	move	s0,a0
8060a6a8:	24040002 	li	a0,2
8060a6ac:	afb20018 	sw	s2,24(sp)
8060a6b0:	afb10014 	sw	s1,20(sp)
8060a6b4:	afbf001c 	sw	ra,28(sp)
8060a6b8:	00a08825 	move	s1,a1
8060a6bc:	0c181783 	jal	80605e0c <comboConfig>
8060a6c0:	00c09025 	move	s2,a2
8060a6c4:	10400024 	beqz	v0,8060a758 <comboCsmcInit+0xbc>
8060a6c8:	24020010 	li	v0,16
8060a6cc:	962300a4 	lhu	v1,164(s1)
8060a6d0:	14620005 	bne	v1,v0,8060a6e8 <comboCsmcInit+0x4c>
8060a6d4:	2403000a 	li	v1,10
8060a6d8:	9602001c 	lhu	v0,28(s0)
8060a6dc:	3042001f 	andi	v0,v0,0x1f
8060a6e0:	1443001e 	bne	v0,v1,8060a75c <comboCsmcInit+0xc0>
8060a6e4:	8fbf001c 	lw	ra,28(sp)
8060a6e8:	0c182988 	jal	8060a620 <csmcFromItem>
8060a6ec:	02402025 	move	a0,s2
8060a6f0:	2442ffff 	addiu	v0,v0,-1
8060a6f4:	2c420002 	sltiu	v0,v0,2
8060a6f8:	1040001d 	beqz	v0,8060a770 <comboCsmcInit+0xd4>
8060a6fc:	3c028061 	lui	v0,0x8061
8060a700:	3c028061 	lui	v0,0x8061
8060a704:	8c45d7f4 	lw	a1,-10252(v0)
8060a708:	0c0083e2 	jal	80020f88 <ActorSetScale>
8060a70c:	02002025 	move	a0,s0
8060a710:	3c028061 	lui	v0,0x8061
8060a714:	8c4529b0 	lw	a1,10672(v0)
8060a718:	0c0083c1 	jal	80020f04 <ActorSetUnk>
8060a71c:	02002025 	move	a0,s0
8060a720:	962300a4 	lhu	v1,164(s1)
8060a724:	2402000d 	li	v0,13
8060a728:	1462000c 	bne	v1,v0,8060a75c <comboCsmcInit+0xc0>
8060a72c:	8fbf001c 	lw	ra,28(sp)
8060a730:	9602001c 	lhu	v0,28(s0)
8060a734:	24030011 	li	v1,17
8060a738:	3042001f 	andi	v0,v0,0x1f
8060a73c:	14430008 	bne	v0,v1,8060a760 <comboCsmcInit+0xc4>
8060a740:	8fb20018 	lw	s2,24(sp)
8060a744:	3c028061 	lui	v0,0x8061
8060a748:	c600002c 	lwc1	$f0,44(s0)
8060a74c:	c442d9c0 	lwc1	$f2,-9792(v0)
8060a750:	46020001 	sub.s	$f0,$f0,$f2
8060a754:	e600002c 	swc1	$f0,44(s0)
8060a758:	8fbf001c 	lw	ra,28(sp)
8060a75c:	8fb20018 	lw	s2,24(sp)
8060a760:	8fb10014 	lw	s1,20(sp)
8060a764:	8fb00010 	lw	s0,16(sp)
8060a768:	03e00008 	jr	ra
8060a76c:	27bd0020 	addiu	sp,sp,32
8060a770:	8c45da68 	lw	a1,-9624(v0)
8060a774:	0c0083e2 	jal	80020f88 <ActorSetScale>
8060a778:	02002025 	move	a0,s0
8060a77c:	962300a4 	lhu	v1,164(s1)
8060a780:	24020006 	li	v0,6
8060a784:	1462000f 	bne	v1,v0,8060a7c4 <comboCsmcInit+0x128>
8060a788:	3c028061 	lui	v0,0x8061
8060a78c:	9602001c 	lhu	v0,28(s0)
8060a790:	24030004 	li	v1,4
8060a794:	3042001f 	andi	v0,v0,0x1f
8060a798:	1443000a 	bne	v0,v1,8060a7c4 <comboCsmcInit+0x128>
8060a79c:	3c028061 	lui	v0,0x8061
8060a7a0:	3c028061 	lui	v0,0x8061
8060a7a4:	c6000024 	lwc1	$f0,36(s0)
8060a7a8:	c44229b0 	lwc1	$f2,10672(v0)
8060a7ac:	46020000 	add.s	$f0,$f0,$f2
8060a7b0:	e6000024 	swc1	$f0,36(s0)
8060a7b4:	c600002c 	lwc1	$f0,44(s0)
8060a7b8:	46020000 	add.s	$f0,$f0,$f2
8060a7bc:	e600002c 	swc1	$f0,44(s0)
8060a7c0:	3c028061 	lui	v0,0x8061
8060a7c4:	8fbf001c 	lw	ra,28(sp)
8060a7c8:	8fb20018 	lw	s2,24(sp)
8060a7cc:	8fb10014 	lw	s1,20(sp)
8060a7d0:	02002025 	move	a0,s0
8060a7d4:	8c45d7f0 	lw	a1,-10256(v0)
8060a7d8:	8fb00010 	lw	s0,16(sp)
8060a7dc:	080083c1 	j	80020f04 <ActorSetUnk>
8060a7e0:	27bd0020 	addiu	sp,sp,32

8060a7e4 <comboCsmcPreDraw>:
8060a7e4:	27bdffd8 	addiu	sp,sp,-40
8060a7e8:	afb40020 	sw	s4,32(sp)
8060a7ec:	0080a025 	move	s4,a0
8060a7f0:	24040002 	li	a0,2
8060a7f4:	afb3001c 	sw	s3,28(sp)
8060a7f8:	afb20018 	sw	s2,24(sp)
8060a7fc:	afbf0024 	sw	ra,36(sp)
8060a800:	afb10014 	sw	s1,20(sp)
8060a804:	afb00010 	sw	s0,16(sp)
8060a808:	00a09025 	move	s2,a1
8060a80c:	0c181783 	jal	80605e0c <comboConfig>
8060a810:	00c09825 	move	s3,a2
8060a814:	10400037 	beqz	v0,8060a8f4 <comboCsmcPreDraw+0x110>
8060a818:	24020010 	li	v0,16
8060a81c:	964300a4 	lhu	v1,164(s2)
8060a820:	14620005 	bne	v1,v0,8060a838 <comboCsmcPreDraw+0x54>
8060a824:	2403000a 	li	v1,10
8060a828:	9682001c 	lhu	v0,28(s4)
8060a82c:	3042001f 	andi	v0,v0,0x1f
8060a830:	54430031 	bnel	v0,v1,8060a8f8 <comboCsmcPreDraw+0x114>
8060a834:	3c108061 	lui	s0,0x8061
8060a838:	0c182988 	jal	8060a620 <csmcFromItem>
8060a83c:	02602025 	move	a0,s3
8060a840:	2c430006 	sltiu	v1,v0,6
8060a844:	5060000b 	beqzl	v1,8060a874 <comboCsmcPreDraw+0x90>
8060a848:	8e440000 	lw	a0,0(s2)
8060a84c:	3c038061 	lui	v1,0x8061
8060a850:	00021080 	sll	v0,v0,0x2
8060a854:	24632518 	addiu	v1,v1,9496
8060a858:	00431821 	addu	v1,v0,v1
8060a85c:	8c710000 	lw	s1,0(v1)
8060a860:	3c038061 	lui	v1,0x8061
8060a864:	24632500 	addiu	v1,v1,9472
8060a868:	00431021 	addu	v0,v0,v1
8060a86c:	8c500000 	lw	s0,0(v0)
8060a870:	8e440000 	lw	a0,0(s2)
8060a874:	3c058062 	lui	a1,0x8062
8060a878:	8c8202c0 	lw	v0,704(a0)
8060a87c:	8ca65ed8 	lw	a2,24280(a1)
8060a880:	3c03db06 	lui	v1,0xdb06
8060a884:	24650028 	addiu	a1,v1,40
8060a888:	24670024 	addiu	a3,v1,36
8060a88c:	24480018 	addiu	t0,v0,24
8060a890:	2463002c 	addiu	v1,v1,44
8060a894:	ac450008 	sw	a1,8(v0)
8060a898:	ac51000c 	sw	s1,12(v0)
8060a89c:	ac470000 	sw	a3,0(v0)
8060a8a0:	ac460004 	sw	a2,4(v0)
8060a8a4:	ac8802c0 	sw	t0,704(a0)
8060a8a8:	ac500014 	sw	s0,20(v0)
8060a8ac:	ac430010 	sw	v1,16(v0)
8060a8b0:	8c8202d0 	lw	v0,720(a0)
8060a8b4:	8fbf0024 	lw	ra,36(sp)
8060a8b8:	ac450008 	sw	a1,8(v0)
8060a8bc:	24450018 	addiu	a1,v0,24
8060a8c0:	ac51000c 	sw	s1,12(v0)
8060a8c4:	8fb40020 	lw	s4,32(sp)
8060a8c8:	8fb3001c 	lw	s3,28(sp)
8060a8cc:	8fb20018 	lw	s2,24(sp)
8060a8d0:	8fb10014 	lw	s1,20(sp)
8060a8d4:	ac470000 	sw	a3,0(v0)
8060a8d8:	ac460004 	sw	a2,4(v0)
8060a8dc:	ac8502d0 	sw	a1,720(a0)
8060a8e0:	ac500014 	sw	s0,20(v0)
8060a8e4:	ac430010 	sw	v1,16(v0)
8060a8e8:	8fb00010 	lw	s0,16(sp)
8060a8ec:	03e00008 	jr	ra
8060a8f0:	27bd0028 	addiu	sp,sp,40
8060a8f4:	3c108061 	lui	s0,0x8061
8060a8f8:	3c118061 	lui	s1,0x8061
8060a8fc:	26102930 	addiu	s0,s0,10544
8060a900:	1000ffdb 	b	8060a870 <comboCsmcPreDraw+0x8c>
8060a904:	26312970 	addiu	s1,s1,10608

8060a908 <comboCsmcChestSize>:
8060a908:	27bdffe8 	addiu	sp,sp,-24
8060a90c:	afb00010 	sw	s0,16(sp)
8060a910:	00808025 	move	s0,a0
8060a914:	afbf0014 	sw	ra,20(sp)
8060a918:	0c181783 	jal	80605e0c <comboConfig>
8060a91c:	24040002 	li	a0,2
8060a920:	10400005 	beqz	v0,8060a938 <comboCsmcChestSize+0x30>
8060a924:	2403ffff 	li	v1,-1
8060a928:	0c182988 	jal	8060a620 <csmcFromItem>
8060a92c:	02002025 	move	a0,s0
8060a930:	2442ffff 	addiu	v0,v0,-1
8060a934:	2c430002 	sltiu	v1,v0,2
8060a938:	8fbf0014 	lw	ra,20(sp)
8060a93c:	8fb00010 	lw	s0,16(sp)
8060a940:	00601025 	move	v0,v1
8060a944:	03e00008 	jr	ra
8060a948:	27bd0018 	addiu	sp,sp,24

8060a94c <comboGameSwitch>:
8060a94c:	27bdffe0 	addiu	sp,sp,-32
8060a950:	2402ffff 	li	v0,-1
8060a954:	afb10018 	sw	s1,24(sp)
8060a958:	afbf001c 	sw	ra,28(sp)
8060a95c:	afb00014 	sw	s0,20(sp)
8060a960:	10a20004 	beq	a1,v0,8060a974 <comboGameSwitch+0x28>
8060a964:	00808825 	move	s1,a0
8060a968:	3c027fff 	lui	v0,0x7fff
8060a96c:	3442ffff 	ori	v0,v0,0xffff
8060a970:	00a22824 	and	a1,a1,v0
8060a974:	3c108012 	lui	s0,0x8012
8060a978:	2610a5d0 	addiu	s0,s0,-23088
8060a97c:	8e031354 	lw	v1,4948(s0)
8060a980:	3c028062 	lui	v0,0x8062
8060a984:	24425e40 	addiu	v0,v0,24128
8060a988:	02202025 	move	a0,s1
8060a98c:	ac450010 	sw	a1,16(v0)
8060a990:	0c027625 	jal	8009d894 <PlayStoreFlags>
8060a994:	ac43000c 	sw	v1,12(v0)
8060a998:	962200a4 	lhu	v0,164(s1)
8060a99c:	0c1833d3 	jal	8060cf4c <comboWriteSave>
8060a9a0:	a6020066 	sh	v0,102(s0)
8060a9a4:	0c1820ec 	jal	806083b0 <comboDisableInterrupts>
8060a9a8:	00000000 	nop
8060a9ac:	3c04a440 	lui	a0,0xa440
8060a9b0:	24020200 	li	v0,512
8060a9b4:	8c830010 	lw	v1,16(a0)
8060a9b8:	1462fffe 	bne	v1,v0,8060a9b4 <comboGameSwitch+0x68>
8060a9bc:	00000000 	nop
8060a9c0:	3c04a440 	lui	a0,0xa440
8060a9c4:	24020200 	li	v0,512
8060a9c8:	8c830010 	lw	v1,16(a0)
8060a9cc:	1062fffe 	beq	v1,v0,8060a9c8 <comboGameSwitch+0x7c>
8060a9d0:	24030200 	li	v1,512
8060a9d4:	3c02a440 	lui	v0,0xa440
8060a9d8:	8c450010 	lw	a1,16(v0)
8060a9dc:	14a3fffe 	bne	a1,v1,8060a9d8 <comboGameSwitch+0x8c>
8060a9e0:	24440010 	addiu	a0,v0,16
8060a9e4:	8c430000 	lw	v1,0(v0)
8060a9e8:	2405fffc 	li	a1,-4
8060a9ec:	00651824 	and	v1,v1,a1
8060a9f0:	ac430000 	sw	v1,0(v0)
8060a9f4:	ac400000 	sw	zero,0(v0)
8060a9f8:	8c420010 	lw	v0,16(v0)
8060a9fc:	24050003 	li	a1,3
8060aa00:	ac820000 	sw	v0,0(a0)
8060aa04:	3c02a404 	lui	v0,0xa404
8060aa08:	8c430010 	lw	v1,16(v0)
8060aa0c:	3063000f 	andi	v1,v1,0xf
8060aa10:	1465fffd 	bne	v1,a1,8060aa08 <comboGameSwitch+0xbc>
8060aa14:	3c0300aa 	lui	v1,0xaa
8060aa18:	3463aaae 	ori	v1,v1,0xaaae
8060aa1c:	ac430010 	sw	v1,16(v0)
8060aa20:	ac40001c 	sw	zero,28(v0)
8060aa24:	3c02a408 	lui	v0,0xa408
8060aa28:	ac400000 	sw	zero,0(v0)
8060aa2c:	3c03a410 	lui	v1,0xa410
8060aa30:	8c62000c 	lw	v0,12(v1)
8060aa34:	30420170 	andi	v0,v0,0x170
8060aa38:	1440fffd 	bnez	v0,8060aa30 <comboGameSwitch+0xe4>
8060aa3c:	3c02a430 	lui	v0,0xa430
8060aa40:	24030800 	li	v1,2048
8060aa44:	3c04c000 	lui	a0,0xc000
8060aa48:	ac430000 	sw	v1,0(v0)
8060aa4c:	24840001 	addiu	a0,a0,1
8060aa50:	3c02a450 	lui	v0,0xa450
8060aa54:	8c43000c 	lw	v1,12(v0)
8060aa58:	00641824 	and	v1,v1,a0
8060aa5c:	1460fffd 	bnez	v1,8060aa54 <comboGameSwitch+0x108>
8060aa60:	2445000c 	addiu	a1,v0,12
8060aa64:	aca00000 	sw	zero,0(a1)
8060aa68:	3c03a460 	lui	v1,0xa460
8060aa6c:	ac400008 	sw	zero,8(v0)
8060aa70:	8c620010 	lw	v0,16(v1)
8060aa74:	30420003 	andi	v0,v0,0x3
8060aa78:	1440fffd 	bnez	v0,8060aa70 <comboGameSwitch+0x124>
8060aa7c:	24020003 	li	v0,3
8060aa80:	ac620010 	sw	v0,16(v1)
8060aa84:	3c03a480 	lui	v1,0xa480
8060aa88:	8c620018 	lw	v0,24(v1)
8060aa8c:	30420003 	andi	v0,v0,0x3
8060aa90:	1440fffd 	bnez	v0,8060aa88 <comboGameSwitch+0x13c>
8060aa94:	24640018 	addiu	a0,v1,24
8060aa98:	ac800000 	sw	zero,0(a0)
8060aa9c:	0c18178d 	jal	80605e34 <comboGameSwitch2>
8060aaa0:	00000000 	nop

8060aaa4 <comboGameSwitch3>:
8060aaa4:	27bdffe8 	addiu	sp,sp,-24
8060aaa8:	3c050010 	lui	a1,0x10
8060aaac:	afbf0014 	sw	ra,20(sp)
8060aab0:	0c183111 	jal	8060c444 <comboInvalDCache>
8060aab4:	3c048008 	lui	a0,0x8008
8060aab8:	3c050010 	lui	a1,0x10
8060aabc:	0c183102 	jal	8060c408 <comboInvalICache>
8060aac0:	3c048008 	lui	a0,0x8008
8060aac4:	3c051200 	lui	a1,0x1200
8060aac8:	3c060010 	lui	a2,0x10
8060aacc:	24a51000 	addiu	a1,a1,4096
8060aad0:	0c181d92 	jal	80607648 <comboDma_NoCacheInval>
8060aad4:	3c040008 	lui	a0,0x8
8060aad8:	3c050010 	lui	a1,0x10
8060aadc:	0c183111 	jal	8060c444 <comboInvalDCache>
8060aae0:	3c048008 	lui	a0,0x8008
8060aae4:	3c048008 	lui	a0,0x8008
8060aae8:	0c183102 	jal	8060c408 <comboInvalICache>
8060aaec:	3c050010 	lui	a1,0x10
8060aaf0:	3c02a460 	lui	v0,0xa460
8060aaf4:	24030003 	li	v1,3
8060aaf8:	ac430010 	sw	v1,16(v0)
8060aafc:	0c1820e3 	jal	8060838c <comboExportContext>
8060ab00:	00000000 	nop
8060ab04:	0c181793 	jal	80605e4c <comboGameSwitch4>
8060ab08:	3c048008 	lui	a0,0x8008

8060ab0c <comboAddItem>:
8060ab0c:	27bdffe0 	addiu	sp,sp,-32
8060ab10:	30a20100 	andi	v0,a1,0x100
8060ab14:	afb10018 	sw	s1,24(sp)
8060ab18:	afb00014 	sw	s0,20(sp)
8060ab1c:	afbf001c 	sw	ra,28(sp)
8060ab20:	00808825 	move	s1,a0
8060ab24:	1040000e 	beqz	v0,8060ab60 <comboAddItem+0x54>
8060ab28:	00a08025 	move	s0,a1
8060ab2c:	2404feff 	li	a0,-257
8060ab30:	24050001 	li	a1,1
8060ab34:	0c181ac7 	jal	80606b1c <comboAddItemMm>
8060ab38:	02042024 	and	a0,s0,a0
8060ab3c:	02002825 	move	a1,s0
8060ab40:	0c1828d8 	jal	8060a360 <comboTextHijackItem>
8060ab44:	02202025 	move	a0,s1
8060ab48:	8fbf001c 	lw	ra,28(sp)
8060ab4c:	8fb10018 	lw	s1,24(sp)
8060ab50:	8fb00014 	lw	s0,20(sp)
8060ab54:	2402ffff 	li	v0,-1
8060ab58:	03e00008 	jr	ra
8060ab5c:	27bd0020 	addiu	sp,sp,32
8060ab60:	02002025 	move	a0,s0
8060ab64:	0c18228e 	jal	80608a38 <comboAddItemOot>
8060ab68:	00002825 	move	a1,zero
8060ab6c:	02002825 	move	a1,s0
8060ab70:	0c18168c 	jal	80605a30 <comboAddItemEffect>
8060ab74:	02202025 	move	a0,s1
8060ab78:	1000fff1 	b	8060ab40 <comboAddItem+0x34>
8060ab7c:	02002825 	move	a1,s0

8060ab80 <comboAddItemNoEffect>:
8060ab80:	27bdffe8 	addiu	sp,sp,-24
8060ab84:	30830100 	andi	v1,a0,0x100
8060ab88:	1060000a 	beqz	v1,8060abb4 <comboAddItemNoEffect+0x34>
8060ab8c:	afbf0014 	sw	ra,20(sp)
8060ab90:	00801025 	move	v0,a0
8060ab94:	2404feff 	li	a0,-257
8060ab98:	24050001 	li	a1,1
8060ab9c:	0c181ac7 	jal	80606b1c <comboAddItemMm>
8060aba0:	00442024 	and	a0,v0,a0
8060aba4:	8fbf0014 	lw	ra,20(sp)
8060aba8:	2402ffff 	li	v0,-1
8060abac:	03e00008 	jr	ra
8060abb0:	27bd0018 	addiu	sp,sp,24
8060abb4:	0c18228e 	jal	80608a38 <comboAddItemOot>
8060abb8:	24050001 	li	a1,1
8060abbc:	1000fffa 	b	8060aba8 <comboAddItemNoEffect+0x28>
8060abc0:	8fbf0014 	lw	ra,20(sp)

8060abc4 <comboIsItemUnavailable>:
8060abc4:	30820100 	andi	v0,a0,0x100
8060abc8:	10400022 	beqz	v0,8060ac54 <comboIsItemUnavailable+0x90>
8060abcc:	2882004c 	slti	v0,a0,76
8060abd0:	2402feff 	li	v0,-257
8060abd4:	00822024 	and	a0,a0,v0
8060abd8:	28820021 	slti	v0,a0,33
8060abdc:	10400012 	beqz	v0,8060ac28 <comboIsItemUnavailable+0x64>
8060abe0:	2882001e 	slti	v0,a0,30
8060abe4:	10400018 	beqz	v0,8060ac48 <comboIsItemUnavailable+0x84>
8060abe8:	3c028062 	lui	v0,0x8062
8060abec:	28820019 	slti	v0,a0,25
8060abf0:	50400006 	beqzl	v0,8060ac0c <comboIsItemUnavailable+0x48>
8060abf4:	2402001a 	li	v0,26
8060abf8:	28840014 	slti	a0,a0,20
8060abfc:	50800006 	beqzl	a0,8060ac18 <comboIsItemUnavailable+0x54>
8060ac00:	3c028062 	lui	v0,0x8062
8060ac04:	03e00008 	jr	ra
8060ac08:	00001025 	move	v0,zero
8060ac0c:	1482fffd 	bne	a0,v0,8060ac04 <comboIsItemUnavailable+0x40>
8060ac10:	00000000 	nop
8060ac14:	3c028062 	lui	v0,0x8062
8060ac18:	8c426b48 	lw	v0,27464(v0)
8060ac1c:	30420038 	andi	v0,v0,0x38
8060ac20:	03e00008 	jr	ra
8060ac24:	2c420001 	sltiu	v0,v0,1
8060ac28:	2402003a 	li	v0,58
8060ac2c:	1082fff9 	beq	a0,v0,8060ac14 <comboIsItemUnavailable+0x50>
8060ac30:	2484ffd2 	addiu	a0,a0,-46
8060ac34:	3084fff7 	andi	a0,a0,0xfff7
8060ac38:	1080fff6 	beqz	a0,8060ac14 <comboIsItemUnavailable+0x50>
8060ac3c:	00001025 	move	v0,zero
8060ac40:	03e00008 	jr	ra
8060ac44:	00000000 	nop
8060ac48:	8c426b48 	lw	v0,27464(v0)
8060ac4c:	1000fff4 	b	8060ac20 <comboIsItemUnavailable+0x5c>
8060ac50:	30420007 	andi	v0,v0,0x7
8060ac54:	1040000e 	beqz	v0,8060ac90 <comboIsItemUnavailable+0xcc>
8060ac58:	28820049 	slti	v0,a0,73
8060ac5c:	10400015 	beqz	v0,8060acb4 <comboIsItemUnavailable+0xf0>
8060ac60:	3c028012 	lui	v0,0x8012
8060ac64:	24020001 	li	v0,1
8060ac68:	10820010 	beq	a0,v0,8060acac <comboIsItemUnavailable+0xe8>
8060ac6c:	3c028012 	lui	v0,0x8012
8060ac70:	2402003c 	li	v0,60
8060ac74:	1482ffe3 	bne	a0,v0,8060ac04 <comboIsItemUnavailable+0x40>
8060ac78:	3c030001 	lui	v1,0x1
8060ac7c:	3c028012 	lui	v0,0x8012
8060ac80:	8c42a670 	lw	v0,-22928(v0)
8060ac84:	3463c000 	ori	v1,v1,0xc000
8060ac88:	1000ffe5 	b	8060ac20 <comboIsItemUnavailable+0x5c>
8060ac8c:	00431024 	and	v0,v0,v1
8060ac90:	28820069 	slti	v0,a0,105
8060ac94:	5040fff7 	beqzl	v0,8060ac74 <comboIsItemUnavailable+0xb0>
8060ac98:	24020069 	li	v0,105
8060ac9c:	28840065 	slti	a0,a0,101
8060aca0:	1480ffd8 	bnez	a0,8060ac04 <comboIsItemUnavailable+0x40>
8060aca4:	00000000 	nop
8060aca8:	3c028012 	lui	v0,0x8012
8060acac:	1000ffdb 	b	8060ac1c <comboIsItemUnavailable+0x58>
8060acb0:	8c42a670 	lw	v0,-22928(v0)
8060acb4:	1000ffe5 	b	8060ac4c <comboIsItemUnavailable+0x88>
8060acb8:	8c42a670 	lw	v0,-22928(v0)

8060acbc <comboIsItemMinor>:
8060acbc:	30830100 	andi	v1,a0,0x100
8060acc0:	10600016 	beqz	v1,8060ad1c <comboIsItemMinor+0x60>
8060acc4:	3082ffff 	andi	v0,a0,0xffff
8060acc8:	2402feff 	li	v0,-257
8060accc:	00822024 	and	a0,a0,v0
8060acd0:	2883003b 	slti	v1,a0,59
8060acd4:	1060001d 	beqz	v1,8060ad4c <comboIsItemMinor+0x90>
8060acd8:	00001025 	move	v0,zero
8060acdc:	2882001e 	slti	v0,a0,30
8060ace0:	10400007 	beqz	v0,8060ad00 <comboIsItemMinor+0x44>
8060ace4:	3c021101 	lui	v0,0x1101
8060ace8:	28820019 	slti	v0,a0,25
8060acec:	50400009 	beqzl	v0,8060ad14 <comboIsItemMinor+0x58>
8060acf0:	3884001a 	xori	a0,a0,0x1a
8060acf4:	28840014 	slti	a0,a0,20
8060acf8:	03e00008 	jr	ra
8060acfc:	38820001 	xori	v0,a0,0x1
8060ad00:	2484ffe2 	addiu	a0,a0,-30
8060ad04:	24420007 	addiu	v0,v0,7
8060ad08:	00821006 	srlv	v0,v0,a0
8060ad0c:	03e00008 	jr	ra
8060ad10:	30420001 	andi	v0,v0,0x1
8060ad14:	03e00008 	jr	ra
8060ad18:	2c820001 	sltiu	v0,a0,1
8060ad1c:	2883004c 	slti	v1,a0,76
8060ad20:	10600008 	beqz	v1,8060ad44 <comboIsItemMinor+0x88>
8060ad24:	28830049 	slti	v1,a0,73
8060ad28:	10600008 	beqz	v1,8060ad4c <comboIsItemMinor+0x90>
8060ad2c:	24020001 	li	v0,1
8060ad30:	24030001 	li	v1,1
8060ad34:	10830005 	beq	a0,v1,8060ad4c <comboIsItemMinor+0x90>
8060ad38:	3884003c 	xori	a0,a0,0x3c
8060ad3c:	1000fff5 	b	8060ad14 <comboIsItemMinor+0x58>
8060ad40:	00000000 	nop
8060ad44:	2442ff9b 	addiu	v0,v0,-101
8060ad48:	2c420005 	sltiu	v0,v0,5
8060ad4c:	03e00008 	jr	ra
8060ad50:	00000000 	nop

8060ad54 <Shader_Xlu0>:
8060ad54:	27bdffd8 	addiu	sp,sp,-40
8060ad58:	afb00014 	sw	s0,20(sp)
8060ad5c:	8c900000 	lw	s0,0(a0)
8060ad60:	afb2001c 	sw	s2,28(sp)
8060ad64:	00809025 	move	s2,a0
8060ad68:	02002025 	move	a0,s0
8060ad6c:	afbf0024 	sw	ra,36(sp)
8060ad70:	afb30020 	sw	s3,32(sp)
8060ad74:	afb10018 	sw	s1,24(sp)
8060ad78:	0c01f8b0 	jal	8007e2c0 <InitListPolyXlu>
8060ad7c:	00a08825 	move	s1,a1
8060ad80:	8e1302d0 	lw	s3,720(s0)
8060ad84:	8e440000 	lw	a0,0(s2)
8060ad88:	26620008 	addiu	v0,s3,8
8060ad8c:	ae0202d0 	sw	v0,720(s0)
8060ad90:	3c02da38 	lui	v0,0xda38
8060ad94:	24420002 	addiu	v0,v0,2
8060ad98:	0c02ae40 	jal	800ab900 <GetMatrixMV>
8060ad9c:	ae620000 	sw	v0,0(s3)
8060ada0:	8e0402d0 	lw	a0,720(s0)
8060ada4:	ae620004 	sw	v0,4(s3)
8060ada8:	24820008 	addiu	v0,a0,8
8060adac:	ae0202d0 	sw	v0,720(s0)
8060adb0:	001118c0 	sll	v1,s1,0x3
8060adb4:	3c02de00 	lui	v0,0xde00
8060adb8:	ac820000 	sw	v0,0(a0)
8060adbc:	00712821 	addu	a1,v1,s1
8060adc0:	3c028061 	lui	v0,0x8061
8060adc4:	00052880 	sll	a1,a1,0x2
8060adc8:	24422b60 	addiu	v0,v0,11104
8060adcc:	00451021 	addu	v0,v0,a1
8060add0:	8fbf0024 	lw	ra,36(sp)
8060add4:	8c420004 	lw	v0,4(v0)
8060add8:	8fb30020 	lw	s3,32(sp)
8060addc:	8fb2001c 	lw	s2,28(sp)
8060ade0:	8fb10018 	lw	s1,24(sp)
8060ade4:	8fb00014 	lw	s0,20(sp)
8060ade8:	ac820004 	sw	v0,4(a0)
8060adec:	03e00008 	jr	ra
8060adf0:	27bd0028 	addiu	sp,sp,40

8060adf4 <Shader_CustomHeartContainer>:
8060adf4:	27bdffd8 	addiu	sp,sp,-40
8060adf8:	000510c0 	sll	v0,a1,0x3
8060adfc:	00451021 	addu	v0,v0,a1
8060ae00:	afb20018 	sw	s2,24(sp)
8060ae04:	afb00010 	sw	s0,16(sp)
8060ae08:	8c920000 	lw	s2,0(a0)
8060ae0c:	3c108061 	lui	s0,0x8061
8060ae10:	00021080 	sll	v0,v0,0x2
8060ae14:	26102b60 	addiu	s0,s0,11104
8060ae18:	afb3001c 	sw	s3,28(sp)
8060ae1c:	02028021 	addu	s0,s0,v0
8060ae20:	00809825 	move	s3,a0
8060ae24:	02402025 	move	a0,s2
8060ae28:	afbf0024 	sw	ra,36(sp)
8060ae2c:	afb40020 	sw	s4,32(sp)
8060ae30:	afb10014 	sw	s1,20(sp)
8060ae34:	0c01f8b0 	jal	8007e2c0 <InitListPolyXlu>
8060ae38:	8e110004 	lw	s1,4(s0)
8060ae3c:	8e5402d0 	lw	s4,720(s2)
8060ae40:	8e640000 	lw	a0,0(s3)
8060ae44:	26820008 	addiu	v0,s4,8
8060ae48:	ae4202d0 	sw	v0,720(s2)
8060ae4c:	3c02da38 	lui	v0,0xda38
8060ae50:	24420002 	addiu	v0,v0,2
8060ae54:	0c02ae40 	jal	800ab900 <GetMatrixMV>
8060ae58:	ae820000 	sw	v0,0(s4)
8060ae5c:	3c048061 	lui	a0,0x8061
8060ae60:	00111880 	sll	v1,s1,0x2
8060ae64:	24842b28 	addiu	a0,a0,11048
8060ae68:	00118900 	sll	s1,s1,0x4
8060ae6c:	02248821 	addu	s1,s1,a0
8060ae70:	ae820004 	sw	v0,4(s4)
8060ae74:	8e250000 	lw	a1,0(s1)
8060ae78:	8e4202d0 	lw	v0,720(s2)
8060ae7c:	3c06fa00 	lui	a2,0xfa00
8060ae80:	ac450004 	sw	a1,4(v0)
8060ae84:	24650001 	addiu	a1,v1,1
8060ae88:	00052880 	sll	a1,a1,0x2
8060ae8c:	00a42821 	addu	a1,a1,a0
8060ae90:	8ca50000 	lw	a1,0(a1)
8060ae94:	24c60080 	addiu	a2,a2,128
8060ae98:	ac45000c 	sw	a1,12(v0)
8060ae9c:	8e050008 	lw	a1,8(s0)
8060aea0:	3c08fb00 	lui	t0,0xfb00
8060aea4:	ac450014 	sw	a1,20(v0)
8060aea8:	24650002 	addiu	a1,v1,2
8060aeac:	24630003 	addiu	v1,v1,3
8060aeb0:	00031880 	sll	v1,v1,0x2
8060aeb4:	00052880 	sll	a1,a1,0x2
8060aeb8:	00641821 	addu	v1,v1,a0
8060aebc:	8c630000 	lw	v1,0(v1)
8060aec0:	00a42821 	addu	a1,a1,a0
8060aec4:	8ca50000 	lw	a1,0(a1)
8060aec8:	ac430024 	sw	v1,36(v0)
8060aecc:	3c07de00 	lui	a3,0xde00
8060aed0:	24430030 	addiu	v1,v0,48
8060aed4:	8fbf0024 	lw	ra,36(sp)
8060aed8:	ac460000 	sw	a2,0(v0)
8060aedc:	ac480008 	sw	t0,8(v0)
8060aee0:	ac470010 	sw	a3,16(v0)
8060aee4:	ac460018 	sw	a2,24(v0)
8060aee8:	ac45001c 	sw	a1,28(v0)
8060aeec:	ac480020 	sw	t0,32(v0)
8060aef0:	ae4302d0 	sw	v1,720(s2)
8060aef4:	8e03000c 	lw	v1,12(s0)
8060aef8:	8fb40020 	lw	s4,32(sp)
8060aefc:	8fb3001c 	lw	s3,28(sp)
8060af00:	8fb20018 	lw	s2,24(sp)
8060af04:	8fb10014 	lw	s1,20(sp)
8060af08:	8fb00010 	lw	s0,16(sp)
8060af0c:	ac470028 	sw	a3,40(v0)
8060af10:	ac43002c 	sw	v1,44(v0)
8060af14:	03e00008 	jr	ra
8060af18:	27bd0028 	addiu	sp,sp,40

8060af1c <Shader_CustomNote>:
8060af1c:	27bdffd0 	addiu	sp,sp,-48
8060af20:	afb10014 	sw	s1,20(sp)
8060af24:	000588c0 	sll	s1,a1,0x3
8060af28:	afb00010 	sw	s0,16(sp)
8060af2c:	02251021 	addu	v0,s1,a1
8060af30:	3c108061 	lui	s0,0x8061
8060af34:	26102b60 	addiu	s0,s0,11104
8060af38:	00021080 	sll	v0,v0,0x2
8060af3c:	02021021 	addu	v0,s0,v0
8060af40:	8c420008 	lw	v0,8(v0)
8060af44:	afb40020 	sw	s4,32(sp)
8060af48:	30430010 	andi	v1,v0,0x10
8060af4c:	afb20018 	sw	s2,24(sp)
8060af50:	afbf002c 	sw	ra,44(sp)
8060af54:	afb60028 	sw	s6,40(sp)
8060af58:	afb50024 	sw	s5,36(sp)
8060af5c:	afb3001c 	sw	s3,28(sp)
8060af60:	0080a025 	move	s4,a0
8060af64:	1060002e 	beqz	v1,8060b020 <Shader_CustomNote+0x104>
8060af68:	00a09025 	move	s2,a1
8060af6c:	3c038061 	lui	v1,0x8061
8060af70:	c46c4f7c 	lwc1	$f12,20348(v1)
8060af74:	3042000f 	andi	v0,v0,0xf
8060af78:	3c038061 	lui	v1,0x8061
8060af7c:	24632b48 	addiu	v1,v1,11080
8060af80:	00021080 	sll	v0,v0,0x2
8060af84:	00431021 	addu	v0,v0,v1
8060af88:	24050001 	li	a1,1
8060af8c:	0c02ab53 	jal	800aad4c <ModelViewRotateZ>
8060af90:	8c560000 	lw	s6,0(v0)
8060af94:	8e930000 	lw	s3,0(s4)
8060af98:	0c01f8b0 	jal	8007e2c0 <InitListPolyXlu>
8060af9c:	02602025 	move	a0,s3
8060afa0:	8e7502d0 	lw	s5,720(s3)
8060afa4:	8e840000 	lw	a0,0(s4)
8060afa8:	26a20008 	addiu	v0,s5,8
8060afac:	ae6202d0 	sw	v0,720(s3)
8060afb0:	3c02da38 	lui	v0,0xda38
8060afb4:	24420002 	addiu	v0,v0,2
8060afb8:	0c02ae40 	jal	800ab900 <GetMatrixMV>
8060afbc:	aea20000 	sw	v0,0(s5)
8060afc0:	aea20004 	sw	v0,4(s5)
8060afc4:	8e6202d0 	lw	v0,720(s3)
8060afc8:	02322821 	addu	a1,s1,s2
8060afcc:	3c03fb00 	lui	v1,0xfb00
8060afd0:	ac430000 	sw	v1,0(v0)
8060afd4:	00052880 	sll	a1,a1,0x2
8060afd8:	24430010 	addiu	v1,v0,16
8060afdc:	ac560004 	sw	s6,4(v0)
8060afe0:	02058021 	addu	s0,s0,a1
8060afe4:	ae6302d0 	sw	v1,720(s3)
8060afe8:	3c03de00 	lui	v1,0xde00
8060afec:	8fbf002c 	lw	ra,44(sp)
8060aff0:	ac430008 	sw	v1,8(v0)
8060aff4:	8e030004 	lw	v1,4(s0)
8060aff8:	8fb60028 	lw	s6,40(sp)
8060affc:	8fb50024 	lw	s5,36(sp)
8060b000:	8fb40020 	lw	s4,32(sp)
8060b004:	8fb3001c 	lw	s3,28(sp)
8060b008:	8fb20018 	lw	s2,24(sp)
8060b00c:	8fb10014 	lw	s1,20(sp)
8060b010:	8fb00010 	lw	s0,16(sp)
8060b014:	ac43000c 	sw	v1,12(v0)
8060b018:	03e00008 	jr	ra
8060b01c:	27bd0030 	addiu	sp,sp,48
8060b020:	3c038061 	lui	v1,0x8061
8060b024:	1000ffd3 	b	8060af74 <Shader_CustomNote+0x58>
8060b028:	c46c4f78 	lwc1	$f12,20344(v1)

8060b02c <shaderFlameEffect>:
8060b02c:	27bdffb8 	addiu	sp,sp,-72
8060b030:	afb2003c 	sw	s2,60(sp)
8060b034:	afb00034 	sw	s0,52(sp)
8060b038:	8c920000 	lw	s2,0(a0)
8060b03c:	00808025 	move	s0,a0
8060b040:	3c040001 	lui	a0,0x1
8060b044:	24841da0 	addiu	a0,a0,7584
8060b048:	02042021 	addu	a0,s0,a0
8060b04c:	afbf0044 	sw	ra,68(sp)
8060b050:	afb30040 	sw	s3,64(sp)
8060b054:	afb10038 	sw	s1,56(sp)
8060b058:	0c02af95 	jal	800abe54 <ModelViewUnkTransform>
8060b05c:	00a08825 	move	s1,a1
8060b060:	3c028061 	lui	v0,0x8061
8060b064:	8c464f80 	lw	a2,20352(v0)
8060b068:	3c028061 	lui	v0,0x8061
8060b06c:	c44e4f84 	lwc1	$f14,20356(v0)
8060b070:	44806000 	mtc1	zero,$f12
8060b074:	0c02a9fd 	jal	800aa7f4 <ModelViewTranslate>
8060b078:	24070001 	li	a3,1
8060b07c:	3c028061 	lui	v0,0x8061
8060b080:	8c464f88 	lw	a2,20360(v0)
8060b084:	3c028061 	lui	v0,0x8061
8060b088:	44867000 	mtc1	a2,$f14
8060b08c:	c44c4f8c 	lwc1	$f12,20364(v0)
8060b090:	0c02aa3f 	jal	800aa8fc <ModelViewScale>
8060b094:	24070001 	li	a3,1
8060b098:	8e5302d0 	lw	s3,720(s2)
8060b09c:	24030020 	li	v1,32
8060b0a0:	26620008 	addiu	v0,s3,8
8060b0a4:	ae4202d0 	sw	v0,720(s2)
8060b0a8:	3c02db06 	lui	v0,0xdb06
8060b0ac:	24420020 	addiu	v0,v0,32
8060b0b0:	ae620000 	sw	v0,0(s3)
8060b0b4:	24020080 	li	v0,128
8060b0b8:	afa20028 	sw	v0,40(sp)
8060b0bc:	8e02009c 	lw	v0,156(s0)
8060b0c0:	8e040000 	lw	a0,0(s0)
8060b0c4:	00021023 	negu	v0,v0
8060b0c8:	00021080 	sll	v0,v0,0x2
8060b0cc:	304201fc 	andi	v0,v0,0x1fc
8060b0d0:	afa20020 	sw	v0,32(sp)
8060b0d4:	24020001 	li	v0,1
8060b0d8:	afa20018 	sw	v0,24(sp)
8060b0dc:	24020040 	li	v0,64
8060b0e0:	afa30024 	sw	v1,36(sp)
8060b0e4:	afa30010 	sw	v1,16(sp)
8060b0e8:	00002825 	move	a1,zero
8060b0ec:	afa0001c 	sw	zero,28(sp)
8060b0f0:	afa20014 	sw	v0,20(sp)
8060b0f4:	00003825 	move	a3,zero
8060b0f8:	0c01fae1 	jal	8007eb84 <GetSegment>
8060b0fc:	00003025 	move	a2,zero
8060b100:	ae620004 	sw	v0,4(s3)
8060b104:	8e5302d0 	lw	s3,720(s2)
8060b108:	8e040000 	lw	a0,0(s0)
8060b10c:	26620008 	addiu	v0,s3,8
8060b110:	ae4202d0 	sw	v0,720(s2)
8060b114:	3c02da38 	lui	v0,0xda38
8060b118:	24420002 	addiu	v0,v0,2
8060b11c:	0c02ae40 	jal	800ab900 <GetMatrixMV>
8060b120:	ae620000 	sw	v0,0(s3)
8060b124:	ae620004 	sw	v0,4(s3)
8060b128:	3c028061 	lui	v0,0x8061
8060b12c:	00112880 	sll	a1,s1,0x2
8060b130:	24422b1c 	addiu	v0,v0,11036
8060b134:	00a21021 	addu	v0,a1,v0
8060b138:	8c440000 	lw	a0,0(v0)
8060b13c:	3c03fa00 	lui	v1,0xfa00
8060b140:	8e4202d0 	lw	v0,720(s2)
8060b144:	34638080 	ori	v1,v1,0x8080
8060b148:	ac430000 	sw	v1,0(v0)
8060b14c:	3c038061 	lui	v1,0x8061
8060b150:	24632b10 	addiu	v1,v1,11024
8060b154:	00a32821 	addu	a1,a1,v1
8060b158:	8ca30000 	lw	v1,0(a1)
8060b15c:	ac440004 	sw	a0,4(v0)
8060b160:	ac43000c 	sw	v1,12(v0)
8060b164:	3c04fb00 	lui	a0,0xfb00
8060b168:	24430018 	addiu	v1,v0,24
8060b16c:	ac440008 	sw	a0,8(v0)
8060b170:	ae4302d0 	sw	v1,720(s2)
8060b174:	3c03de00 	lui	v1,0xde00
8060b178:	8fbf0044 	lw	ra,68(sp)
8060b17c:	ac430010 	sw	v1,16(v0)
8060b180:	3c030405 	lui	v1,0x405
8060b184:	24632a10 	addiu	v1,v1,10768
8060b188:	8fb30040 	lw	s3,64(sp)
8060b18c:	8fb2003c 	lw	s2,60(sp)
8060b190:	8fb10038 	lw	s1,56(sp)
8060b194:	8fb00034 	lw	s0,52(sp)
8060b198:	ac430014 	sw	v1,20(v0)
8060b19c:	03e00008 	jr	ra
8060b1a0:	27bd0048 	addiu	sp,sp,72

8060b1a4 <Shader_CustomStick>:
8060b1a4:	27bdffd8 	addiu	sp,sp,-40
8060b1a8:	afb10018 	sw	s1,24(sp)
8060b1ac:	8c910000 	lw	s1,0(a0)
8060b1b0:	afb00014 	sw	s0,20(sp)
8060b1b4:	00808025 	move	s0,a0
8060b1b8:	02202025 	move	a0,s1
8060b1bc:	afbf0024 	sw	ra,36(sp)
8060b1c0:	afb30020 	sw	s3,32(sp)
8060b1c4:	afb2001c 	sw	s2,28(sp)
8060b1c8:	0c01f8a6 	jal	8007e298 <InitListPolyOpa>
8060b1cc:	00a09025 	move	s2,a1
8060b1d0:	8e3302c0 	lw	s3,704(s1)
8060b1d4:	8e040000 	lw	a0,0(s0)
8060b1d8:	26620008 	addiu	v0,s3,8
8060b1dc:	ae2202c0 	sw	v0,704(s1)
8060b1e0:	3c02da38 	lui	v0,0xda38
8060b1e4:	24420002 	addiu	v0,v0,2
8060b1e8:	0c02ae40 	jal	800ab900 <GetMatrixMV>
8060b1ec:	ae620000 	sw	v0,0(s3)
8060b1f0:	ae620004 	sw	v0,4(s3)
8060b1f4:	001210c0 	sll	v0,s2,0x3
8060b1f8:	00522821 	addu	a1,v0,s2
8060b1fc:	3c038061 	lui	v1,0x8061
8060b200:	00052880 	sll	a1,a1,0x2
8060b204:	24632b60 	addiu	v1,v1,11104
8060b208:	00651821 	addu	v1,v1,a1
8060b20c:	8c720008 	lw	s2,8(v1)
8060b210:	3c028061 	lui	v0,0x8061
8060b214:	00122080 	sll	a0,s2,0x2
8060b218:	24424f6c 	addiu	v0,v0,20332
8060b21c:	00821021 	addu	v0,a0,v0
8060b220:	8c450000 	lw	a1,0(v0)
8060b224:	8e2202c0 	lw	v0,704(s1)
8060b228:	8c630004 	lw	v1,4(v1)
8060b22c:	ac450004 	sw	a1,4(v0)
8060b230:	3c058061 	lui	a1,0x8061
8060b234:	24a54f60 	addiu	a1,a1,20320
8060b238:	00852021 	addu	a0,a0,a1
8060b23c:	8c840000 	lw	a0,0(a0)
8060b240:	3c06fa00 	lui	a2,0xfa00
8060b244:	ac44000c 	sw	a0,12(v0)
8060b248:	3c05fb00 	lui	a1,0xfb00
8060b24c:	24440018 	addiu	a0,v0,24
8060b250:	ac460000 	sw	a2,0(v0)
8060b254:	ac450008 	sw	a1,8(v0)
8060b258:	ae2402c0 	sw	a0,704(s1)
8060b25c:	3c04de00 	lui	a0,0xde00
8060b260:	ac440010 	sw	a0,16(v0)
8060b264:	1240000c 	beqz	s2,8060b298 <Shader_CustomStick+0xf4>
8060b268:	ac430014 	sw	v1,20(v0)
8060b26c:	0c01f8b0 	jal	8007e2c0 <InitListPolyXlu>
8060b270:	8e040000 	lw	a0,0(s0)
8060b274:	8fbf0024 	lw	ra,36(sp)
8060b278:	8fb30020 	lw	s3,32(sp)
8060b27c:	8fb10018 	lw	s1,24(sp)
8060b280:	2645ffff 	addiu	a1,s2,-1
8060b284:	02002025 	move	a0,s0
8060b288:	8fb2001c 	lw	s2,28(sp)
8060b28c:	8fb00014 	lw	s0,20(sp)
8060b290:	08182c0b 	j	8060b02c <shaderFlameEffect>
8060b294:	27bd0028 	addiu	sp,sp,40
8060b298:	8fbf0024 	lw	ra,36(sp)
8060b29c:	8fb30020 	lw	s3,32(sp)
8060b2a0:	8fb2001c 	lw	s2,28(sp)
8060b2a4:	8fb10018 	lw	s1,24(sp)
8060b2a8:	8fb00014 	lw	s0,20(sp)
8060b2ac:	03e00008 	jr	ra
8060b2b0:	27bd0028 	addiu	sp,sp,40

8060b2b4 <Shader_CustomNut>:
8060b2b4:	27bdffb8 	addiu	sp,sp,-72
8060b2b8:	8c82009c 	lw	v0,156(a0)
8060b2bc:	afb10034 	sw	s1,52(sp)
8060b2c0:	8c910000 	lw	s1,0(a0)
8060b2c4:	afb20038 	sw	s2,56(sp)
8060b2c8:	afb00030 	sw	s0,48(sp)
8060b2cc:	00029040 	sll	s2,v0,0x1
8060b2d0:	00808025 	move	s0,a0
8060b2d4:	02202025 	move	a0,s1
8060b2d8:	afbf0044 	sw	ra,68(sp)
8060b2dc:	02429021 	addu	s2,s2,v0
8060b2e0:	afb40040 	sw	s4,64(sp)
8060b2e4:	afb3003c 	sw	s3,60(sp)
8060b2e8:	0c01f8a6 	jal	8007e298 <InitListPolyOpa>
8060b2ec:	00a09825 	move	s3,a1
8060b2f0:	8e3402c0 	lw	s4,704(s1)
8060b2f4:	00129040 	sll	s2,s2,0x1
8060b2f8:	26820008 	addiu	v0,s4,8
8060b2fc:	ae2202c0 	sw	v0,704(s1)
8060b300:	3c02db06 	lui	v0,0xdb06
8060b304:	24420024 	addiu	v0,v0,36
8060b308:	ae820000 	sw	v0,0(s4)
8060b30c:	24030001 	li	v1,1
8060b310:	24020020 	li	v0,32
8060b314:	8e040000 	lw	a0,0(s0)
8060b318:	02403025 	move	a2,s2
8060b31c:	afa30018 	sw	v1,24(sp)
8060b320:	02403825 	move	a3,s2
8060b324:	00002825 	move	a1,zero
8060b328:	afb20020 	sw	s2,32(sp)
8060b32c:	afb2001c 	sw	s2,28(sp)
8060b330:	afa20028 	sw	v0,40(sp)
8060b334:	afa20024 	sw	v0,36(sp)
8060b338:	afa20014 	sw	v0,20(sp)
8060b33c:	0c01fae1 	jal	8007eb84 <GetSegment>
8060b340:	afa20010 	sw	v0,16(sp)
8060b344:	8e3202c0 	lw	s2,704(s1)
8060b348:	ae820004 	sw	v0,4(s4)
8060b34c:	26420008 	addiu	v0,s2,8
8060b350:	ae2202c0 	sw	v0,704(s1)
8060b354:	3c02da38 	lui	v0,0xda38
8060b358:	8e040000 	lw	a0,0(s0)
8060b35c:	24420002 	addiu	v0,v0,2
8060b360:	0c02ae40 	jal	800ab900 <GetMatrixMV>
8060b364:	ae420000 	sw	v0,0(s2)
8060b368:	ae420004 	sw	v0,4(s2)
8060b36c:	001310c0 	sll	v0,s3,0x3
8060b370:	00532821 	addu	a1,v0,s3
8060b374:	3c038061 	lui	v1,0x8061
8060b378:	00052880 	sll	a1,a1,0x2
8060b37c:	24632b60 	addiu	v1,v1,11104
8060b380:	00651821 	addu	v1,v1,a1
8060b384:	8c720008 	lw	s2,8(v1)
8060b388:	3c028061 	lui	v0,0x8061
8060b38c:	00122080 	sll	a0,s2,0x2
8060b390:	24424f6c 	addiu	v0,v0,20332
8060b394:	00821021 	addu	v0,a0,v0
8060b398:	8c450000 	lw	a1,0(v0)
8060b39c:	8e2202c0 	lw	v0,704(s1)
8060b3a0:	8c630004 	lw	v1,4(v1)
8060b3a4:	ac450004 	sw	a1,4(v0)
8060b3a8:	3c058061 	lui	a1,0x8061
8060b3ac:	24a54f60 	addiu	a1,a1,20320
8060b3b0:	00852021 	addu	a0,a0,a1
8060b3b4:	8c840000 	lw	a0,0(a0)
8060b3b8:	3c06fa00 	lui	a2,0xfa00
8060b3bc:	ac44000c 	sw	a0,12(v0)
8060b3c0:	3c05fb00 	lui	a1,0xfb00
8060b3c4:	24440018 	addiu	a0,v0,24
8060b3c8:	ac460000 	sw	a2,0(v0)
8060b3cc:	ac450008 	sw	a1,8(v0)
8060b3d0:	ae2402c0 	sw	a0,704(s1)
8060b3d4:	3c04de00 	lui	a0,0xde00
8060b3d8:	ac440010 	sw	a0,16(v0)
8060b3dc:	1240000d 	beqz	s2,8060b414 <Shader_CustomNut+0x160>
8060b3e0:	ac430014 	sw	v1,20(v0)
8060b3e4:	0c01f8b0 	jal	8007e2c0 <InitListPolyXlu>
8060b3e8:	8e040000 	lw	a0,0(s0)
8060b3ec:	8fbf0044 	lw	ra,68(sp)
8060b3f0:	8fb40040 	lw	s4,64(sp)
8060b3f4:	8fb3003c 	lw	s3,60(sp)
8060b3f8:	8fb10034 	lw	s1,52(sp)
8060b3fc:	2645ffff 	addiu	a1,s2,-1
8060b400:	02002025 	move	a0,s0
8060b404:	8fb20038 	lw	s2,56(sp)
8060b408:	8fb00030 	lw	s0,48(sp)
8060b40c:	08182c0b 	j	8060b02c <shaderFlameEffect>
8060b410:	27bd0048 	addiu	sp,sp,72
8060b414:	8fbf0044 	lw	ra,68(sp)
8060b418:	8fb40040 	lw	s4,64(sp)
8060b41c:	8fb3003c 	lw	s3,60(sp)
8060b420:	8fb20038 	lw	s2,56(sp)
8060b424:	8fb10034 	lw	s1,52(sp)
8060b428:	8fb00030 	lw	s0,48(sp)
8060b42c:	03e00008 	jr	ra
8060b430:	27bd0048 	addiu	sp,sp,72

8060b434 <Shader_BossRemains>:
8060b434:	27bdffd8 	addiu	sp,sp,-40
8060b438:	afb00010 	sw	s0,16(sp)
8060b43c:	8c900000 	lw	s0,0(a0)
8060b440:	afb40020 	sw	s4,32(sp)
8060b444:	8e1402c0 	lw	s4,704(s0)
8060b448:	afb20018 	sw	s2,24(sp)
8060b44c:	26820008 	addiu	v0,s4,8
8060b450:	3c12da38 	lui	s2,0xda38
8060b454:	afbf0024 	sw	ra,36(sp)
8060b458:	afb3001c 	sw	s3,28(sp)
8060b45c:	afb10014 	sw	s1,20(sp)
8060b460:	ae0202c0 	sw	v0,704(s0)
8060b464:	26420002 	addiu	v0,s2,2
8060b468:	00808825 	move	s1,a0
8060b46c:	ae820000 	sw	v0,0(s4)
8060b470:	02002025 	move	a0,s0
8060b474:	0c02ae40 	jal	800ab900 <GetMatrixMV>
8060b478:	00a09825 	move	s3,a1
8060b47c:	ae820004 	sw	v0,4(s4)
8060b480:	8e1402c0 	lw	s4,704(s0)
8060b484:	26520001 	addiu	s2,s2,1
8060b488:	26820008 	addiu	v0,s4,8
8060b48c:	ae0202c0 	sw	v0,704(s0)
8060b490:	8e220000 	lw	v0,0(s1)
8060b494:	ae920000 	sw	s2,0(s4)
8060b498:	8c5202c4 	lw	s2,708(v0)
8060b49c:	3c048061 	lui	a0,0x8061
8060b4a0:	2652ffc0 	addiu	s2,s2,-64
8060b4a4:	ac5202c4 	sw	s2,708(v0)
8060b4a8:	02402825 	move	a1,s2
8060b4ac:	0c02adaf 	jal	800ab6bc <ConvertMatrix>
8060b4b0:	24842ad0 	addiu	a0,a0,10960
8060b4b4:	8e240000 	lw	a0,0(s1)
8060b4b8:	0c01f8a6 	jal	8007e298 <InitListPolyOpa>
8060b4bc:	ae920004 	sw	s2,4(s4)
8060b4c0:	8e0402c0 	lw	a0,704(s0)
8060b4c4:	001318c0 	sll	v1,s3,0x3
8060b4c8:	24820008 	addiu	v0,a0,8
8060b4cc:	ae0202c0 	sw	v0,704(s0)
8060b4d0:	3c02de00 	lui	v0,0xde00
8060b4d4:	ac820000 	sw	v0,0(a0)
8060b4d8:	00732821 	addu	a1,v1,s3
8060b4dc:	3c028061 	lui	v0,0x8061
8060b4e0:	00052880 	sll	a1,a1,0x2
8060b4e4:	24422b60 	addiu	v0,v0,11104
8060b4e8:	00451021 	addu	v0,v0,a1
8060b4ec:	8fbf0024 	lw	ra,36(sp)
8060b4f0:	8c420004 	lw	v0,4(v0)
8060b4f4:	8fb40020 	lw	s4,32(sp)
8060b4f8:	8fb3001c 	lw	s3,28(sp)
8060b4fc:	8fb20018 	lw	s2,24(sp)
8060b500:	8fb10014 	lw	s1,20(sp)
8060b504:	8fb00010 	lw	s0,16(sp)
8060b508:	ac820004 	sw	v0,4(a0)
8060b50c:	03e00008 	jr	ra
8060b510:	27bd0028 	addiu	sp,sp,40

8060b514 <Shader_CustomSpin>:
8060b514:	8c82009c 	lw	v0,156(a0)
8060b518:	27bdffd0 	addiu	sp,sp,-48
8060b51c:	44820000 	mtc1	v0,$f0
8060b520:	afb2001c 	sw	s2,28(sp)
8060b524:	afb00014 	sw	s0,20(sp)
8060b528:	afbf0024 	sw	ra,36(sp)
8060b52c:	afb30020 	sw	s3,32(sp)
8060b530:	afb10018 	sw	s1,24(sp)
8060b534:	f7b40028 	sdc1	$f20,40(sp)
8060b538:	00808025 	move	s0,a0
8060b53c:	00a09025 	move	s2,a1
8060b540:	04410004 	bgez	v0,8060b554 <Shader_CustomSpin+0x40>
8060b544:	46800321 	cvt.d.w	$f12,$f0
8060b548:	3c028061 	lui	v0,0x8061
8060b54c:	d4404fa0 	ldc1	$f0,20384(v0)
8060b550:	46206300 	add.d	$f12,$f12,$f0
8060b554:	3c028061 	lui	v0,0x8061
8060b558:	c454d7f4 	lwc1	$f20,-10252(v0)
8060b55c:	46206320 	cvt.s.d	$f12,$f12
8060b560:	46146502 	mul.s	$f20,$f12,$f20
8060b564:	00000000 	nop
8060b568:	3c028061 	lui	v0,0x8061
8060b56c:	c44c4f90 	lwc1	$f12,20368(v0)
8060b570:	24050001 	li	a1,1
8060b574:	460ca302 	mul.s	$f12,$f20,$f12
8060b578:	00000000 	nop
8060b57c:	0c02aa78 	jal	800aa9e0 <ModelViewRotateX>
8060b580:	8e110000 	lw	s1,0(s0)
8060b584:	3c028061 	lui	v0,0x8061
8060b588:	c44c4f94 	lwc1	$f12,20372(v0)
8060b58c:	460ca302 	mul.s	$f12,$f20,$f12
8060b590:	00000000 	nop
8060b594:	0c02aae5 	jal	800aab94 <ModelViewRotateY>
8060b598:	24050001 	li	a1,1
8060b59c:	3c028061 	lui	v0,0x8061
8060b5a0:	c44c4f98 	lwc1	$f12,20376(v0)
8060b5a4:	460ca302 	mul.s	$f12,$f20,$f12
8060b5a8:	00000000 	nop
8060b5ac:	0c02ab53 	jal	800aad4c <ModelViewRotateZ>
8060b5b0:	24050001 	li	a1,1
8060b5b4:	8e3302c0 	lw	s3,704(s1)
8060b5b8:	8e040000 	lw	a0,0(s0)
8060b5bc:	26620008 	addiu	v0,s3,8
8060b5c0:	ae2202c0 	sw	v0,704(s1)
8060b5c4:	3c02da38 	lui	v0,0xda38
8060b5c8:	24420002 	addiu	v0,v0,2
8060b5cc:	0c02ae40 	jal	800ab900 <GetMatrixMV>
8060b5d0:	ae620000 	sw	v0,0(s3)
8060b5d4:	8e040000 	lw	a0,0(s0)
8060b5d8:	0c01f8a6 	jal	8007e298 <InitListPolyOpa>
8060b5dc:	ae620004 	sw	v0,4(s3)
8060b5e0:	001220c0 	sll	a0,s2,0x3
8060b5e4:	00922821 	addu	a1,a0,s2
8060b5e8:	3c028061 	lui	v0,0x8061
8060b5ec:	00052080 	sll	a0,a1,0x2
8060b5f0:	24452b60 	addiu	a1,v0,11104
8060b5f4:	00a42821 	addu	a1,a1,a0
8060b5f8:	8e2302c0 	lw	v1,704(s1)
8060b5fc:	8ca20004 	lw	v0,4(a1)
8060b600:	3c06de00 	lui	a2,0xde00
8060b604:	ac620004 	sw	v0,4(v1)
8060b608:	24620010 	addiu	v0,v1,16
8060b60c:	ac660000 	sw	a2,0(v1)
8060b610:	ae2202c0 	sw	v0,704(s1)
8060b614:	8ca20008 	lw	v0,8(a1)
8060b618:	8e040000 	lw	a0,0(s0)
8060b61c:	ac660008 	sw	a2,8(v1)
8060b620:	0c01f8b0 	jal	8007e2c0 <InitListPolyXlu>
8060b624:	ac62000c 	sw	v0,12(v1)
8060b628:	8fbf0024 	lw	ra,36(sp)
8060b62c:	8fb30020 	lw	s3,32(sp)
8060b630:	8fb2001c 	lw	s2,28(sp)
8060b634:	8fb10018 	lw	s1,24(sp)
8060b638:	d7b40028 	ldc1	$f20,40(sp)
8060b63c:	02002025 	move	a0,s0
8060b640:	8fb00014 	lw	s0,20(sp)
8060b644:	24050002 	li	a1,2
8060b648:	08182c0b 	j	8060b02c <shaderFlameEffect>
8060b64c:	27bd0030 	addiu	sp,sp,48

8060b650 <Shader_CustomGS>:
8060b650:	000518c0 	sll	v1,a1,0x3
8060b654:	3c028061 	lui	v0,0x8061
8060b658:	00651821 	addu	v1,v1,a1
8060b65c:	8c860000 	lw	a2,0(a0)
8060b660:	00031880 	sll	v1,v1,0x2
8060b664:	24422b60 	addiu	v0,v0,11104
8060b668:	00431021 	addu	v0,v0,v1
8060b66c:	8c47000c 	lw	a3,12(v0)
8060b670:	8cc302d0 	lw	v1,720(a2)
8060b674:	3c08fb00 	lui	t0,0xfb00
8060b678:	ac670004 	sw	a3,4(v1)
8060b67c:	8c470010 	lw	a3,16(v0)
8060b680:	24620010 	addiu	v0,v1,16
8060b684:	ac680000 	sw	t0,0(v1)
8060b688:	acc202d0 	sw	v0,720(a2)
8060b68c:	3c02fa00 	lui	v0,0xfa00
8060b690:	24420080 	addiu	v0,v0,128
8060b694:	ac620008 	sw	v0,8(v1)
8060b698:	08015e46 	j	80057918 <Shader_GS>
8060b69c:	ac67000c 	sw	a3,12(v1)

8060b6a0 <Shader_CustomStrayFairy>:
8060b6a0:	000518c0 	sll	v1,a1,0x3
8060b6a4:	27bdffd8 	addiu	sp,sp,-40
8060b6a8:	00651821 	addu	v1,v1,a1
8060b6ac:	3c028061 	lui	v0,0x8061
8060b6b0:	00031880 	sll	v1,v1,0x2
8060b6b4:	afb10018 	sw	s1,24(sp)
8060b6b8:	24422b60 	addiu	v0,v0,11104
8060b6bc:	8c910000 	lw	s1,0(a0)
8060b6c0:	00431021 	addu	v0,v0,v1
8060b6c4:	afb00014 	sw	s0,20(sp)
8060b6c8:	8c500004 	lw	s0,4(v0)
8060b6cc:	8e2202d0 	lw	v0,720(s1)
8060b6d0:	afbf0024 	sw	ra,36(sp)
8060b6d4:	24430008 	addiu	v1,v0,8
8060b6d8:	afb30020 	sw	s3,32(sp)
8060b6dc:	afb2001c 	sw	s2,28(sp)
8060b6e0:	ae2302d0 	sw	v1,720(s1)
8060b6e4:	3c03db06 	lui	v1,0xdb06
8060b6e8:	24630020 	addiu	v1,v1,32
8060b6ec:	ac430000 	sw	v1,0(v0)
8060b6f0:	3c038062 	lui	v1,0x8062
8060b6f4:	8c635ed8 	lw	v1,24280(v1)
8060b6f8:	3c058061 	lui	a1,0x8061
8060b6fc:	ac430004 	sw	v1,4(v0)
8060b700:	00809025 	move	s2,a0
8060b704:	24a5d478 	addiu	a1,a1,-11144
8060b708:	0c1817b9 	jal	80605ee4 <comboSetObjectSegment>
8060b70c:	02202025 	move	a0,s1
8060b710:	3c040001 	lui	a0,0x1
8060b714:	24841da0 	addiu	a0,a0,7584
8060b718:	0c02af95 	jal	800abe54 <ModelViewUnkTransform>
8060b71c:	02442021 	addu	a0,s2,a0
8060b720:	8e3302d0 	lw	s3,720(s1)
8060b724:	8e440000 	lw	a0,0(s2)
8060b728:	26620008 	addiu	v0,s3,8
8060b72c:	ae2202d0 	sw	v0,720(s1)
8060b730:	3c02da38 	lui	v0,0xda38
8060b734:	24420002 	addiu	v0,v0,2
8060b738:	0c02ae40 	jal	800ab900 <GetMatrixMV>
8060b73c:	ae620000 	sw	v0,0(s3)
8060b740:	8e440000 	lw	a0,0(s2)
8060b744:	0c01f8b0 	jal	8007e2c0 <InitListPolyXlu>
8060b748:	ae620004 	sw	v0,4(s3)
8060b74c:	2602ffff 	addiu	v0,s0,-1
8060b750:	3c038061 	lui	v1,0x8061
8060b754:	00021080 	sll	v0,v0,0x2
8060b758:	246329e4 	addiu	v1,v1,10724
8060b75c:	00431821 	addu	v1,v0,v1
8060b760:	8c640000 	lw	a0,0(v1)
8060b764:	8e2302d0 	lw	v1,720(s1)
8060b768:	3c05fb00 	lui	a1,0xfb00
8060b76c:	ac640004 	sw	a0,4(v1)
8060b770:	3c048061 	lui	a0,0x8061
8060b774:	248429d0 	addiu	a0,a0,10704
8060b778:	00441021 	addu	v0,v0,a0
8060b77c:	8c420000 	lw	v0,0(v0)
8060b780:	3c04fa00 	lui	a0,0xfa00
8060b784:	ac62000c 	sw	v0,12(v1)
8060b788:	24620018 	addiu	v0,v1,24
8060b78c:	ac650000 	sw	a1,0(v1)
8060b790:	ac640008 	sw	a0,8(v1)
8060b794:	ae2202d0 	sw	v0,720(s1)
8060b798:	3c02de00 	lui	v0,0xde00
8060b79c:	8fbf0024 	lw	ra,36(sp)
8060b7a0:	ac620010 	sw	v0,16(v1)
8060b7a4:	3c020600 	lui	v0,0x600
8060b7a8:	24420100 	addiu	v0,v0,256
8060b7ac:	8fb30020 	lw	s3,32(sp)
8060b7b0:	8fb2001c 	lw	s2,28(sp)
8060b7b4:	8fb10018 	lw	s1,24(sp)
8060b7b8:	8fb00014 	lw	s0,20(sp)
8060b7bc:	ac620014 	sw	v0,20(v1)
8060b7c0:	03e00008 	jr	ra
8060b7c4:	27bd0028 	addiu	sp,sp,40

8060b7c8 <Shader_MasterSword>:
8060b7c8:	27bdffd0 	addiu	sp,sp,-48
8060b7cc:	afb00014 	sw	s0,20(sp)
8060b7d0:	8c900000 	lw	s0,0(a0)
8060b7d4:	afb30020 	sw	s3,32(sp)
8060b7d8:	8e1302c0 	lw	s3,704(s0)
8060b7dc:	afb2001c 	sw	s2,28(sp)
8060b7e0:	26620008 	addiu	v0,s3,8
8060b7e4:	3c12da38 	lui	s2,0xda38
8060b7e8:	afbf002c 	sw	ra,44(sp)
8060b7ec:	afb50028 	sw	s5,40(sp)
8060b7f0:	afb40024 	sw	s4,36(sp)
8060b7f4:	afb10018 	sw	s1,24(sp)
8060b7f8:	ae0202c0 	sw	v0,704(s0)
8060b7fc:	26420002 	addiu	v0,s2,2
8060b800:	00808825 	move	s1,a0
8060b804:	ae620000 	sw	v0,0(s3)
8060b808:	02002025 	move	a0,s0
8060b80c:	0c02ae40 	jal	800ab900 <GetMatrixMV>
8060b810:	00a0a025 	move	s4,a1
8060b814:	8e1502c0 	lw	s5,704(s0)
8060b818:	ae620004 	sw	v0,4(s3)
8060b81c:	26a20008 	addiu	v0,s5,8
8060b820:	ae0202c0 	sw	v0,704(s0)
8060b824:	8e220000 	lw	v0,0(s1)
8060b828:	26520001 	addiu	s2,s2,1
8060b82c:	8c5302c4 	lw	s3,708(v0)
8060b830:	3c048061 	lui	a0,0x8061
8060b834:	2673ffc0 	addiu	s3,s3,-64
8060b838:	aeb20000 	sw	s2,0(s5)
8060b83c:	02602825 	move	a1,s3
8060b840:	ac5302c4 	sw	s3,708(v0)
8060b844:	0c02adaf 	jal	800ab6bc <ConvertMatrix>
8060b848:	24842a38 	addiu	a0,a0,10808
8060b84c:	aeb30004 	sw	s3,4(s5)
8060b850:	8e1302c0 	lw	s3,704(s0)
8060b854:	3c048061 	lui	a0,0x8061
8060b858:	26620008 	addiu	v0,s3,8
8060b85c:	ae0202c0 	sw	v0,704(s0)
8060b860:	8e220000 	lw	v0,0(s1)
8060b864:	ae720000 	sw	s2,0(s3)
8060b868:	8c5202c4 	lw	s2,708(v0)
8060b86c:	248429f8 	addiu	a0,a0,10744
8060b870:	2652ffc0 	addiu	s2,s2,-64
8060b874:	ac5202c4 	sw	s2,708(v0)
8060b878:	0c02adaf 	jal	800ab6bc <ConvertMatrix>
8060b87c:	02402825 	move	a1,s2
8060b880:	8e0202c0 	lw	v0,704(s0)
8060b884:	ae720004 	sw	s2,4(s3)
8060b888:	24430008 	addiu	v1,v0,8
8060b88c:	8e240000 	lw	a0,0(s1)
8060b890:	ae0302c0 	sw	v1,704(s0)
8060b894:	3c03db06 	lui	v1,0xdb06
8060b898:	24630020 	addiu	v1,v1,32
8060b89c:	ac430000 	sw	v1,0(v0)
8060b8a0:	8c8302c4 	lw	v1,708(a0)
8060b8a4:	3c06df00 	lui	a2,0xdf00
8060b8a8:	2465fff8 	addiu	a1,v1,-8
8060b8ac:	ac8502c4 	sw	a1,708(a0)
8060b8b0:	ac66fff8 	sw	a2,-8(v1)
8060b8b4:	ac60fffc 	sw	zero,-4(v1)
8060b8b8:	0c01f8a6 	jal	8007e298 <InitListPolyOpa>
8060b8bc:	ac450004 	sw	a1,4(v0)
8060b8c0:	8e0402c0 	lw	a0,704(s0)
8060b8c4:	001418c0 	sll	v1,s4,0x3
8060b8c8:	24820008 	addiu	v0,a0,8
8060b8cc:	ae0202c0 	sw	v0,704(s0)
8060b8d0:	3c02de00 	lui	v0,0xde00
8060b8d4:	00742821 	addu	a1,v1,s4
8060b8d8:	ac820000 	sw	v0,0(a0)
8060b8dc:	3c028061 	lui	v0,0x8061
8060b8e0:	00051880 	sll	v1,a1,0x2
8060b8e4:	24452b60 	addiu	a1,v0,11104
8060b8e8:	00a32821 	addu	a1,a1,v1
8060b8ec:	8fbf002c 	lw	ra,44(sp)
8060b8f0:	8ca20004 	lw	v0,4(a1)
8060b8f4:	8fb50028 	lw	s5,40(sp)
8060b8f8:	8fb40024 	lw	s4,36(sp)
8060b8fc:	8fb30020 	lw	s3,32(sp)
8060b900:	8fb2001c 	lw	s2,28(sp)
8060b904:	8fb10018 	lw	s1,24(sp)
8060b908:	8fb00014 	lw	s0,20(sp)
8060b90c:	ac820004 	sw	v0,4(a0)
8060b910:	03e00008 	jr	ra
8060b914:	27bd0030 	addiu	sp,sp,48

8060b918 <Shader_SpiritualStones>:
8060b918:	27bdffc8 	addiu	sp,sp,-56
8060b91c:	afb00010 	sw	s0,16(sp)
8060b920:	8c900000 	lw	s0,0(a0)
8060b924:	000510c0 	sll	v0,a1,0x3
8060b928:	afb50024 	sw	s5,36(sp)
8060b92c:	afb20018 	sw	s2,24(sp)
8060b930:	8e1502d0 	lw	s5,720(s0)
8060b934:	00451021 	addu	v0,v0,a1
8060b938:	3c128061 	lui	s2,0x8061
8060b93c:	afb40020 	sw	s4,32(sp)
8060b940:	00021080 	sll	v0,v0,0x2
8060b944:	3c14da38 	lui	s4,0xda38
8060b948:	26522b60 	addiu	s2,s2,11104
8060b94c:	afbe0030 	sw	s8,48(sp)
8060b950:	02429021 	addu	s2,s2,v0
8060b954:	269e0002 	addiu	s8,s4,2
8060b958:	26a20008 	addiu	v0,s5,8
8060b95c:	afbf0034 	sw	ra,52(sp)
8060b960:	afb7002c 	sw	s7,44(sp)
8060b964:	afb60028 	sw	s6,40(sp)
8060b968:	afb3001c 	sw	s3,28(sp)
8060b96c:	afb10014 	sw	s1,20(sp)
8060b970:	00808825 	move	s1,a0
8060b974:	ae0202d0 	sw	v0,720(s0)
8060b978:	02002025 	move	a0,s0
8060b97c:	aebe0000 	sw	s8,0(s5)
8060b980:	0c02ae40 	jal	800ab900 <GetMatrixMV>
8060b984:	8e530004 	lw	s3,4(s2)
8060b988:	8e1602d0 	lw	s6,720(s0)
8060b98c:	aea20004 	sw	v0,4(s5)
8060b990:	26c20008 	addiu	v0,s6,8
8060b994:	ae0202d0 	sw	v0,720(s0)
8060b998:	8e220000 	lw	v0,0(s1)
8060b99c:	26940001 	addiu	s4,s4,1
8060b9a0:	8c5502c4 	lw	s5,708(v0)
8060b9a4:	3c178061 	lui	s7,0x8061
8060b9a8:	26b5ffc0 	addiu	s5,s5,-64
8060b9ac:	aed40000 	sw	s4,0(s6)
8060b9b0:	02a02825 	move	a1,s5
8060b9b4:	ac5502c4 	sw	s5,708(v0)
8060b9b8:	0c02adaf 	jal	800ab6bc <ConvertMatrix>
8060b9bc:	26e42a90 	addiu	a0,s7,10896
8060b9c0:	aed50004 	sw	s5,4(s6)
8060b9c4:	8e1502c0 	lw	s5,704(s0)
8060b9c8:	8e240000 	lw	a0,0(s1)
8060b9cc:	26a20008 	addiu	v0,s5,8
8060b9d0:	ae0202c0 	sw	v0,704(s0)
8060b9d4:	0c02ae40 	jal	800ab900 <GetMatrixMV>
8060b9d8:	aebe0000 	sw	s8,0(s5)
8060b9dc:	aea20004 	sw	v0,4(s5)
8060b9e0:	8e1502c0 	lw	s5,704(s0)
8060b9e4:	26e42a90 	addiu	a0,s7,10896
8060b9e8:	26a20008 	addiu	v0,s5,8
8060b9ec:	ae0202c0 	sw	v0,704(s0)
8060b9f0:	8e220000 	lw	v0,0(s1)
8060b9f4:	aeb40000 	sw	s4,0(s5)
8060b9f8:	8c5402c4 	lw	s4,708(v0)
8060b9fc:	2694ffc0 	addiu	s4,s4,-64
8060ba00:	ac5402c4 	sw	s4,708(v0)
8060ba04:	0c02adaf 	jal	800ab6bc <ConvertMatrix>
8060ba08:	02802825 	move	a1,s4
8060ba0c:	8e0502d0 	lw	a1,720(s0)
8060ba10:	8e240000 	lw	a0,0(s1)
8060ba14:	24a20008 	addiu	v0,a1,8
8060ba18:	3c03db06 	lui	v1,0xdb06
8060ba1c:	aeb40004 	sw	s4,4(s5)
8060ba20:	ae0202d0 	sw	v0,720(s0)
8060ba24:	24620024 	addiu	v0,v1,36
8060ba28:	aca20000 	sw	v0,0(a1)
8060ba2c:	8c8202c4 	lw	v0,708(a0)
8060ba30:	3c06df00 	lui	a2,0xdf00
8060ba34:	2447fff8 	addiu	a3,v0,-8
8060ba38:	ac46fff8 	sw	a2,-8(v0)
8060ba3c:	ac40fffc 	sw	zero,-4(v0)
8060ba40:	aca70004 	sw	a3,4(a1)
8060ba44:	8e0502c0 	lw	a1,704(s0)
8060ba48:	24630020 	addiu	v1,v1,32
8060ba4c:	24a70008 	addiu	a3,a1,8
8060ba50:	ae0702c0 	sw	a3,704(s0)
8060ba54:	aca30000 	sw	v1,0(a1)
8060ba58:	2443fff0 	addiu	v1,v0,-16
8060ba5c:	ac8302c4 	sw	v1,708(a0)
8060ba60:	ac46fff0 	sw	a2,-16(v0)
8060ba64:	ac40fff4 	sw	zero,-12(v0)
8060ba68:	0c01f8b0 	jal	8007e2c0 <InitListPolyXlu>
8060ba6c:	aca30004 	sw	v1,4(a1)
8060ba70:	3c028061 	lui	v0,0x8061
8060ba74:	00131880 	sll	v1,s3,0x2
8060ba78:	24422a84 	addiu	v0,v0,10884
8060ba7c:	00621021 	addu	v0,v1,v0
8060ba80:	8c440000 	lw	a0,0(v0)
8060ba84:	8e0202d0 	lw	v0,720(s0)
8060ba88:	3c13fa00 	lui	s3,0xfa00
8060ba8c:	ac440004 	sw	a0,4(v0)
8060ba90:	3c048061 	lui	a0,0x8061
8060ba94:	24842a78 	addiu	a0,a0,10872
8060ba98:	00641821 	addu	v1,v1,a0
8060ba9c:	8c630000 	lw	v1,0(v1)
8060baa0:	26730080 	addiu	s3,s3,128
8060baa4:	ac43000c 	sw	v1,12(v0)
8060baa8:	3c15fb00 	lui	s5,0xfb00
8060baac:	24430018 	addiu	v1,v0,24
8060bab0:	ac530000 	sw	s3,0(v0)
8060bab4:	ac550008 	sw	s5,8(v0)
8060bab8:	ae0302d0 	sw	v1,720(s0)
8060babc:	8e430008 	lw	v1,8(s2)
8060bac0:	3c14de00 	lui	s4,0xde00
8060bac4:	8e240000 	lw	a0,0(s1)
8060bac8:	ac540010 	sw	s4,16(v0)
8060bacc:	0c01f8a6 	jal	8007e298 <InitListPolyOpa>
8060bad0:	ac430014 	sw	v1,20(v0)
8060bad4:	8e0202c0 	lw	v0,704(s0)
8060bad8:	2403aaff 	li	v1,-21761
8060badc:	ac430004 	sw	v1,4(v0)
8060bae0:	3c039678 	lui	v1,0x9678
8060bae4:	246300ff 	addiu	v1,v1,255
8060bae8:	ac43000c 	sw	v1,12(v0)
8060baec:	24430018 	addiu	v1,v0,24
8060baf0:	ac530000 	sw	s3,0(v0)
8060baf4:	ac550008 	sw	s5,8(v0)
8060baf8:	8fbf0034 	lw	ra,52(sp)
8060bafc:	ae0302c0 	sw	v1,704(s0)
8060bb00:	8e43000c 	lw	v1,12(s2)
8060bb04:	8fbe0030 	lw	s8,48(sp)
8060bb08:	8fb7002c 	lw	s7,44(sp)
8060bb0c:	8fb60028 	lw	s6,40(sp)
8060bb10:	8fb50024 	lw	s5,36(sp)
8060bb14:	8fb3001c 	lw	s3,28(sp)
8060bb18:	8fb20018 	lw	s2,24(sp)
8060bb1c:	8fb10014 	lw	s1,20(sp)
8060bb20:	8fb00010 	lw	s0,16(sp)
8060bb24:	ac540010 	sw	s4,16(v0)
8060bb28:	ac430014 	sw	v1,20(v0)
8060bb2c:	8fb40020 	lw	s4,32(sp)
8060bb30:	03e00008 	jr	ra
8060bb34:	27bd0038 	addiu	sp,sp,56

8060bb38 <comboOotSetEventChk>:
8060bb38:	00041902 	srl	v1,a0,0x4
8060bb3c:	24630768 	addiu	v1,v1,1896
8060bb40:	3c028012 	lui	v0,0x8012
8060bb44:	00031840 	sll	v1,v1,0x1
8060bb48:	2442a5d0 	addiu	v0,v0,-23088
8060bb4c:	00431021 	addu	v0,v0,v1
8060bb50:	3084000f 	andi	a0,a0,0xf
8060bb54:	24030001 	li	v1,1
8060bb58:	00831804 	sllv	v1,v1,a0
8060bb5c:	94440004 	lhu	a0,4(v0)
8060bb60:	00641825 	or	v1,v1,a0
8060bb64:	03e00008 	jr	ra
8060bb68:	a4430004 	sh	v1,4(v0)

8060bb6c <comboMmSetEventWeek>:
8060bb6c:	3c028062 	lui	v0,0x8062
8060bb70:	000418c2 	srl	v1,a0,0x3
8060bb74:	24426a90 	addiu	v0,v0,27280
8060bb78:	00621821 	addu	v1,v1,v0
8060bb7c:	30840007 	andi	a0,a0,0x7
8060bb80:	24020001 	li	v0,1
8060bb84:	00821004 	sllv	v0,v0,a0
8060bb88:	90640ef8 	lbu	a0,3832(v1)
8060bb8c:	00441025 	or	v0,v0,a0
8060bb90:	03e00008 	jr	ra
8060bb94:	a0620ef8 	sb	v0,3832(v1)

8060bb98 <comboInitHints>:
8060bb98:	3c058062 	lui	a1,0x8062
8060bb9c:	3c0413fe 	lui	a0,0x13fe
8060bba0:	24060200 	li	a2,512
8060bba4:	24a55fc0 	addiu	a1,a1,24512
8060bba8:	08000217 	j	8000085c <DMARomToRam>
8060bbac:	24845000 	addiu	a0,a0,20480

8060bbb0 <comboHintGossip>:
8060bbb0:	27bdffd8 	addiu	sp,sp,-40
8060bbb4:	3402fe88 	li	v0,0xfe88
8060bbb8:	00a22821 	addu	a1,a1,v0
8060bbbc:	afb1001c 	sw	s1,28(sp)
8060bbc0:	00808825 	move	s1,a0
8060bbc4:	27a40010 	addiu	a0,sp,16
8060bbc8:	afbf0024 	sw	ra,36(sp)
8060bbcc:	afb20020 	sw	s2,32(sp)
8060bbd0:	afb00018 	sw	s0,24(sp)
8060bbd4:	0c18276a 	jal	80609da8 <comboTextAppendHeader>
8060bbd8:	afa50010 	sw	a1,16(sp)
8060bbdc:	3c058061 	lui	a1,0x8061
8060bbe0:	24a54fa8 	addiu	a1,a1,20392
8060bbe4:	27a40010 	addiu	a0,sp,16
8060bbe8:	0c182755 	jal	80609d54 <comboTextAppendStr>
8060bbec:	8fb20010 	lw	s2,16(sp)
8060bbf0:	3c038062 	lui	v1,0x8062
8060bbf4:	24635fc0 	addiu	v1,v1,24512
8060bbf8:	00001025 	move	v0,zero
8060bbfc:	00608025 	move	s0,v1
8060bc00:	240600ff 	li	a2,255
8060bc04:	24050040 	li	a1,64
8060bc08:	90640000 	lbu	a0,0(v1)
8060bc0c:	50860007 	beql	a0,a2,8060bc2c <comboHintGossip+0x7c>
8060bc10:	24020005 	li	v0,5
8060bc14:	52240033 	beql	s1,a0,8060bce4 <comboHintGossip+0x134>
8060bc18:	000210c0 	sll	v0,v0,0x3
8060bc1c:	24420001 	addiu	v0,v0,1
8060bc20:	1445fff9 	bne	v0,a1,8060bc08 <comboHintGossip+0x58>
8060bc24:	24630008 	addiu	v1,v1,8
8060bc28:	24020005 	li	v0,5
8060bc2c:	0222001b 	divu	zero,s1,v0
8060bc30:	3c028061 	lui	v0,0x8061
8060bc34:	244250bc 	addiu	v0,v0,20668
8060bc38:	27a40010 	addiu	a0,sp,16
8060bc3c:	00008810 	mfhi	s1
8060bc40:	00118880 	sll	s1,s1,0x2
8060bc44:	02228821 	addu	s1,s1,v0
8060bc48:	0c182755 	jal	80609d54 <comboTextAppendStr>
8060bc4c:	8e250000 	lw	a1,0(s1)
8060bc50:	10000038 	b	8060bd34 <comboHintGossip+0x184>
8060bc54:	3c058061 	lui	a1,0x8061
8060bc58:	24a54fd8 	addiu	a1,a1,20440
8060bc5c:	0c182755 	jal	80609d54 <comboTextAppendStr>
8060bc60:	27a40010 	addiu	a0,sp,16
8060bc64:	92050002 	lbu	a1,2(s0)
8060bc68:	00003025 	move	a2,zero
8060bc6c:	0c18287d 	jal	8060a1f4 <comboTextAppendRegionName>
8060bc70:	27a40010 	addiu	a0,sp,16
8060bc74:	3c058061 	lui	a1,0x8061
8060bc78:	10000029 	b	8060bd20 <comboHintGossip+0x170>
8060bc7c:	24a54fe4 	addiu	a1,a1,20452
8060bc80:	92050002 	lbu	a1,2(s0)
8060bc84:	0c1828c1 	jal	8060a304 <comboTextAppendCheckName>
8060bc88:	27a40010 	addiu	a0,sp,16
8060bc8c:	3c058061 	lui	a1,0x8061
8060bc90:	24a54ffc 	addiu	a1,a1,20476
8060bc94:	0c182755 	jal	80609d54 <comboTextAppendStr>
8060bc98:	27a40010 	addiu	a0,sp,16
8060bc9c:	86050004 	lh	a1,4(s0)
8060bca0:	24060004 	li	a2,4
8060bca4:	0c182794 	jal	80609e50 <comboTextAppendItemName>
8060bca8:	27a40010 	addiu	a0,sp,16
8060bcac:	86030006 	lh	v1,6(s0)
8060bcb0:	2402ffff 	li	v0,-1
8060bcb4:	5062001f 	beql	v1,v0,8060bd34 <comboHintGossip+0x184>
8060bcb8:	3c058061 	lui	a1,0x8061
8060bcbc:	3c058061 	lui	a1,0x8061
8060bcc0:	27a40010 	addiu	a0,sp,16
8060bcc4:	0c182755 	jal	80609d54 <comboTextAppendStr>
8060bcc8:	24a5d940 	addiu	a1,a1,-9920
8060bccc:	86050006 	lh	a1,6(s0)
8060bcd0:	24060004 	li	a2,4
8060bcd4:	0c182794 	jal	80609e50 <comboTextAppendItemName>
8060bcd8:	27a40010 	addiu	a0,sp,16
8060bcdc:	10000015 	b	8060bd34 <comboHintGossip+0x184>
8060bce0:	3c058061 	lui	a1,0x8061
8060bce4:	02028021 	addu	s0,s0,v0
8060bce8:	92020001 	lbu	v0,1(s0)
8060bcec:	24030002 	li	v1,2
8060bcf0:	1043ffe3 	beq	v0,v1,8060bc80 <comboHintGossip+0xd0>
8060bcf4:	2c430003 	sltiu	v1,v0,3
8060bcf8:	10600019 	beqz	v1,8060bd60 <comboHintGossip+0x1b0>
8060bcfc:	24030003 	li	v1,3
8060bd00:	5440ffd5 	bnezl	v0,8060bc58 <comboHintGossip+0xa8>
8060bd04:	3c058061 	lui	a1,0x8061
8060bd08:	92050002 	lbu	a1,2(s0)
8060bd0c:	00003025 	move	a2,zero
8060bd10:	0c18287d 	jal	8060a1f4 <comboTextAppendRegionName>
8060bd14:	27a40010 	addiu	a0,sp,16
8060bd18:	3c058061 	lui	a1,0x8061
8060bd1c:	24a54fb8 	addiu	a1,a1,20408
8060bd20:	0c182755 	jal	80609d54 <comboTextAppendStr>
8060bd24:	27a40010 	addiu	a0,sp,16
8060bd28:	0c182770 	jal	80609dc0 <comboTextAppendClearColor>
8060bd2c:	27a40010 	addiu	a0,sp,16
8060bd30:	3c058061 	lui	a1,0x8061
8060bd34:	27a40010 	addiu	a0,sp,16
8060bd38:	0c182755 	jal	80609d54 <comboTextAppendStr>
8060bd3c:	24a55014 	addiu	a1,a1,20500
8060bd40:	0c182716 	jal	80609c58 <comboTextAutoLineBreaks>
8060bd44:	02402025 	move	a0,s2
8060bd48:	8fbf0024 	lw	ra,36(sp)
8060bd4c:	8fb20020 	lw	s2,32(sp)
8060bd50:	8fb1001c 	lw	s1,28(sp)
8060bd54:	8fb00018 	lw	s0,24(sp)
8060bd58:	03e00008 	jr	ra
8060bd5c:	27bd0028 	addiu	sp,sp,40
8060bd60:	1443fff3 	bne	v0,v1,8060bd30 <comboHintGossip+0x180>
8060bd64:	24060004 	li	a2,4
8060bd68:	86050004 	lh	a1,4(s0)
8060bd6c:	0c182794 	jal	80609e50 <comboTextAppendItemName>
8060bd70:	27a40010 	addiu	a0,sp,16
8060bd74:	3c058061 	lui	a1,0x8061
8060bd78:	27a40010 	addiu	a0,sp,16
8060bd7c:	0c182755 	jal	80609d54 <comboTextAppendStr>
8060bd80:	24a55004 	addiu	a1,a1,20484
8060bd84:	92050002 	lbu	a1,2(s0)
8060bd88:	24060002 	li	a2,2
8060bd8c:	0c18287d 	jal	8060a1f4 <comboTextAppendRegionName>
8060bd90:	27a40010 	addiu	a0,sp,16
8060bd94:	1000ffe7 	b	8060bd34 <comboHintGossip+0x184>
8060bd98:	3c058061 	lui	a1,0x8061

8060bd9c <readFlash>:
8060bd9c:	27bdffd0 	addiu	sp,sp,-48
8060bda0:	afb10014 	sw	s1,20(sp)
8060bda4:	00a08825 	move	s1,a1
8060bda8:	afb60028 	sw	s6,40(sp)
8060bdac:	afb3001c 	sw	s3,28(sp)
8060bdb0:	afb20018 	sw	s2,24(sp)
8060bdb4:	00c02825 	move	a1,a2
8060bdb8:	00809025 	move	s2,a0
8060bdbc:	3c168062 	lui	s6,0x8062
8060bdc0:	02202025 	move	a0,s1
8060bdc4:	3c138062 	lui	s3,0x8062
8060bdc8:	afb40020 	sw	s4,32(sp)
8060bdcc:	afb00010 	sw	s0,16(sp)
8060bdd0:	afbf002c 	sw	ra,44(sp)
8060bdd4:	afb50024 	sw	s5,36(sp)
8060bdd8:	00c08025 	move	s0,a2
8060bddc:	0c000d10 	jal	80003440 <osWritebackDCache>
8060bde0:	26d661d0 	addiu	s6,s6,25040
8060bde4:	26736250 	addiu	s3,s3,25168
8060bde8:	3c148062 	lui	s4,0x8062
8060bdec:	1600000b 	bnez	s0,8060be1c <readFlash+0x80>
8060bdf0:	2e022000 	sltiu	v0,s0,8192
8060bdf4:	8fbf002c 	lw	ra,44(sp)
8060bdf8:	8fb60028 	lw	s6,40(sp)
8060bdfc:	8fb50024 	lw	s5,36(sp)
8060be00:	8fb40020 	lw	s4,32(sp)
8060be04:	8fb3001c 	lw	s3,28(sp)
8060be08:	8fb20018 	lw	s2,24(sp)
8060be0c:	8fb10014 	lw	s1,20(sp)
8060be10:	8fb00010 	lw	s0,16(sp)
8060be14:	03e00008 	jr	ra
8060be18:	27bd0030 	addiu	sp,sp,48
8060be1c:	10400002 	beqz	v0,8060be28 <readFlash+0x8c>
8060be20:	24152000 	li	s5,8192
8060be24:	0200a825 	move	s5,s0
8060be28:	8ec2000c 	lw	v0,12(s6)
8060be2c:	3c050001 	lui	a1,0x1
8060be30:	3c06f000 	lui	a2,0xf000
8060be34:	00a22825 	or	a1,a1,v0
8060be38:	0c001644 	jal	80005910 <osEPiWriteIo>
8060be3c:	02c02025 	move	a0,s6
8060be40:	8e8361c0 	lw	v1,25024(s4)
8060be44:	3c0200ff 	lui	v0,0xff
8060be48:	3442ffff 	ori	v0,v0,0xffff
8060be4c:	2c630001 	sltiu	v1,v1,1
8060be50:	02421024 	and	v0,s2,v0
8060be54:	00621006 	srlv	v0,v0,v1
8060be58:	02202025 	move	a0,s1
8060be5c:	02a02825 	move	a1,s5
8060be60:	ae710008 	sw	s1,8(s3)
8060be64:	ae62000c 	sw	v0,12(s3)
8060be68:	0c001094 	jal	80004250 <osInvalDCache>
8060be6c:	ae750010 	sw	s5,16(s3)
8060be70:	00003025 	move	a2,zero
8060be74:	02602825 	move	a1,s3
8060be78:	0c001030 	jal	800040c0 <osEPiStartDma>
8060be7c:	02c02025 	move	a0,s6
8060be80:	3c048062 	lui	a0,0x8062
8060be84:	24060001 	li	a2,1
8060be88:	00002825 	move	a1,zero
8060be8c:	0c00080c 	jal	80002030 <osRecvMesg>
8060be90:	24846268 	addiu	a0,a0,25192
8060be94:	02358821 	addu	s1,s1,s5
8060be98:	02559021 	addu	s2,s2,s5
8060be9c:	1000ffd3 	b	8060bdec <readFlash+0x50>
8060bea0:	02158023 	subu	s0,s0,s5

8060bea4 <writeFlashBlock>:
8060bea4:	27bdffd0 	addiu	sp,sp,-48
8060bea8:	afb0001c 	sw	s0,28(sp)
8060beac:	3c108062 	lui	s0,0x8062
8060beb0:	261061d0 	addiu	s0,s0,25040
8060beb4:	afb20024 	sw	s2,36(sp)
8060beb8:	00a09025 	move	s2,a1
8060bebc:	8e05000c 	lw	a1,12(s0)
8060bec0:	afb30028 	sw	s3,40(sp)
8060bec4:	3c130001 	lui	s3,0x1
8060bec8:	afb10020 	sw	s1,32(sp)
8060becc:	3c06b400 	lui	a2,0xb400
8060bed0:	02652825 	or	a1,s3,a1
8060bed4:	00808825 	move	s1,a0
8060bed8:	afbf002c 	sw	ra,44(sp)
8060bedc:	0c001644 	jal	80005910 <osEPiWriteIo>
8060bee0:	02002025 	move	a0,s0
8060bee4:	3c028062 	lui	v0,0x8062
8060bee8:	24456250 	addiu	a1,v0,25168
8060beec:	24060001 	li	a2,1
8060bef0:	24020080 	li	v0,128
8060bef4:	02002025 	move	a0,s0
8060bef8:	acb20008 	sw	s2,8(a1)
8060befc:	aca0000c 	sw	zero,12(a1)
8060bf00:	0c001030 	jal	800040c0 <osEPiStartDma>
8060bf04:	aca20010 	sw	v0,16(a1)
8060bf08:	3c048062 	lui	a0,0x8062
8060bf0c:	24060001 	li	a2,1
8060bf10:	00002825 	move	a1,zero
8060bf14:	0c00080c 	jal	80002030 <osRecvMesg>
8060bf18:	24846268 	addiu	a0,a0,25192
8060bf1c:	3c028062 	lui	v0,0x8062
8060bf20:	8c4361c0 	lw	v1,25024(v0)
8060bf24:	24020001 	li	v0,1
8060bf28:	54620007 	bnel	v1,v0,8060bf48 <writeFlashBlock+0xa4>
8060bf2c:	8e02000c 	lw	v0,12(s0)
8060bf30:	8e05000c 	lw	a1,12(s0)
8060bf34:	3c06b400 	lui	a2,0xb400
8060bf38:	02652825 	or	a1,s3,a1
8060bf3c:	0c001644 	jal	80005910 <osEPiWriteIo>
8060bf40:	02002025 	move	a0,s0
8060bf44:	8e02000c 	lw	v0,12(s0)
8060bf48:	3c06a500 	lui	a2,0xa500
8060bf4c:	3c050001 	lui	a1,0x1
8060bf50:	02263025 	or	a2,s1,a2
8060bf54:	00a22825 	or	a1,a1,v0
8060bf58:	0c001644 	jal	80005910 <osEPiWriteIo>
8060bf5c:	02002025 	move	a0,s0
8060bf60:	8e05000c 	lw	a1,12(s0)
8060bf64:	27a60010 	addiu	a2,sp,16
8060bf68:	0c00158c 	jal	80005630 <osEPiReadIo>
8060bf6c:	02002025 	move	a0,s0
8060bf70:	8fa20010 	lw	v0,16(sp)
8060bf74:	30420001 	andi	v0,v0,0x1
8060bf78:	1440fffa 	bnez	v0,8060bf64 <writeFlashBlock+0xc0>
8060bf7c:	8e05000c 	lw	a1,12(s0)
8060bf80:	27a60010 	addiu	a2,sp,16
8060bf84:	0c00158c 	jal	80005630 <osEPiReadIo>
8060bf88:	02002025 	move	a0,s0
8060bf8c:	8e02000c 	lw	v0,12(s0)
8060bf90:	3c050001 	lui	a1,0x1
8060bf94:	02002025 	move	a0,s0
8060bf98:	3c06d200 	lui	a2,0xd200
8060bf9c:	0c001644 	jal	80005910 <osEPiWriteIo>
8060bfa0:	00a22825 	or	a1,a1,v0
8060bfa4:	8fbf002c 	lw	ra,44(sp)
8060bfa8:	8fb30028 	lw	s3,40(sp)
8060bfac:	8fb20024 	lw	s2,36(sp)
8060bfb0:	8fb10020 	lw	s1,32(sp)
8060bfb4:	8e05000c 	lw	a1,12(s0)
8060bfb8:	02002025 	move	a0,s0
8060bfbc:	8fb0001c 	lw	s0,28(sp)
8060bfc0:	00003025 	move	a2,zero
8060bfc4:	08001644 	j	80005910 <osEPiWriteIo>
8060bfc8:	27bd0030 	addiu	sp,sp,48

8060bfcc <writeFlashBlockMisaligned>:
8060bfcc:	27bdff58 	addiu	sp,sp,-168
8060bfd0:	afb300a0 	sw	s3,160(sp)
8060bfd4:	afb10098 	sw	s1,152(sp)
8060bfd8:	3093007f 	andi	s3,a0,0x7f
8060bfdc:	24110080 	li	s1,128
8060bfe0:	02338823 	subu	s1,s1,s3
8060bfe4:	00d1102b 	sltu	v0,a2,s1
8060bfe8:	afb2009c 	sw	s2,156(sp)
8060bfec:	afb00094 	sw	s0,148(sp)
8060bff0:	afbf00a4 	sw	ra,164(sp)
8060bff4:	00808025 	move	s0,a0
8060bff8:	10400002 	beqz	v0,8060c004 <writeFlashBlockMisaligned+0x38>
8060bffc:	00a09025 	move	s2,a1
8060c000:	00c08825 	move	s1,a2
8060c004:	2404ff80 	li	a0,-128
8060c008:	27a50010 	addiu	a1,sp,16
8060c00c:	02042024 	and	a0,s0,a0
8060c010:	0c182f67 	jal	8060bd9c <readFlash>
8060c014:	24060080 	li	a2,128
8060c018:	27a20010 	addiu	v0,sp,16
8060c01c:	02203025 	move	a2,s1
8060c020:	02402825 	move	a1,s2
8060c024:	0c18349e 	jal	8060d278 <memcpy>
8060c028:	00532021 	addu	a0,v0,s3
8060c02c:	27a40010 	addiu	a0,sp,16
8060c030:	0c000d10 	jal	80003440 <osWritebackDCache>
8060c034:	24050080 	li	a1,128
8060c038:	00102200 	sll	a0,s0,0x8
8060c03c:	27a50010 	addiu	a1,sp,16
8060c040:	0c182fa9 	jal	8060bea4 <writeFlashBlock>
8060c044:	000423c2 	srl	a0,a0,0xf
8060c048:	8fbf00a4 	lw	ra,164(sp)
8060c04c:	8fb300a0 	lw	s3,160(sp)
8060c050:	8fb2009c 	lw	s2,156(sp)
8060c054:	8fb00094 	lw	s0,148(sp)
8060c058:	02201025 	move	v0,s1
8060c05c:	8fb10098 	lw	s1,152(sp)
8060c060:	03e00008 	jr	ra
8060c064:	27bd00a8 	addiu	sp,sp,168

8060c068 <comboReadWriteFlash>:
8060c068:	27bdffb8 	addiu	sp,sp,-72
8060c06c:	3c038062 	lui	v1,0x8062
8060c070:	afbe0040 	sw	s8,64(sp)
8060c074:	8c7e61c4 	lw	s8,25028(v1)
8060c078:	afb7003c 	sw	s7,60(sp)
8060c07c:	afb3002c 	sw	s3,44(sp)
8060c080:	afb20028 	sw	s2,40(sp)
8060c084:	afb10024 	sw	s1,36(sp)
8060c088:	afbf0044 	sw	ra,68(sp)
8060c08c:	afb60038 	sw	s6,56(sp)
8060c090:	afb50034 	sw	s5,52(sp)
8060c094:	afb40030 	sw	s4,48(sp)
8060c098:	afb00020 	sw	s0,32(sp)
8060c09c:	00809025 	move	s2,a0
8060c0a0:	00a09825 	move	s3,a1
8060c0a4:	00c08825 	move	s1,a2
8060c0a8:	17c00050 	bnez	s8,8060c1ec <comboReadWriteFlash+0x184>
8060c0ac:	00e0b825 	move	s7,a3
8060c0b0:	3c168062 	lui	s6,0x8062
8060c0b4:	3c058062 	lui	a1,0x8062
8060c0b8:	24060001 	li	a2,1
8060c0bc:	26c46268 	addiu	a0,s6,25192
8060c0c0:	24a56248 	addiu	a1,a1,25160
8060c0c4:	3c108062 	lui	s0,0x8062
8060c0c8:	261061d0 	addiu	s0,s0,25040
8060c0cc:	0c001088 	jal	80004220 <osCreateMesgQueue>
8060c0d0:	afa30018 	sw	v1,24(sp)
8060c0d4:	3c02a800 	lui	v0,0xa800
8060c0d8:	ae02000c 	sw	v0,12(s0)
8060c0dc:	3c020805 	lui	v0,0x805
8060c0e0:	24420f02 	addiu	v0,v0,3842
8060c0e4:	ae020004 	sw	v0,4(s0)
8060c0e8:	3c048062 	lui	a0,0x8062
8060c0ec:	24020c01 	li	v0,3073
8060c0f0:	a6020008 	sh	v0,8(s0)
8060c0f4:	24050060 	li	a1,96
8060c0f8:	248461e4 	addiu	a0,a0,25060
8060c0fc:	0c000ba0 	jal	80002e80 <bzero>
8060c100:	ae000010 	sw	zero,16(s0)
8060c104:	8e05000c 	lw	a1,12(s0)
8060c108:	3c140001 	lui	s4,0x1
8060c10c:	02852825 	or	a1,s4,a1
8060c110:	3c06d200 	lui	a2,0xd200
8060c114:	0c001644 	jal	80005910 <osEPiWriteIo>
8060c118:	02002025 	move	a0,s0
8060c11c:	8e05000c 	lw	a1,12(s0)
8060c120:	27a60010 	addiu	a2,sp,16
8060c124:	0c00158c 	jal	80005630 <osEPiReadIo>
8060c128:	02002025 	move	a0,s0
8060c12c:	8e05000c 	lw	a1,12(s0)
8060c130:	3c06d200 	lui	a2,0xd200
8060c134:	02852825 	or	a1,s4,a1
8060c138:	0c001644 	jal	80005910 <osEPiWriteIo>
8060c13c:	02002025 	move	a0,s0
8060c140:	8e05000c 	lw	a1,12(s0)
8060c144:	27a60010 	addiu	a2,sp,16
8060c148:	0c00158c 	jal	80005630 <osEPiReadIo>
8060c14c:	02002025 	move	a0,s0
8060c150:	8e05000c 	lw	a1,12(s0)
8060c154:	3c158062 	lui	s5,0x8062
8060c158:	3c06e100 	lui	a2,0xe100
8060c15c:	02852825 	or	a1,s4,a1
8060c160:	26b561c8 	addiu	s5,s5,25032
8060c164:	02002025 	move	a0,s0
8060c168:	0c001644 	jal	80005910 <osEPiWriteIo>
8060c16c:	3c148062 	lui	s4,0x8062
8060c170:	26946250 	addiu	s4,s4,25168
8060c174:	24020008 	li	v0,8
8060c178:	26d66268 	addiu	s6,s6,25192
8060c17c:	24050008 	li	a1,8
8060c180:	02a02025 	move	a0,s5
8060c184:	ae820010 	sw	v0,16(s4)
8060c188:	a2800002 	sb	zero,2(s4)
8060c18c:	ae960004 	sw	s6,4(s4)
8060c190:	ae950008 	sw	s5,8(s4)
8060c194:	0c001094 	jal	80004250 <osInvalDCache>
8060c198:	ae80000c 	sw	zero,12(s4)
8060c19c:	00003025 	move	a2,zero
8060c1a0:	02802825 	move	a1,s4
8060c1a4:	0c001030 	jal	800040c0 <osEPiStartDma>
8060c1a8:	02002025 	move	a0,s0
8060c1ac:	00002825 	move	a1,zero
8060c1b0:	02c02025 	move	a0,s6
8060c1b4:	0c00080c 	jal	80002030 <osRecvMesg>
8060c1b8:	24060001 	li	a2,1
8060c1bc:	3c0400c2 	lui	a0,0xc2
8060c1c0:	8ea20004 	lw	v0,4(s5)
8060c1c4:	2485001e 	addiu	a1,a0,30
8060c1c8:	10450004 	beq	v0,a1,8060c1dc <comboReadWriteFlash+0x174>
8060c1cc:	8fa30018 	lw	v1,24(sp)
8060c1d0:	00441023 	subu	v0,v0,a0
8060c1d4:	2c420002 	sltiu	v0,v0,2
8060c1d8:	385e0001 	xori	s8,v0,0x1
8060c1dc:	3c028062 	lui	v0,0x8062
8060c1e0:	ac5e61c0 	sw	s8,25024(v0)
8060c1e4:	24020001 	li	v0,1
8060c1e8:	ac6261c4 	sw	v0,25028(v1)
8060c1ec:	16e00010 	bnez	s7,8060c230 <comboReadWriteFlash+0x1c8>
8060c1f0:	02202825 	move	a1,s1
8060c1f4:	8fbf0044 	lw	ra,68(sp)
8060c1f8:	8fbe0040 	lw	s8,64(sp)
8060c1fc:	8fb7003c 	lw	s7,60(sp)
8060c200:	8fb60038 	lw	s6,56(sp)
8060c204:	8fb50034 	lw	s5,52(sp)
8060c208:	8fb40030 	lw	s4,48(sp)
8060c20c:	8fb00020 	lw	s0,32(sp)
8060c210:	02203025 	move	a2,s1
8060c214:	02602825 	move	a1,s3
8060c218:	8fb10024 	lw	s1,36(sp)
8060c21c:	8fb3002c 	lw	s3,44(sp)
8060c220:	02402025 	move	a0,s2
8060c224:	8fb20028 	lw	s2,40(sp)
8060c228:	08182f67 	j	8060bd9c <readFlash>
8060c22c:	27bd0048 	addiu	sp,sp,72
8060c230:	0c000d10 	jal	80003440 <osWritebackDCache>
8060c234:	02602025 	move	a0,s3
8060c238:	12200026 	beqz	s1,8060c2d4 <comboReadWriteFlash+0x26c>
8060c23c:	8fbf0044 	lw	ra,68(sp)
8060c240:	3242007f 	andi	v0,s2,0x7f
8060c244:	50400009 	beqzl	v0,8060c26c <comboReadWriteFlash+0x204>
8060c248:	2414ff80 	li	s4,-128
8060c24c:	02203025 	move	a2,s1
8060c250:	02602825 	move	a1,s3
8060c254:	0c182ff3 	jal	8060bfcc <writeFlashBlockMisaligned>
8060c258:	02402025 	move	a0,s2
8060c25c:	02228823 	subu	s1,s1,v0
8060c260:	02429021 	addu	s2,s2,v0
8060c264:	02629821 	addu	s3,s3,v0
8060c268:	2414ff80 	li	s4,-128
8060c26c:	3c150001 	lui	s5,0x1
8060c270:	0234a024 	and	s4,s1,s4
8060c274:	00008025 	move	s0,zero
8060c278:	10000005 	b	8060c290 <comboReadWriteFlash+0x228>
8060c27c:	36b5ffff 	ori	s5,s5,0xffff
8060c280:	000421c2 	srl	a0,a0,0x7
8060c284:	0c182fa9 	jal	8060bea4 <writeFlashBlock>
8060c288:	00952024 	and	a0,a0,s5
8060c28c:	26100080 	addiu	s0,s0,128
8060c290:	02702821 	addu	a1,s3,s0
8060c294:	1690fffa 	bne	s4,s0,8060c280 <comboReadWriteFlash+0x218>
8060c298:	02502021 	addu	a0,s2,s0
8060c29c:	3226007f 	andi	a2,s1,0x7f
8060c2a0:	10c0000c 	beqz	a2,8060c2d4 <comboReadWriteFlash+0x26c>
8060c2a4:	8fbf0044 	lw	ra,68(sp)
8060c2a8:	8fbe0040 	lw	s8,64(sp)
8060c2ac:	8fb7003c 	lw	s7,60(sp)
8060c2b0:	8fb60038 	lw	s6,56(sp)
8060c2b4:	8fb50034 	lw	s5,52(sp)
8060c2b8:	8fb40030 	lw	s4,48(sp)
8060c2bc:	8fb3002c 	lw	s3,44(sp)
8060c2c0:	8fb20028 	lw	s2,40(sp)
8060c2c4:	8fb10024 	lw	s1,36(sp)
8060c2c8:	8fb00020 	lw	s0,32(sp)
8060c2cc:	08182ff3 	j	8060bfcc <writeFlashBlockMisaligned>
8060c2d0:	27bd0048 	addiu	sp,sp,72
8060c2d4:	8fbe0040 	lw	s8,64(sp)
8060c2d8:	8fb7003c 	lw	s7,60(sp)
8060c2dc:	8fb60038 	lw	s6,56(sp)
8060c2e0:	8fb50034 	lw	s5,52(sp)
8060c2e4:	8fb40030 	lw	s4,48(sp)
8060c2e8:	8fb3002c 	lw	s3,44(sp)
8060c2ec:	8fb20028 	lw	s2,40(sp)
8060c2f0:	8fb10024 	lw	s1,36(sp)
8060c2f4:	8fb00020 	lw	s0,32(sp)
8060c2f8:	03e00008 	jr	ra
8060c2fc:	27bd0048 	addiu	sp,sp,72

8060c300 <comboLoadObjectGi>:
8060c300:	30a2efff 	andi	v0,a1,0xefff
8060c304:	10400019 	beqz	v0,8060c36c <comboLoadObjectGi+0x6c>
8060c308:	00000000 	nop
8060c30c:	27bdffe0 	addiu	sp,sp,-32
8060c310:	afb20018 	sw	s2,24(sp)
8060c314:	24920184 	addiu	s2,a0,388
8060c318:	afb10014 	sw	s1,20(sp)
8060c31c:	afb00010 	sw	s0,16(sp)
8060c320:	00a08825 	move	s1,a1
8060c324:	00808025 	move	s0,a0
8060c328:	24060001 	li	a2,1
8060c32c:	2485019c 	addiu	a1,a0,412
8060c330:	afbf001c 	sw	ra,28(sp)
8060c334:	0c001088 	jal	80004220 <osCreateMesgQueue>
8060c338:	02402025 	move	a0,s2
8060c33c:	8e0401a0 	lw	a0,416(s0)
8060c340:	0c182615 	jal	80609854 <comboLoadObject>
8060c344:	02202825 	move	a1,s1
8060c348:	8fbf001c 	lw	ra,28(sp)
8060c34c:	8fb10014 	lw	s1,20(sp)
8060c350:	8fb00010 	lw	s0,16(sp)
8060c354:	02402025 	move	a0,s2
8060c358:	8fb20018 	lw	s2,24(sp)
8060c35c:	00003025 	move	a2,zero
8060c360:	00002825 	move	a1,zero
8060c364:	08000788 	j	80001e20 <osSendMesg>
8060c368:	27bd0020 	addiu	sp,sp,32
8060c36c:	03e00008 	jr	ra
8060c370:	00000000 	nop

8060c374 <popcount>:
8060c374:	3c025555 	lui	v0,0x5555
8060c378:	24425555 	addiu	v0,v0,21845
8060c37c:	00821824 	and	v1,a0,v0
8060c380:	00042042 	srl	a0,a0,0x1
8060c384:	00822024 	and	a0,a0,v0
8060c388:	00641821 	addu	v1,v1,a0
8060c38c:	3c043333 	lui	a0,0x3333
8060c390:	24843333 	addiu	a0,a0,13107
8060c394:	00641024 	and	v0,v1,a0
8060c398:	00031882 	srl	v1,v1,0x2
8060c39c:	00641824 	and	v1,v1,a0
8060c3a0:	3c040f0f 	lui	a0,0xf0f
8060c3a4:	24840f0f 	addiu	a0,a0,3855
8060c3a8:	00431021 	addu	v0,v0,v1
8060c3ac:	00441824 	and	v1,v0,a0
8060c3b0:	00021102 	srl	v0,v0,0x4
8060c3b4:	00441024 	and	v0,v0,a0
8060c3b8:	3c0400ff 	lui	a0,0xff
8060c3bc:	248400ff 	addiu	a0,a0,255
8060c3c0:	00621821 	addu	v1,v1,v0
8060c3c4:	00641024 	and	v0,v1,a0
8060c3c8:	00031a02 	srl	v1,v1,0x8
8060c3cc:	00641824 	and	v1,v1,a0
8060c3d0:	00431821 	addu	v1,v0,v1
8060c3d4:	3062ffff 	andi	v0,v1,0xffff
8060c3d8:	00031c02 	srl	v1,v1,0x10
8060c3dc:	03e00008 	jr	ra
8060c3e0:	00431021 	addu	v0,v0,v1

8060c3e4 <actorAddr>:
8060c3e4:	3c03800f 	lui	v1,0x800f
8060c3e8:	00042140 	sll	a0,a0,0x5
8060c3ec:	24638530 	addiu	v1,v1,-31440
8060c3f0:	00641821 	addu	v1,v1,a0
8060c3f4:	8c620008 	lw	v0,8(v1)
8060c3f8:	00a22823 	subu	a1,a1,v0
8060c3fc:	8c620010 	lw	v0,16(v1)
8060c400:	03e00008 	jr	ra
8060c404:	00451021 	addu	v0,v0,a1

8060c408 <comboInvalICache>:
8060c408:	2403ffe0 	li	v1,-32
8060c40c:	24a2001f 	addiu	v0,a1,31
8060c410:	00831824 	and	v1,a0,v1
8060c414:	00441021 	addu	v0,v0,a0
8060c418:	00431023 	subu	v0,v0,v1
8060c41c:	00021142 	srl	v0,v0,0x5
8060c420:	00021140 	sll	v0,v0,0x5
8060c424:	00431021 	addu	v0,v0,v1
8060c428:	14620003 	bne	v1,v0,8060c438 <comboInvalICache+0x30>
8060c42c:	00000000 	nop
8060c430:	03e00008 	jr	ra
8060c434:	00000000 	nop
8060c438:	bc700000 	cache	0x10,0(v1)
8060c43c:	1000fffa 	b	8060c428 <comboInvalICache+0x20>
8060c440:	24630020 	addiu	v1,v1,32

8060c444 <comboInvalDCache>:
8060c444:	2403fff0 	li	v1,-16
8060c448:	24a2000f 	addiu	v0,a1,15
8060c44c:	00831824 	and	v1,a0,v1
8060c450:	00441021 	addu	v0,v0,a0
8060c454:	00431023 	subu	v0,v0,v1
8060c458:	00021102 	srl	v0,v0,0x4
8060c45c:	00021100 	sll	v0,v0,0x4
8060c460:	00431021 	addu	v0,v0,v1
8060c464:	14620003 	bne	v1,v0,8060c474 <comboInvalDCache+0x30>
8060c468:	00000000 	nop
8060c46c:	03e00008 	jr	ra
8060c470:	00000000 	nop
8060c474:	bc710000 	cache	0x11,0(v1)
8060c478:	1000fffa 	b	8060c464 <comboInvalDCache+0x20>
8060c47c:	24630010 	addiu	v1,v1,16

8060c480 <comboInitOverride>:
8060c480:	3c058062 	lui	a1,0x8062
8060c484:	3c0413fe 	lui	a0,0x13fe
8060c488:	24060800 	li	a2,2048
8060c48c:	24a56280 	addiu	a1,a1,25216
8060c490:	08000217 	j	8000085c <DMARomToRam>
8060c494:	24841000 	addiu	a0,a0,4096

8060c498 <comboOverrideEx>:
8060c498:	27bdffe0 	addiu	sp,sp,-32
8060c49c:	2c820005 	sltiu	v0,a0,5
8060c4a0:	afb10018 	sw	s1,24(sp)
8060c4a4:	afb00014 	sw	s0,20(sp)
8060c4a8:	afbf001c 	sw	ra,28(sp)
8060c4ac:	8fb00030 	lw	s0,48(sp)
8060c4b0:	10400009 	beqz	v0,8060c4d8 <comboOverrideEx+0x40>
8060c4b4:	00e08825 	move	s1,a3
8060c4b8:	3c028061 	lui	v0,0x8061
8060c4bc:	00042080 	sll	a0,a0,0x2
8060c4c0:	24425c34 	addiu	v0,v0,23604
8060c4c4:	00441021 	addu	v0,v0,a0
8060c4c8:	8c420000 	lw	v0,0(v0)
8060c4cc:	00400008 	jr	v0
8060c4d0:	00000000 	nop
8060c4d4:	240500f0 	li	a1,240
8060c4d8:	00052a00 	sll	a1,a1,0x8
8060c4dc:	3c038062 	lui	v1,0x8062
8060c4e0:	00c53025 	or	a2,a2,a1
8060c4e4:	24636280 	addiu	v1,v1,25216
8060c4e8:	30c6ffff 	andi	a2,a2,0xffff
8060c4ec:	00001025 	move	v0,zero
8060c4f0:	00602025 	move	a0,v1
8060c4f4:	3408ffff 	li	t0,0xffff
8060c4f8:	24070200 	li	a3,512
8060c4fc:	94650000 	lhu	a1,0(v1)
8060c500:	50a80028 	beql	a1,t0,8060c5a4 <comboOverrideEx+0x10c>
8060c504:	001113c3 	sra	v0,s1,0xf
8060c508:	54c50023 	bnel	a2,a1,8060c598 <comboOverrideEx+0x100>
8060c50c:	24420001 	addiu	v0,v0,1
8060c510:	00021080 	sll	v0,v0,0x2
8060c514:	00822021 	addu	a0,a0,v0
8060c518:	94840002 	lhu	a0,2(a0)
8060c51c:	32020001 	andi	v0,s0,0x1
8060c520:	10400004 	beqz	v0,8060c534 <comboOverrideEx+0x9c>
8060c524:	32100002 	andi	s0,s0,0x2
8060c528:	0c182110 	jal	80608440 <comboProgressive>
8060c52c:	00000000 	nop
8060c530:	3044ffff 	andi	a0,v0,0xffff
8060c534:	12000005 	beqz	s0,8060c54c <comboOverrideEx+0xb4>
8060c538:	00000000 	nop
8060c53c:	00042400 	sll	a0,a0,0x10
8060c540:	0c18211d 	jal	80608474 <comboDowngrade>
8060c544:	00042403 	sra	a0,a0,0x10
8060c548:	3044ffff 	andi	a0,v0,0xffff
8060c54c:	5a200001 	blezl	s1,8060c554 <comboOverrideEx+0xbc>
8060c550:	00042023 	negu	a0,a0
8060c554:	8fbf001c 	lw	ra,28(sp)
8060c558:	00041400 	sll	v0,a0,0x10
8060c55c:	8fb10018 	lw	s1,24(sp)
8060c560:	8fb00014 	lw	s0,20(sp)
8060c564:	00021403 	sra	v0,v0,0x10
8060c568:	03e00008 	jr	ra
8060c56c:	27bd0020 	addiu	sp,sp,32
8060c570:	1000ffd9 	b	8060c4d8 <comboOverrideEx+0x40>
8060c574:	30c6003f 	andi	a2,a2,0x3f
8060c578:	30c6003f 	andi	a2,a2,0x3f
8060c57c:	1000ffd6 	b	8060c4d8 <comboOverrideEx+0x40>
8060c580:	34c60040 	ori	a2,a2,0x40
8060c584:	30c6003f 	andi	a2,a2,0x3f
8060c588:	1000ffd3 	b	8060c4d8 <comboOverrideEx+0x40>
8060c58c:	34c60080 	ori	a2,a2,0x80
8060c590:	1000ffd1 	b	8060c4d8 <comboOverrideEx+0x40>
8060c594:	240500f1 	li	a1,241
8060c598:	1447ffd8 	bne	v0,a3,8060c4fc <comboOverrideEx+0x64>
8060c59c:	24630004 	addiu	v1,v1,4
8060c5a0:	001113c3 	sra	v0,s1,0xf
8060c5a4:	02222026 	xor	a0,s1,v0
8060c5a8:	00822023 	subu	a0,a0,v0
8060c5ac:	1000ffdb 	b	8060c51c <comboOverrideEx+0x84>
8060c5b0:	3084ffff 	andi	a0,a0,0xffff

8060c5b4 <comboOverride>:
8060c5b4:	27bdffe0 	addiu	sp,sp,-32
8060c5b8:	24020003 	li	v0,3
8060c5bc:	afa20010 	sw	v0,16(sp)
8060c5c0:	afbf001c 	sw	ra,28(sp)
8060c5c4:	0c183126 	jal	8060c498 <comboOverrideEx>
8060c5c8:	00000000 	nop
8060c5cc:	8fbf001c 	lw	ra,28(sp)
8060c5d0:	03e00008 	jr	ra
8060c5d4:	27bd0020 	addiu	sp,sp,32

8060c5d8 <canUseDpadItem>:
8060c5d8:	240300ff 	li	v1,255
8060c5dc:	10a30019 	beq	a1,v1,8060c644 <canUseDpadItem+0x6c>
8060c5e0:	00001025 	move	v0,zero
8060c5e4:	30a5ffff 	andi	a1,a1,0xffff
8060c5e8:	24a3ffbb 	addiu	v1,a1,-69
8060c5ec:	24a5fff9 	addiu	a1,a1,-7
8060c5f0:	2ca50002 	sltiu	a1,a1,2
8060c5f4:	10a00006 	beqz	a1,8060c610 <canUseDpadItem+0x38>
8060c5f8:	3063ffff 	andi	v1,v1,0xffff
8060c5fc:	3c020001 	lui	v0,0x1
8060c600:	00821021 	addu	v0,a0,v0
8060c604:	90450758 	lbu	a1,1880(v0)
8060c608:	14a0000e 	bnez	a1,8060c644 <canUseDpadItem+0x6c>
8060c60c:	00001025 	move	v0,zero
8060c610:	2c630002 	sltiu	v1,v1,2
8060c614:	50600004 	beqzl	v1,8060c628 <canUseDpadItem+0x50>
8060c618:	30c20001 	andi	v0,a2,0x1
8060c61c:	00063042 	srl	a2,a2,0x1
8060c620:	03e00008 	jr	ra
8060c624:	30c20001 	andi	v0,a2,0x1
8060c628:	10400006 	beqz	v0,8060c644 <canUseDpadItem+0x6c>
8060c62c:	00000000 	nop
8060c630:	8c821c44 	lw	v0,7236(a0)
8060c634:	8c42066c 	lw	v0,1644(v0)
8060c638:	000216c2 	srl	v0,v0,0x1b
8060c63c:	38420001 	xori	v0,v0,0x1
8060c640:	30420001 	andi	v0,v0,0x1
8060c644:	03e00008 	jr	ra
8060c648:	00000000 	nop

8060c64c <dpadUseItem>:
8060c64c:	3c028061 	lui	v0,0x8061
8060c650:	27bdffe0 	addiu	sp,sp,-32
8060c654:	2442d6fc 	addiu	v0,v0,-10500
8060c658:	00452821 	addu	a1,v0,a1
8060c65c:	afbf001c 	sw	ra,28(sp)
8060c660:	afb10018 	sw	s1,24(sp)
8060c664:	afb00014 	sw	s0,20(sp)
8060c668:	90a70000 	lbu	a3,0(a1)
8060c66c:	0c183176 	jal	8060c5d8 <canUseDpadItem>
8060c670:	00e02825 	move	a1,a3
8060c674:	10400029 	beqz	v0,8060c71c <dpadUseItem+0xd0>
8060c678:	00e08825 	move	s1,a3
8060c67c:	24e7ffbb 	addiu	a3,a3,-69
8060c680:	2ce70002 	sltiu	a3,a3,2
8060c684:	10e00019 	beqz	a3,8060c6ec <dpadUseItem+0xa0>
8060c688:	00808025 	move	s0,a0
8060c68c:	24030046 	li	v1,70
8060c690:	12230002 	beq	s1,v1,8060c69c <dpadUseItem+0x50>
8060c694:	24020003 	li	v0,3
8060c698:	24020002 	li	v0,2
8060c69c:	3c038012 	lui	v1,0x8012
8060c6a0:	2463a5d0 	addiu	v1,v1,-23088
8060c6a4:	8c640070 	lw	a0,112(v1)
8060c6a8:	00042702 	srl	a0,a0,0x1c
8060c6ac:	50820001 	beql	a0,v0,8060c6b4 <dpadUseItem+0x68>
8060c6b0:	24020001 	li	v0,1
8060c6b4:	94640070 	lhu	a0,112(v1)
8060c6b8:	00021300 	sll	v0,v0,0xc
8060c6bc:	30840fff 	andi	a0,a0,0xfff
8060c6c0:	00821025 	or	v0,a0,v0
8060c6c4:	a4620070 	sh	v0,112(v1)
8060c6c8:	8e051c44 	lw	a1,7236(s0)
8060c6cc:	0c01e5d9 	jal	80079764 <UpdateEquipment>
8060c6d0:	02002025 	move	a0,s0
8060c6d4:	8fbf001c 	lw	ra,28(sp)
8060c6d8:	8fb10018 	lw	s1,24(sp)
8060c6dc:	8fb00014 	lw	s0,20(sp)
8060c6e0:	24040835 	li	a0,2101
8060c6e4:	080191bc 	j	800646f0 <PlaySound>
8060c6e8:	27bd0020 	addiu	sp,sp,32
8060c6ec:	3c048083 	lui	a0,0x8083
8060c6f0:	0c02676f 	jal	80099dbc <OverlayAddr>
8060c6f4:	24844000 	addiu	a0,a0,16384
8060c6f8:	8e051c44 	lw	a1,7236(s0)
8060c6fc:	8fbf001c 	lw	ra,28(sp)
8060c700:	02203025 	move	a2,s1
8060c704:	02002025 	move	a0,s0
8060c708:	8fb10018 	lw	s1,24(sp)
8060c70c:	8fb00014 	lw	s0,20(sp)
8060c710:	0040c825 	move	t9,v0
8060c714:	03200008 	jr	t9
8060c718:	27bd0020 	addiu	sp,sp,32
8060c71c:	8fbf001c 	lw	ra,28(sp)
8060c720:	8fb10018 	lw	s1,24(sp)
8060c724:	8fb00014 	lw	s0,20(sp)
8060c728:	03e00008 	jr	ra
8060c72c:	27bd0020 	addiu	sp,sp,32

8060c730 <comboDpadDraw>:
8060c730:	27bdffa0 	addiu	sp,sp,-96
8060c734:	3c028012 	lui	v0,0x8012
8060c738:	afb00028 	sw	s0,40(sp)
8060c73c:	8c50b92c 	lw	s0,-18132(v0)
8060c740:	afbf004c 	sw	ra,76(sp)
8060c744:	afbe0048 	sw	s8,72(sp)
8060c748:	afb70044 	sw	s7,68(sp)
8060c74c:	afb60040 	sw	s6,64(sp)
8060c750:	afb5003c 	sw	s5,60(sp)
8060c754:	afb40038 	sw	s4,56(sp)
8060c758:	afb30034 	sw	s3,52(sp)
8060c75c:	afb20030 	sw	s2,48(sp)
8060c760:	afb1002c 	sw	s1,44(sp)
8060c764:	f7b60058 	sdc1	$f22,88(sp)
8060c768:	160000a4 	bnez	s0,8060c9fc <comboDpadDraw+0x2cc>
8060c76c:	f7b40050 	sdc1	$f20,80(sp)
8060c770:	3c148062 	lui	s4,0x8062
8060c774:	8e826a80 	lw	v0,27264(s4)
8060c778:	14400004 	bnez	v0,8060c78c <comboDpadDraw+0x5c>
8060c77c:	00808825 	move	s1,a0
8060c780:	0c033688 	jal	800cda20 <malloc>
8060c784:	24044000 	li	a0,16384
8060c788:	ae826a80 	sw	v0,27264(s4)
8060c78c:	3c128061 	lui	s2,0x8061
8060c790:	2652d6fc 	addiu	s2,s2,-10500
8060c794:	3c138061 	lui	s3,0x8061
8060c798:	3c168061 	lui	s6,0x8061
8060c79c:	2673d6f8 	addiu	s3,s3,-10504
8060c7a0:	0000a825 	move	s5,zero
8060c7a4:	afb20024 	sw	s2,36(sp)
8060c7a8:	241700ff 	li	s7,255
8060c7ac:	26d65dd0 	addiu	s6,s6,24016
8060c7b0:	3c031000 	lui	v1,0x1000
8060c7b4:	241e4000 	li	s8,16384
8060c7b8:	92440000 	lbu	a0,0(s2)
8060c7bc:	92650000 	lbu	a1,0(s3)
8060c7c0:	50a4000f 	beql	a1,a0,8060c800 <comboDpadDraw+0xd0>
8060c7c4:	26b51000 	addiu	s5,s5,4096
8060c7c8:	5097000d 	beql	a0,s7,8060c800 <comboDpadDraw+0xd0>
8060c7cc:	26b51000 	addiu	s5,s5,4096
8060c7d0:	8ec60088 	lw	a2,136(s6)
8060c7d4:	8e856a80 	lw	a1,27264(s4)
8060c7d8:	00042300 	sll	a0,a0,0xc
8060c7dc:	00862021 	addu	a0,a0,a2
8060c7e0:	00832025 	or	a0,a0,v1
8060c7e4:	24061000 	li	a2,4096
8060c7e8:	0c000217 	jal	8000085c <DMARomToRam>
8060c7ec:	00b52821 	addu	a1,a1,s5
8060c7f0:	92440000 	lbu	a0,0(s2)
8060c7f4:	3c031000 	lui	v1,0x1000
8060c7f8:	a2640000 	sb	a0,0(s3)
8060c7fc:	26b51000 	addiu	s5,s5,4096
8060c800:	26520001 	addiu	s2,s2,1
8060c804:	16beffec 	bne	s5,s8,8060c7b8 <comboDpadDraw+0x88>
8060c808:	26730001 	addiu	s3,s3,1
8060c80c:	3c020001 	lui	v0,0x1
8060c810:	02221021 	addu	v0,s1,v0
8060c814:	8e370000 	lw	s7,0(s1)
8060c818:	90420741 	lbu	v0,1857(v0)
8060c81c:	3c03e700 	lui	v1,0xe700
8060c820:	afa20020 	sw	v0,32(sp)
8060c824:	8ee202b0 	lw	v0,688(s7)
8060c828:	2412ff00 	li	s2,-256
8060c82c:	ac430000 	sw	v1,0(v0)
8060c830:	3c03db06 	lui	v1,0xdb06
8060c834:	24640018 	addiu	a0,v1,24
8060c838:	2463001c 	addiu	v1,v1,28
8060c83c:	ac440008 	sw	a0,8(v0)
8060c840:	ac430010 	sw	v1,16(v0)
8060c844:	3c048062 	lui	a0,0x8062
8060c848:	8e836a80 	lw	v1,27264(s4)
8060c84c:	8c845ed8 	lw	a0,24280(a0)
8060c850:	ac430014 	sw	v1,20(v0)
8060c854:	24430020 	addiu	v1,v0,32
8060c858:	ac44000c 	sw	a0,12(v0)
8060c85c:	ac400004 	sw	zero,4(v0)
8060c860:	aee302b0 	sw	v1,688(s7)
8060c864:	3c03fa00 	lui	v1,0xfa00
8060c868:	24630080 	addiu	v1,v1,128
8060c86c:	ac430018 	sw	v1,24(v0)
8060c870:	8fa30020 	lw	v1,32(sp)
8060c874:	26f302b0 	addiu	s3,s7,688
8060c878:	00729025 	or	s2,v1,s2
8060c87c:	ac52001c 	sw	s2,28(v0)
8060c880:	02602025 	move	a0,s3
8060c884:	0c18180b 	jal	8060602c <comboDrawInit2D>
8060c888:	3c148061 	lui	s4,0x8061
8060c88c:	c680dfe8 	lwc1	$f0,-8216(s4)
8060c890:	3c158061 	lui	s5,0x8061
8060c894:	e7a00018 	swc1	$f0,24(sp)
8060c898:	c6a05c68 	lwc1	$f0,23656(s5)
8060c89c:	3c168061 	lui	s6,0x8061
8060c8a0:	e7a00014 	swc1	$f0,20(sp)
8060c8a4:	c6c05c6c 	lwc1	$f0,23660(s6)
8060c8a8:	24070020 	li	a3,32
8060c8ac:	e7a00010 	swc1	$f0,16(sp)
8060c8b0:	24060020 	li	a2,32
8060c8b4:	3c050600 	lui	a1,0x600
8060c8b8:	0c18184b 	jal	8060612c <comboDrawBlit2D>
8060c8bc:	02602025 	move	a0,s3
8060c8c0:	3c028061 	lui	v0,0x8061
8060c8c4:	c4565c70 	lwc1	$f22,23664(v0)
8060c8c8:	3c028061 	lui	v0,0x8061
8060c8cc:	c454d9ec 	lwc1	$f20,-9748(v0)
8060c8d0:	3c1e8061 	lui	s8,0x8061
8060c8d4:	8fa20024 	lw	v0,36(sp)
8060c8d8:	00501021 	addu	v0,v0,s0
8060c8dc:	90450000 	lbu	a1,0(v0)
8060c8e0:	240200ff 	li	v0,255
8060c8e4:	10a20041 	beq	a1,v0,8060c9ec <comboDpadDraw+0x2bc>
8060c8e8:	02202025 	move	a0,s1
8060c8ec:	0c183176 	jal	8060c5d8 <canUseDpadItem>
8060c8f0:	24060003 	li	a2,3
8060c8f4:	8ee402b0 	lw	a0,688(s7)
8060c8f8:	02401825 	move	v1,s2
8060c8fc:	14400012 	bnez	v0,8060c948 <comboDpadDraw+0x218>
8060c900:	24850008 	addiu	a1,a0,8
8060c904:	c7a00020 	lwc1	$f0,32(sp)
8060c908:	c682dfe8 	lwc1	$f2,-8216(s4)
8060c90c:	46800020 	cvt.s.w	$f0,$f0
8060c910:	46020002 	mul.s	$f0,$f0,$f2
8060c914:	00000000 	nop
8060c918:	3c028061 	lui	v0,0x8061
8060c91c:	c442d95c 	lwc1	$f2,-9892(v0)
8060c920:	4600103e 	c.le.s	$f2,$f0
8060c924:	00000000 	nop
8060c928:	45030042 	bc1tl	8060ca34 <comboDpadDraw+0x304>
8060c92c:	46020001 	sub.s	$f0,$f0,$f2
8060c930:	4600000d 	trunc.w.s	$f0,$f0
8060c934:	44020000 	mfc1	v0,$f0
8060c938:	3c038080 	lui	v1,0x8080
8060c93c:	304200ff 	andi	v0,v0,0xff
8060c940:	34638000 	ori	v1,v1,0x8000
8060c944:	00431825 	or	v1,v0,v1
8060c948:	3c02fa00 	lui	v0,0xfa00
8060c94c:	24420080 	addiu	v0,v0,128
8060c950:	aee502b0 	sw	a1,688(s7)
8060c954:	ac820000 	sw	v0,0(a0)
8060c958:	ac830004 	sw	v1,4(a0)
8060c95c:	27c25c48 	addiu	v0,s8,23624
8060c960:	00101880 	sll	v1,s0,0x2
8060c964:	e7b60018 	swc1	$f22,24(sp)
8060c968:	00431021 	addu	v0,v0,v1
8060c96c:	8c420000 	lw	v0,0(v0)
8060c970:	c6a25c68 	lwc1	$f2,23656(s5)
8060c974:	00021140 	sll	v0,v0,0x5
8060c978:	44820000 	mtc1	v0,$f0
8060c97c:	3c028061 	lui	v0,0x8061
8060c980:	46800020 	cvt.s.w	$f0,$f0
8060c984:	46160002 	mul.s	$f0,$f0,$f22
8060c988:	00000000 	nop
8060c98c:	24425c58 	addiu	v0,v0,23640
8060c990:	00431021 	addu	v0,v0,v1
8060c994:	00102b00 	sll	a1,s0,0xc
8060c998:	24070020 	li	a3,32
8060c99c:	46020000 	add.s	$f0,$f0,$f2
8060c9a0:	c6c25c6c 	lwc1	$f2,23660(s6)
8060c9a4:	24060020 	li	a2,32
8060c9a8:	46140000 	add.s	$f0,$f0,$f20
8060c9ac:	02602025 	move	a0,s3
8060c9b0:	e7a00014 	swc1	$f0,20(sp)
8060c9b4:	8c420000 	lw	v0,0(v0)
8060c9b8:	00021140 	sll	v0,v0,0x5
8060c9bc:	44820000 	mtc1	v0,$f0
8060c9c0:	3c028061 	lui	v0,0x8061
8060c9c4:	46800020 	cvt.s.w	$f0,$f0
8060c9c8:	46160002 	mul.s	$f0,$f0,$f22
8060c9cc:	00000000 	nop
8060c9d0:	46020000 	add.s	$f0,$f0,$f2
8060c9d4:	c4425c74 	lwc1	$f2,23668(v0)
8060c9d8:	3c020700 	lui	v0,0x700
8060c9dc:	46020000 	add.s	$f0,$f0,$f2
8060c9e0:	00a22825 	or	a1,a1,v0
8060c9e4:	0c18184b 	jal	8060612c <comboDrawBlit2D>
8060c9e8:	e7a00010 	swc1	$f0,16(sp)
8060c9ec:	26100001 	addiu	s0,s0,1
8060c9f0:	24020004 	li	v0,4
8060c9f4:	1602ffb8 	bne	s0,v0,8060c8d8 <comboDpadDraw+0x1a8>
8060c9f8:	8fa20024 	lw	v0,36(sp)
8060c9fc:	8fbf004c 	lw	ra,76(sp)
8060ca00:	8fbe0048 	lw	s8,72(sp)
8060ca04:	8fb70044 	lw	s7,68(sp)
8060ca08:	8fb60040 	lw	s6,64(sp)
8060ca0c:	8fb5003c 	lw	s5,60(sp)
8060ca10:	8fb40038 	lw	s4,56(sp)
8060ca14:	8fb30034 	lw	s3,52(sp)
8060ca18:	8fb20030 	lw	s2,48(sp)
8060ca1c:	8fb1002c 	lw	s1,44(sp)
8060ca20:	8fb00028 	lw	s0,40(sp)
8060ca24:	d7b60058 	ldc1	$f22,88(sp)
8060ca28:	d7b40050 	ldc1	$f20,80(sp)
8060ca2c:	03e00008 	jr	ra
8060ca30:	27bd0060 	addiu	sp,sp,96
8060ca34:	3c038000 	lui	v1,0x8000
8060ca38:	4600000d 	trunc.w.s	$f0,$f0
8060ca3c:	44020000 	mfc1	v0,$f0
8060ca40:	1000ffbd 	b	8060c938 <comboDpadDraw+0x208>
8060ca44:	00431025 	or	v0,v0,v1

8060ca48 <comboDpadUpdate>:
8060ca48:	3c028012 	lui	v0,0x8012
8060ca4c:	2442a5d0 	addiu	v0,v0,-23088
8060ca50:	9044007b 	lbu	a0,123(v0)
8060ca54:	3c038061 	lui	v1,0x8061
8060ca58:	8c450004 	lw	a1,4(v0)
8060ca5c:	a064d6fc 	sb	a0,-10500(v1)
8060ca60:	24040001 	li	a0,1
8060ca64:	10a4000a 	beq	a1,a0,8060ca90 <comboDpadUpdate+0x48>
8060ca68:	240500ff 	li	a1,255
8060ca6c:	8c42009c 	lw	v0,156(v0)
8060ca70:	00021702 	srl	v0,v0,0x1c
8060ca74:	30440002 	andi	a0,v0,0x2
8060ca78:	14800002 	bnez	a0,8060ca84 <comboDpadUpdate+0x3c>
8060ca7c:	24050045 	li	a1,69
8060ca80:	240500ff 	li	a1,255
8060ca84:	30420004 	andi	v0,v0,0x4
8060ca88:	14400002 	bnez	v0,8060ca94 <comboDpadUpdate+0x4c>
8060ca8c:	24040046 	li	a0,70
8060ca90:	240400ff 	li	a0,255
8060ca94:	2462d6fc 	addiu	v0,v1,-10500
8060ca98:	a0450002 	sb	a1,2(v0)
8060ca9c:	03e00008 	jr	ra
8060caa0:	a0440003 	sb	a0,3(v0)

8060caa4 <comboDpadUse>:
8060caa4:	3c028012 	lui	v0,0x8012
8060caa8:	8c42b92c 	lw	v0,-18132(v0)
8060caac:	14400021 	bnez	v0,8060cb34 <comboDpadUse+0x90>
8060cab0:	00a03025 	move	a2,a1
8060cab4:	8c851c44 	lw	a1,7236(a0)
8060cab8:	3c073080 	lui	a3,0x3080
8060cabc:	8ca5066c 	lw	a1,1644(a1)
8060cac0:	24e70483 	addiu	a3,a3,1155
8060cac4:	00a72824 	and	a1,a1,a3
8060cac8:	14a0001b 	bnez	a1,8060cb38 <comboDpadUse+0x94>
8060cacc:	00000000 	nop
8060cad0:	94830020 	lhu	v1,32(a0)
8060cad4:	27bdffe8 	addiu	sp,sp,-24
8060cad8:	30650800 	andi	a1,v1,0x800
8060cadc:	10a00008 	beqz	a1,8060cb00 <comboDpadUse+0x5c>
8060cae0:	afbf0014 	sw	ra,20(sp)
8060cae4:	24050001 	li	a1,1
8060cae8:	0c183193 	jal	8060c64c <dpadUseItem>
8060caec:	00000000 	nop
8060caf0:	24020001 	li	v0,1
8060caf4:	8fbf0014 	lw	ra,20(sp)
8060caf8:	03e00008 	jr	ra
8060cafc:	27bd0018 	addiu	sp,sp,24
8060cb00:	30650400 	andi	a1,v1,0x400
8060cb04:	50a00003 	beqzl	a1,8060cb14 <comboDpadUse+0x70>
8060cb08:	30650200 	andi	a1,v1,0x200
8060cb0c:	1000fff6 	b	8060cae8 <comboDpadUse+0x44>
8060cb10:	00002825 	move	a1,zero
8060cb14:	10a00003 	beqz	a1,8060cb24 <comboDpadUse+0x80>
8060cb18:	30630100 	andi	v1,v1,0x100
8060cb1c:	1000fff2 	b	8060cae8 <comboDpadUse+0x44>
8060cb20:	24050002 	li	a1,2
8060cb24:	1060fff4 	beqz	v1,8060caf8 <comboDpadUse+0x54>
8060cb28:	8fbf0014 	lw	ra,20(sp)
8060cb2c:	1000ffee 	b	8060cae8 <comboDpadUse+0x44>
8060cb30:	24050003 	li	a1,3
8060cb34:	00001025 	move	v0,zero
8060cb38:	03e00008 	jr	ra
8060cb3c:	00000000 	nop

8060cb40 <comboProgressiveOot>:
8060cb40:	27bdffe8 	addiu	sp,sp,-24
8060cb44:	28820047 	slti	v0,a0,71
8060cb48:	afb00010 	sw	s0,16(sp)
8060cb4c:	afbf0014 	sw	ra,20(sp)
8060cb50:	10400024 	beqz	v0,8060cbe4 <comboProgressiveOot+0xa4>
8060cb54:	00808025 	move	s0,a0
8060cb58:	28820027 	slti	v0,a0,39
8060cb5c:	1040000e 	beqz	v0,8060cb98 <comboProgressiveOot+0x58>
8060cb60:	2882000a 	slti	v0,a0,10
8060cb64:	10400016 	beqz	v0,8060cbc0 <comboProgressiveOot+0x80>
8060cb68:	28820008 	slti	v0,a0,8
8060cb6c:	10400093 	beqz	v0,8060cdbc <comboProgressiveOot+0x27c>
8060cb70:	24020004 	li	v0,4
8060cb74:	10820075 	beq	a0,v0,8060cd4c <comboProgressiveOot+0x20c>
8060cb78:	24020005 	li	v0,5
8060cb7c:	10820080 	beq	a0,v0,8060cd80 <comboProgressiveOot+0x240>
8060cb80:	3c028012 	lui	v0,0x8012
8060cb84:	8fbf0014 	lw	ra,20(sp)
8060cb88:	02001025 	move	v0,s0
8060cb8c:	8fb00010 	lw	s0,16(sp)
8060cb90:	03e00008 	jr	ra
8060cb94:	27bd0018 	addiu	sp,sp,24
8060cb98:	2482ffd9 	addiu	v0,a0,-39
8060cb9c:	2c430020 	sltiu	v1,v0,32
8060cba0:	1060fff8 	beqz	v1,8060cb84 <comboProgressiveOot+0x44>
8060cba4:	00021880 	sll	v1,v0,0x2
8060cba8:	3c028061 	lui	v0,0x8061
8060cbac:	24425c78 	addiu	v0,v0,23672
8060cbb0:	00431021 	addu	v0,v0,v1
8060cbb4:	8c420000 	lw	v0,0(v0)
8060cbb8:	00400008 	jr	v0
8060cbbc:	00000000 	nop
8060cbc0:	2402000c 	li	v0,12
8060cbc4:	1482fff0 	bne	a0,v0,8060cb88 <comboProgressiveOot+0x48>
8060cbc8:	8fbf0014 	lw	ra,20(sp)
8060cbcc:	3c028012 	lui	v0,0x8012
8060cbd0:	9042a6d3 	lbu	v0,-22829(v0)
8060cbd4:	1440ffeb 	bnez	v0,8060cb84 <comboProgressiveOot+0x44>
8060cbd8:	2410000c 	li	s0,12
8060cbdc:	1000ffe9 	b	8060cb84 <comboProgressiveOot+0x44>
8060cbe0:	2410003b 	li	s0,59
8060cbe4:	2882007b 	slti	v0,a0,123
8060cbe8:	1040001c 	beqz	v0,8060cc5c <comboProgressiveOot+0x11c>
8060cbec:	28820079 	slti	v0,a0,121
8060cbf0:	10400099 	beqz	v0,8060ce58 <comboProgressiveOot+0x318>
8060cbf4:	28820061 	slti	v0,a0,97
8060cbf8:	1040000d 	beqz	v0,8060cc30 <comboProgressiveOot+0xf0>
8060cbfc:	2882005f 	slti	v0,a0,95
8060cc00:	1040005e 	beqz	v0,8060cd7c <comboProgressiveOot+0x23c>
8060cc04:	24020054 	li	v0,84
8060cc08:	10820077 	beq	a0,v0,8060cde8 <comboProgressiveOot+0x2a8>
8060cc0c:	24020057 	li	v0,87
8060cc10:	1482ffdd 	bne	a0,v0,8060cb88 <comboProgressiveOot+0x48>
8060cc14:	8fbf0014 	lw	ra,20(sp)
8060cc18:	0c181783 	jal	80605e0c <comboConfig>
8060cc1c:	24040004 	li	a0,4
8060cc20:	1040006b 	beqz	v0,8060cdd0 <comboProgressiveOot+0x290>
8060cc24:	3c028012 	lui	v0,0x8012
8060cc28:	10000022 	b	8060ccb4 <comboProgressiveOot+0x174>
8060cc2c:	9442a66c 	lhu	v0,-22932(v0)
8060cc30:	2482ff89 	addiu	v0,a0,-119
8060cc34:	2c420002 	sltiu	v0,v0,2
8060cc38:	1040ffd2 	beqz	v0,8060cb84 <comboProgressiveOot+0x44>
8060cc3c:	3c028012 	lui	v0,0x8012
8060cc40:	8c50a670 	lw	s0,-22928(v0)
8060cc44:	00108442 	srl	s0,s0,0x11
8060cc48:	32100007 	andi	s0,s0,0x7
8060cc4c:	2e100002 	sltiu	s0,s0,2
8060cc50:	2e100001 	sltiu	s0,s0,1
8060cc54:	1000ffcb 	b	8060cb84 <comboProgressiveOot+0x44>
8060cc58:	26100077 	addiu	s0,s0,119
8060cc5c:	28820098 	slti	v0,a0,152
8060cc60:	10400019 	beqz	v0,8060ccc8 <comboProgressiveOot+0x188>
8060cc64:	28820096 	slti	v0,a0,150
8060cc68:	10400076 	beqz	v0,8060ce44 <comboProgressiveOot+0x304>
8060cc6c:	2402007b 	li	v0,123
8060cc70:	10820042 	beq	a0,v0,8060cd7c <comboProgressiveOot+0x23c>
8060cc74:	2402008c 	li	v0,140
8060cc78:	1482ffc3 	bne	a0,v0,8060cb88 <comboProgressiveOot+0x48>
8060cc7c:	8fbf0014 	lw	ra,20(sp)
8060cc80:	0c181783 	jal	80605e0c <comboConfig>
8060cc84:	24040004 	li	a0,4
8060cc88:	1040ffbf 	beqz	v0,8060cb88 <comboProgressiveOot+0x48>
8060cc8c:	8fbf0014 	lw	ra,20(sp)
8060cc90:	3c028012 	lui	v0,0x8012
8060cc94:	9443a66c 	lhu	v1,-22932(v0)
8060cc98:	3062000f 	andi	v0,v1,0xf
8060cc9c:	30630001 	andi	v1,v1,0x1
8060cca0:	1060ffb9 	beqz	v1,8060cb88 <comboProgressiveOot+0x48>
8060cca4:	24100027 	li	s0,39
8060cca8:	30430002 	andi	v1,v0,0x2
8060ccac:	1060ffb6 	beqz	v1,8060cb88 <comboProgressiveOot+0x48>
8060ccb0:	2410008c 	li	s0,140
8060ccb4:	3042000c 	andi	v0,v0,0xc
8060ccb8:	1440ffb2 	bnez	v0,8060cb84 <comboProgressiveOot+0x44>
8060ccbc:	24100057 	li	s0,87
8060ccc0:	1000ffb0 	b	8060cb84 <comboProgressiveOot+0x44>
8060ccc4:	24100028 	li	s0,40
8060ccc8:	2482ff67 	addiu	v0,a0,-153
8060cccc:	2c420002 	sltiu	v0,v0,2
8060ccd0:	1040ffad 	beqz	v0,8060cb88 <comboProgressiveOot+0x48>
8060ccd4:	8fbf0014 	lw	ra,20(sp)
8060ccd8:	0c181783 	jal	80605e0c <comboConfig>
8060ccdc:	24040003 	li	a0,3
8060cce0:	1040ffa9 	beqz	v0,8060cb88 <comboProgressiveOot+0x48>
8060cce4:	8fbf0014 	lw	ra,20(sp)
8060cce8:	3c028012 	lui	v0,0x8012
8060ccec:	9042a6d2 	lbu	v0,-22830(v0)
8060ccf0:	30430001 	andi	v1,v0,0x1
8060ccf4:	1060ffa4 	beqz	v1,8060cb88 <comboProgressiveOot+0x48>
8060ccf8:	24100099 	li	s0,153
8060ccfc:	30420002 	andi	v0,v0,0x2
8060cd00:	1440ffa1 	bnez	v0,8060cb88 <comboProgressiveOot+0x48>
8060cd04:	2410002b 	li	s0,43
8060cd08:	1000ff9f 	b	8060cb88 <comboProgressiveOot+0x48>
8060cd0c:	2410009a 	li	s0,154
8060cd10:	3c028012 	lui	v0,0x8012
8060cd14:	2442a5d0 	addiu	v0,v0,-23088
8060cd18:	90440076 	lbu	a0,118(v0)
8060cd1c:	240300ff 	li	v1,255
8060cd20:	1083ff98 	beq	a0,v1,8060cb84 <comboProgressiveOot+0x44>
8060cd24:	24100032 	li	s0,50
8060cd28:	8c4200a0 	lw	v0,160(v0)
8060cd2c:	000210c2 	srl	v0,v0,0x3
8060cd30:	30420007 	andi	v0,v0,0x7
8060cd34:	1040ff93 	beqz	v0,8060cb84 <comboProgressiveOot+0x44>
8060cd38:	24030001 	li	v1,1
8060cd3c:	1443ff91 	bne	v0,v1,8060cb84 <comboProgressiveOot+0x44>
8060cd40:	24100034 	li	s0,52
8060cd44:	1000ff8f 	b	8060cb84 <comboProgressiveOot+0x44>
8060cd48:	24100033 	li	s0,51
8060cd4c:	3c028012 	lui	v0,0x8012
8060cd50:	2442a5d0 	addiu	v0,v0,-23088
8060cd54:	90440077 	lbu	a0,119(v0)
8060cd58:	240300ff 	li	v1,255
8060cd5c:	1083ff89 	beq	a0,v1,8060cb84 <comboProgressiveOot+0x44>
8060cd60:	24100004 	li	s0,4
8060cd64:	8c5000a0 	lw	s0,160(v0)
8060cd68:	32100007 	andi	s0,s0,0x7
8060cd6c:	2e100002 	sltiu	s0,s0,2
8060cd70:	2e100001 	sltiu	s0,s0,1
8060cd74:	1000ff83 	b	8060cb84 <comboProgressiveOot+0x44>
8060cd78:	26100030 	addiu	s0,s0,48
8060cd7c:	3c028012 	lui	v0,0x8012
8060cd80:	2442a5d0 	addiu	v0,v0,-23088
8060cd84:	9044007a 	lbu	a0,122(v0)
8060cd88:	240300ff 	li	v1,255
8060cd8c:	1083ff7d 	beq	a0,v1,8060cb84 <comboProgressiveOot+0x44>
8060cd90:	24100005 	li	s0,5
8060cd94:	8c4200a0 	lw	v0,160(v0)
8060cd98:	00021382 	srl	v0,v0,0xe
8060cd9c:	30420007 	andi	v0,v0,0x7
8060cda0:	1040ff78 	beqz	v0,8060cb84 <comboProgressiveOot+0x44>
8060cda4:	2410005f 	li	s0,95
8060cda8:	24030001 	li	v1,1
8060cdac:	1443ff75 	bne	v0,v1,8060cb84 <comboProgressiveOot+0x44>
8060cdb0:	2410007b 	li	s0,123
8060cdb4:	1000ff73 	b	8060cb84 <comboProgressiveOot+0x44>
8060cdb8:	24100060 	li	s0,96
8060cdbc:	3c028012 	lui	v0,0x8012
8060cdc0:	9050a6d1 	lbu	s0,-22831(v0)
8060cdc4:	0010802b 	sltu	s0,zero,s0
8060cdc8:	1000ff6e 	b	8060cb84 <comboProgressiveOot+0x44>
8060cdcc:	26100008 	addiu	s0,s0,8
8060cdd0:	0c181783 	jal	80605e0c <comboConfig>
8060cdd4:	24040005 	li	a0,5
8060cdd8:	1440ff93 	bnez	v0,8060cc28 <comboProgressiveOot+0xe8>
8060cddc:	3c028012 	lui	v0,0x8012
8060cde0:	1000ff69 	b	8060cb88 <comboProgressiveOot+0x48>
8060cde4:	8fbf0014 	lw	ra,20(sp)
8060cde8:	3c028012 	lui	v0,0x8012
8060cdec:	8c42a670 	lw	v0,-22928(v0)
8060cdf0:	00021182 	srl	v0,v0,0x6
8060cdf4:	30420007 	andi	v0,v0,0x7
8060cdf8:	1040ff62 	beqz	v0,8060cb84 <comboProgressiveOot+0x44>
8060cdfc:	24100054 	li	s0,84
8060ce00:	24030001 	li	v1,1
8060ce04:	1443ff5f 	bne	v0,v1,8060cb84 <comboProgressiveOot+0x44>
8060ce08:	24100036 	li	s0,54
8060ce0c:	1000ff5d 	b	8060cb84 <comboProgressiveOot+0x44>
8060ce10:	24100035 	li	s0,53
8060ce14:	3c028012 	lui	v0,0x8012
8060ce18:	8c50a670 	lw	s0,-22928(v0)
8060ce1c:	32100e00 	andi	s0,s0,0xe00
8060ce20:	0010802b 	sltu	s0,zero,s0
8060ce24:	1000ff57 	b	8060cb84 <comboProgressiveOot+0x44>
8060ce28:	26100037 	addiu	s0,s0,55
8060ce2c:	3c028012 	lui	v0,0x8012
8060ce30:	8c50a670 	lw	s0,-22928(v0)
8060ce34:	32103000 	andi	s0,s0,0x3000
8060ce38:	0010802b 	sltu	s0,zero,s0
8060ce3c:	1000ff51 	b	8060cb84 <comboProgressiveOot+0x44>
8060ce40:	26100045 	addiu	s0,s0,69
8060ce44:	3c028012 	lui	v0,0x8012
8060ce48:	9050a60a 	lbu	s0,-23030(v0)
8060ce4c:	0010802b 	sltu	s0,zero,s0
8060ce50:	1000ff4c 	b	8060cb84 <comboProgressiveOot+0x44>
8060ce54:	26100096 	addiu	s0,s0,150
8060ce58:	3c028012 	lui	v0,0x8012
8060ce5c:	8c50a670 	lw	s0,-22928(v0)
8060ce60:	00108502 	srl	s0,s0,0x14
8060ce64:	32100007 	andi	s0,s0,0x7
8060ce68:	2e100002 	sltiu	s0,s0,2
8060ce6c:	2e100001 	sltiu	s0,s0,1
8060ce70:	1000ff44 	b	8060cb84 <comboProgressiveOot+0x44>
8060ce74:	26100079 	addiu	s0,s0,121

8060ce78 <saveMm>:
8060ce78:	27bdffe0 	addiu	sp,sp,-32
8060ce7c:	3c028012 	lui	v0,0x8012
8060ce80:	afb10018 	sw	s1,24(sp)
8060ce84:	8c51b924 	lw	s1,-18140(v0)
8060ce88:	afb00014 	sw	s0,20(sp)
8060ce8c:	3c108062 	lui	s0,0x8062
8060ce90:	26106a90 	addiu	s0,s0,27280
8060ce94:	26310001 	addiu	s1,s1,1
8060ce98:	3c048063 	lui	a0,0x8063
8060ce9c:	afbf001c 	sw	ra,28(sp)
8060cea0:	00118bc0 	sll	s1,s1,0xf
8060cea4:	a600100a 	sh	zero,4106(s0)
8060cea8:	00001025 	move	v0,zero
8060ceac:	02001825 	move	v1,s0
8060ceb0:	2484a730 	addiu	a0,a0,-22736
8060ceb4:	90650000 	lbu	a1,0(v1)
8060ceb8:	24630001 	addiu	v1,v1,1
8060cebc:	00451021 	addu	v0,v0,a1
8060cec0:	1464fffc 	bne	v1,a0,8060ceb4 <saveMm+0x3c>
8060cec4:	3042ffff 	andi	v0,v0,0xffff
8060cec8:	02002825 	move	a1,s0
8060cecc:	02202025 	move	a0,s1
8060ced0:	24070001 	li	a3,1
8060ced4:	24063ca0 	li	a2,15520
8060ced8:	0c18301a 	jal	8060c068 <comboReadWriteFlash>
8060cedc:	a602100a 	sh	v0,4106(s0)
8060cee0:	8fbf001c 	lw	ra,28(sp)
8060cee4:	02002825 	move	a1,s0
8060cee8:	26244000 	addiu	a0,s1,16384
8060ceec:	8fb00014 	lw	s0,20(sp)
8060cef0:	8fb10018 	lw	s1,24(sp)
8060cef4:	24070001 	li	a3,1
8060cef8:	24063ca0 	li	a2,15520
8060cefc:	0818301a 	j	8060c068 <comboReadWriteFlash>
8060cf00:	27bd0020 	addiu	sp,sp,32

8060cf04 <comboReadForeignSave>:
8060cf04:	3c028012 	lui	v0,0x8012
8060cf08:	8c44b924 	lw	a0,-18140(v0)
8060cf0c:	3c058062 	lui	a1,0x8062
8060cf10:	24840001 	addiu	a0,a0,1
8060cf14:	00003825 	move	a3,zero
8060cf18:	24063ca0 	li	a2,15520
8060cf1c:	24a56a90 	addiu	a1,a1,27280
8060cf20:	0818301a 	j	8060c068 <comboReadWriteFlash>
8060cf24:	000423c0 	sll	a0,a0,0xf

8060cf28 <comboWriteForeignSave>:
8060cf28:	3c028012 	lui	v0,0x8012
8060cf2c:	8c43b924 	lw	v1,-18140(v0)
8060cf30:	240200ff 	li	v0,255
8060cf34:	10620003 	beq	v1,v0,8060cf44 <comboWriteForeignSave+0x1c>
8060cf38:	00000000 	nop
8060cf3c:	0818339e 	j	8060ce78 <saveMm>
8060cf40:	00000000 	nop
8060cf44:	03e00008 	jr	ra
8060cf48:	00000000 	nop

8060cf4c <comboWriteSave>:
8060cf4c:	27bdffe0 	addiu	sp,sp,-32
8060cf50:	afb00014 	sw	s0,20(sp)
8060cf54:	3c108012 	lui	s0,0x8012
8060cf58:	2610a5d0 	addiu	s0,s0,-23088
8060cf5c:	8e051354 	lw	a1,4948(s0)
8060cf60:	240200ff 	li	v0,255
8060cf64:	afbf001c 	sw	ra,28(sp)
8060cf68:	10a2001e 	beq	a1,v0,8060cfe4 <comboWriteSave+0x98>
8060cf6c:	afb10018 	sw	s1,24(sp)
8060cf70:	3c048012 	lui	a0,0x8012
8060cf74:	a6001352 	sh	zero,4946(s0)
8060cf78:	00001025 	move	v0,zero
8060cf7c:	02001825 	move	v1,s0
8060cf80:	2484b924 	addiu	a0,a0,-18140
8060cf84:	94660000 	lhu	a2,0(v1)
8060cf88:	24630002 	addiu	v1,v1,2
8060cf8c:	00461021 	addu	v0,v0,a2
8060cf90:	1464fffc 	bne	v1,a0,8060cf84 <comboWriteSave+0x38>
8060cf94:	3042ffff 	andi	v0,v0,0xffff
8060cf98:	a6021352 	sh	v0,4946(s0)
8060cf9c:	24021450 	li	v0,5200
8060cfa0:	00a20018 	mult	a1,v0
8060cfa4:	24070001 	li	a3,1
8060cfa8:	02002825 	move	a1,s0
8060cfac:	24061354 	li	a2,4948
8060cfb0:	00008812 	mflo	s1
8060cfb4:	0c18301a 	jal	8060c068 <comboReadWriteFlash>
8060cfb8:	26240020 	addiu	a0,s1,32
8060cfbc:	02002825 	move	a1,s0
8060cfc0:	26243d10 	addiu	a0,s1,15632
8060cfc4:	24070001 	li	a3,1
8060cfc8:	0c18301a 	jal	8060c068 <comboReadWriteFlash>
8060cfcc:	24061354 	li	a2,4948
8060cfd0:	8fbf001c 	lw	ra,28(sp)
8060cfd4:	8fb10018 	lw	s1,24(sp)
8060cfd8:	8fb00014 	lw	s0,20(sp)
8060cfdc:	0818339e 	j	8060ce78 <saveMm>
8060cfe0:	27bd0020 	addiu	sp,sp,32
8060cfe4:	8fbf001c 	lw	ra,28(sp)
8060cfe8:	8fb10018 	lw	s1,24(sp)
8060cfec:	8fb00014 	lw	s0,20(sp)
8060cff0:	03e00008 	jr	ra
8060cff4:	27bd0020 	addiu	sp,sp,32

8060cff8 <comboCopyMmSave>:
8060cff8:	27bdf7d8 	addiu	sp,sp,-2088
8060cffc:	24a50001 	addiu	a1,a1,1
8060d000:	24840001 	addiu	a0,a0,1
8060d004:	afb3081c 	sw	s3,2076(sp)
8060d008:	afb20818 	sw	s2,2072(sp)
8060d00c:	afb10814 	sw	s1,2068(sp)
8060d010:	afb00810 	sw	s0,2064(sp)
8060d014:	afbf0824 	sw	ra,2084(sp)
8060d018:	afb40820 	sw	s4,2080(sp)
8060d01c:	00058bc0 	sll	s1,a1,0xf
8060d020:	000493c0 	sll	s2,a0,0xf
8060d024:	00008025 	move	s0,zero
8060d028:	34138000 	li	s3,0x8000
8060d02c:	02112021 	addu	a0,s0,s1
8060d030:	0212a021 	addu	s4,s0,s2
8060d034:	00003825 	move	a3,zero
8060d038:	24060800 	li	a2,2048
8060d03c:	0c18301a 	jal	8060c068 <comboReadWriteFlash>
8060d040:	27a50010 	addiu	a1,sp,16
8060d044:	26100800 	addiu	s0,s0,2048
8060d048:	24070001 	li	a3,1
8060d04c:	24060800 	li	a2,2048
8060d050:	27a50010 	addiu	a1,sp,16
8060d054:	0c18301a 	jal	8060c068 <comboReadWriteFlash>
8060d058:	02802025 	move	a0,s4
8060d05c:	5613fff4 	bnel	s0,s3,8060d030 <comboCopyMmSave+0x38>
8060d060:	02112021 	addu	a0,s0,s1
8060d064:	8fbf0824 	lw	ra,2084(sp)
8060d068:	8fb40820 	lw	s4,2080(sp)
8060d06c:	8fb3081c 	lw	s3,2076(sp)
8060d070:	8fb20818 	lw	s2,2072(sp)
8060d074:	8fb10814 	lw	s1,2068(sp)
8060d078:	8fb00810 	lw	s0,2064(sp)
8060d07c:	03e00008 	jr	ra
8060d080:	27bd0828 	addiu	sp,sp,2088

8060d084 <comboTriggerWarp>:
8060d084:	3c028062 	lui	v0,0x8062
8060d088:	24425f60 	addiu	v0,v0,24416
8060d08c:	00451021 	addu	v0,v0,a1
8060d090:	9043004f 	lbu	v1,79(v0)
8060d094:	3c028061 	lui	v0,0x8061
8060d098:	00031880 	sll	v1,v1,0x2
8060d09c:	24425cf8 	addiu	v0,v0,23800
8060d0a0:	00431021 	addu	v0,v0,v1
8060d0a4:	8c420000 	lw	v0,0(v0)
8060d0a8:	00400008 	jr	v0
8060d0ac:	00000000 	nop
8060d0b0:	24020608 	li	v0,1544
8060d0b4:	3c030001 	lui	v1,0x1
8060d0b8:	00832021 	addu	a0,a0,v1
8060d0bc:	24030014 	li	v1,20
8060d0c0:	a0831e15 	sb	v1,7701(a0)
8060d0c4:	24030002 	li	v1,2
8060d0c8:	a0831e5e 	sb	v1,7774(a0)
8060d0cc:	00021a02 	srl	v1,v0,0x8
8060d0d0:	a0831e1a 	sb	v1,7706(a0)
8060d0d4:	03e00008 	jr	ra
8060d0d8:	a0821e1b 	sb	v0,7707(a0)
8060d0dc:	3c028012 	lui	v0,0x8012
8060d0e0:	2442a5d0 	addiu	v0,v0,-23088
8060d0e4:	8c430ed4 	lw	v1,3796(v0)
8060d0e8:	3c050280 	lui	a1,0x280
8060d0ec:	24a51080 	addiu	a1,a1,4224
8060d0f0:	00651825 	or	v1,v1,a1
8060d0f4:	ac430ed4 	sw	v1,3796(v0)
8060d0f8:	1000ffee 	b	8060d0b4 <comboTriggerWarp+0x30>
8060d0fc:	24020457 	li	v0,1111
8060d100:	3c028012 	lui	v0,0x8012
8060d104:	2442a5d0 	addiu	v0,v0,-23088
8060d108:	94430ee0 	lhu	v1,3808(v0)
8060d10c:	34630200 	ori	v1,v1,0x200
8060d110:	a4430ee0 	sh	v1,3808(v0)
8060d114:	1000ffe7 	b	8060d0b4 <comboTriggerWarp+0x30>
8060d118:	2402060c 	li	v0,1548
8060d11c:	1000ffe5 	b	8060d0b4 <comboTriggerWarp+0x30>
8060d120:	24020580 	li	v0,1408
8060d124:	1000ffe3 	b	8060d0b4 <comboTriggerWarp+0x30>
8060d128:	24020610 	li	v0,1552
8060d12c:	3c028062 	lui	v0,0x8062
8060d130:	24426a90 	addiu	v0,v0,27280
8060d134:	90430128 	lbu	v1,296(v0)
8060d138:	24053010 	li	a1,12304
8060d13c:	34630001 	ori	v1,v1,0x1
8060d140:	a0430128 	sb	v1,296(v0)
8060d144:	90430f0c 	lbu	v1,3852(v0)
8060d148:	34630003 	ori	v1,v1,0x3
8060d14c:	a0430f0c 	sb	v1,3852(v0)
8060d150:	08182a53 	j	8060a94c <comboGameSwitch>
8060d154:	00000000 	nop
8060d158:	3c028062 	lui	v0,0x8062
8060d15c:	24426a90 	addiu	v0,v0,27280
8060d160:	90430128 	lbu	v1,296(v0)
8060d164:	2405ff80 	li	a1,-128
8060d168:	34630002 	ori	v1,v1,0x2
8060d16c:	a0430128 	sb	v1,296(v0)
8060d170:	90430f19 	lbu	v1,3865(v0)
8060d174:	00651825 	or	v1,v1,a1
8060d178:	a0430f19 	sb	v1,3865(v0)
8060d17c:	1000fff4 	b	8060d150 <comboTriggerWarp+0xcc>
8060d180:	3405ae70 	li	a1,0xae70
8060d184:	3c028062 	lui	v0,0x8062
8060d188:	24426a90 	addiu	v0,v0,27280
8060d18c:	90430128 	lbu	v1,296(v0)
8060d190:	2405ff80 	li	a1,-128
8060d194:	34630004 	ori	v1,v1,0x4
8060d198:	a0430128 	sb	v1,296(v0)
8060d19c:	90430f2f 	lbu	v1,3887(v0)
8060d1a0:	00651825 	or	v1,v1,a1
8060d1a4:	a0430f2f 	sb	v1,3887(v0)
8060d1a8:	1000ffe9 	b	8060d150 <comboTriggerWarp+0xcc>
8060d1ac:	24056a90 	li	a1,27280
8060d1b0:	3c028062 	lui	v0,0x8062
8060d1b4:	24426a90 	addiu	v0,v0,27280
8060d1b8:	90430128 	lbu	v1,296(v0)
8060d1bc:	240520f0 	li	a1,8432
8060d1c0:	34630008 	ori	v1,v1,0x8
8060d1c4:	a0430128 	sb	v1,296(v0)
8060d1c8:	90430f2c 	lbu	v1,3884(v0)
8060d1cc:	34630020 	ori	v1,v1,0x20
8060d1d0:	1000ffdf 	b	8060d150 <comboTriggerWarp+0xcc>
8060d1d4:	a0430f2c 	sb	v1,3884(v0)
8060d1d8:	1000ffb6 	b	8060d0b4 <comboTriggerWarp+0x30>
8060d1dc:	24020242 	li	v0,578
8060d1e0:	1000ffb4 	b	8060d0b4 <comboTriggerWarp+0x30>
8060d1e4:	24020221 	li	v0,545
8060d1e8:	1000ffb2 	b	8060d0b4 <comboTriggerWarp+0x30>
8060d1ec:	24020564 	li	v0,1380

8060d1f0 <comboInitEntrances>:
8060d1f0:	3c058063 	lui	a1,0x8063
8060d1f4:	3c0413fe 	lui	a0,0x13fe
8060d1f8:	24060100 	li	a2,256
8060d1fc:	24a5a740 	addiu	a1,a1,-22720
8060d200:	08000217 	j	8000085c <DMARomToRam>
8060d204:	34848000 	ori	a0,a0,0x8000

8060d208 <comboEntranceOverride>:
8060d208:	3c058063 	lui	a1,0x8063
8060d20c:	24a5a740 	addiu	a1,a1,-22720
8060d210:	00001825 	move	v1,zero
8060d214:	00a03025 	move	a2,a1
8060d218:	2408ffff 	li	t0,-1
8060d21c:	3084ffff 	andi	a0,a0,0xffff
8060d220:	24070020 	li	a3,32
8060d224:	8ca20000 	lw	v0,0(a1)
8060d228:	1048000a 	beq	v0,t0,8060d254 <comboEntranceOverride+0x4c>
8060d22c:	00000000 	nop
8060d230:	54440005 	bnel	v0,a0,8060d248 <comboEntranceOverride+0x40>
8060d234:	24630001 	addiu	v1,v1,1
8060d238:	000318c0 	sll	v1,v1,0x3
8060d23c:	00c33021 	addu	a2,a2,v1
8060d240:	03e00008 	jr	ra
8060d244:	8cc20004 	lw	v0,4(a2)
8060d248:	1467fff6 	bne	v1,a3,8060d224 <comboEntranceOverride+0x1c>
8060d24c:	24a50008 	addiu	a1,a1,8
8060d250:	2402ffff 	li	v0,-1
8060d254:	03e00008 	jr	ra
8060d258:	00000000 	nop

8060d25c <toupper>:
8060d25c:	2483ff9f 	addiu	v1,a0,-97
8060d260:	2c63001a 	sltiu	v1,v1,26
8060d264:	10600002 	beqz	v1,8060d270 <toupper+0x14>
8060d268:	00801025 	move	v0,a0
8060d26c:	2482ffe0 	addiu	v0,a0,-32
8060d270:	03e00008 	jr	ra
8060d274:	00000000 	nop

8060d278 <memcpy>:
8060d278:	00851825 	or	v1,a0,a1
8060d27c:	00661825 	or	v1,v1,a2
8060d280:	30630003 	andi	v1,v1,0x3
8060d284:	00801025 	move	v0,a0
8060d288:	1460000e 	bnez	v1,8060d2c4 <memcpy+0x4c>
8060d28c:	00002025 	move	a0,zero
8060d290:	00063082 	srl	a2,a2,0x2
8060d294:	00063080 	sll	a2,a2,0x2
8060d298:	1066000c 	beq	v1,a2,8060d2cc <memcpy+0x54>
8060d29c:	00a32021 	addu	a0,a1,v1
8060d2a0:	8c870000 	lw	a3,0(a0)
8060d2a4:	00432021 	addu	a0,v0,v1
8060d2a8:	ac870000 	sw	a3,0(a0)
8060d2ac:	1000fffa 	b	8060d298 <memcpy+0x20>
8060d2b0:	24630004 	addiu	v1,v1,4
8060d2b4:	80670000 	lb	a3,0(v1)
8060d2b8:	00441821 	addu	v1,v0,a0
8060d2bc:	a0670000 	sb	a3,0(v1)
8060d2c0:	24840001 	addiu	a0,a0,1
8060d2c4:	1486fffb 	bne	a0,a2,8060d2b4 <memcpy+0x3c>
8060d2c8:	00a41821 	addu	v1,a1,a0
8060d2cc:	03e00008 	jr	ra
8060d2d0:	00000000 	nop

8060d2d4 <memcmp>:
8060d2d4:	00001825 	move	v1,zero
8060d2d8:	54660003 	bnel	v1,a2,8060d2e8 <memcmp+0x14>
8060d2dc:	00831021 	addu	v0,a0,v1
8060d2e0:	03e00008 	jr	ra
8060d2e4:	00001025 	move	v0,zero
8060d2e8:	00a33821 	addu	a3,a1,v1
8060d2ec:	80420000 	lb	v0,0(v0)
8060d2f0:	80e70000 	lb	a3,0(a3)
8060d2f4:	1047fff8 	beq	v0,a3,8060d2d8 <memcmp+0x4>
8060d2f8:	24630001 	addiu	v1,v1,1
8060d2fc:	03e00008 	jr	ra
8060d300:	00471023 	subu	v0,v0,a3

8060d304 <strlen>:
8060d304:	00001025 	move	v0,zero
8060d308:	00821821 	addu	v1,a0,v0
8060d30c:	80630000 	lb	v1,0(v1)
8060d310:	5460fffd 	bnezl	v1,8060d308 <strlen+0x4>
8060d314:	24420001 	addiu	v0,v0,1
8060d318:	03e00008 	jr	ra
8060d31c:	00000000 	nop

8060d320 <ItemGiver_gActorInit>:
8060d320:	00030600 00000010 00010000 0000013c     ...............<
8060d330:	80600a54 00000000 80600b2c 00000000     .`.T.....`.,....

8060d340 <kDummyList>:
8060d340:	df000000 00000000                       ........

8060d348 <gDungeonDefs>:
8060d348:	8060df48 00000000 00000004 00000000     .`.H............
8060d358:	8060df50 00000001 00000004 00000000     .`.P............
8060d368:	8060df58 00000002 00000004 00000000     .`.X............
8060d378:	80611698 00000003 0000000c 00000005     .a..............
8060d388:	806115e8 00000004 0000000c 00000007     .a..............
8060d398:	8060df60 00000005 0000000c 00000005     .`.`............
8060d3a8:	8060df68 00000007 0000000c 00000005     .`.h............
8060d3b8:	8060df70 00000006 0000000c 00000005     .`.p............
8060d3c8:	80610238 00000008 00000004 00000003     .a.8............
8060d3d8:	8060df78 00000009 00000004 00000000     .`.x............
8060d3e8:	8060df7c 0000000c 00000000 00000004     .`.|............
8060d3f8:	8060df84 0000000b 00000000 00000009     .`..............
8060d408:	8060df88 0000000d 00000008 00000002     .`..............
8060d418:	8060df90 00000000 0000001d 00000001     .`..............
8060d428:	8060df9c 00000001 0000001d 00000003     .`..............
8060d438:	8060dfa8 00000002 0000001d 00000001     .`..............
8060d448:	8060dfb4 00000003 0000001d 00000004     .`..............
8060d458:	8060fe64 00000000 00000002 00000000     .`.d............
8060d468:	8060dfc0 00000001 00000002 00000000     .`..............

8060d478 <kStrayFairyObj>:
8060d478:	ffecfffe 00000000 00000400 ffffffff     ................
8060d488:	0014fffe 00000000 04000400 ffffffff     ................
8060d498:	00140026 00000000 04000000 ffffffff     ...&............
8060d4a8:	ffec0026 00000000 00000000 ffffffff     ...&............
8060d4b8:	fffaffed 00000000 00000400 ffffffff     ................
8060d4c8:	0006ffed 00000000 02000400 ffffffff     ................
8060d4d8:	00060001 00000000 02000000 ffffffff     ................
8060d4e8:	fffa0001 00000000 00000000 ffffffff     ................
8060d4f8:	fff60017 00000000 00000200 ffffffff     ................
8060d508:	00050030 00000000 02000200 ffffffff     ...0............
8060d518:	001e003f 00000000 02000000 ffffffff     ...?............
8060d528:	000f0026 00000000 00000000 ffffffff     ...&............
8060d538:	000a0017 00000000 00000200 ffffffff     ................
8060d548:	fffb0030 00000000 02000200 ffffffff     ...0............
8060d558:	ffe2003f 00000000 02000000 ffffffff     ...?............
8060d568:	fff10026 00000000 00000000 ffffffff     ...&............
8060d578:	e7000000 00000000 fc272c60 350ce37f     .........',`5...
8060d588:	e200001c 0c184b50 d9f1fbff 00000000     ......KP........
8060d598:	e3001001 00000000 d7000002 ffffffff     ................
8060d5a8:	01010020 06000000 fd700000 08008f80     ... .....p......
8060d5b8:	f5700000 070c0300 e6000000 00000000     .p..............
8060d5c8:	f3000000 070ff400 e7000000 00000000     ................
8060d5d8:	f5680400 000c0300 f2000000 0003c07c     .h.............|
8060d5e8:	06080a0c 00080c0e fd700000 08009180     .........p......
8060d5f8:	f5700000 070c0300 e6000000 00000000     .p..............
8060d608:	f3000000 0707f400 e7000000 00000000     ................
8060d618:	f5680400 000c0300 f2000000 0003c03c     .h.............<
8060d628:	06101214 00101416 06181a1c 00181c1e     ................
8060d638:	fd700000 08009280 f5700000 070c0300     .p.......p......
8060d648:	e6000000 00000000 f3000000 071ff200     ................
8060d658:	e7000000 00000000 f5680800 000c0300     .........h......
8060d668:	f2000000 0007c07c 06000204 00000406     .......|........
8060d678:	df000000 00000000 00000000 00000000     ................
	...

8060d6f8 <sDpadItemsOld>:
8060d6f8:	ffffffff                                ....

8060d6fc <sDpadItems>:
8060d6fc:	ffffffff 5a454c44 41330000              ....ZELDA3..

8060d708 <kDefaultInventory>:
8060d708:	ffffffff ffffffff ffffffff ffffffff     ................
8060d718:	ffffffff ffffffff ffffffff ffffffff     ................
8060d728:	ffffffff ffffffff ffffffff ffffffff     ................
	...
8060d750:	00120000 00000000 00000000 00000000     ................
8060d760:	0000ffff ffffffff ffffff00 00000000     ................
8060d770:	00000000 00001512 17143e3e 3e3e1512     ..........>>>>..
8060d780:	17143e3e 3e3e1512 17143e3e 3e3e0000     ..>>>>....>>>>..

8060d790 <kDefaultItemEquips>:
8060d790:	ffffffff 4dffffff 4dffffff fdffffff     ....M...M.......
8060d7a0:	00ffffff ffffffff ffffffff ffffffff     ................
8060d7b0:	00000000                                ....

8060d7b4 <CSWTCH.1>:
8060d7b4:	00010203 04050706                       ........

8060d7bc <kBlueWarpData>:
8060d7bc:	0039008d 0019003a 008e0025 003b008f     .9.....:...%.;..
8060d7cc:	0037003c 00900048 003d0091 0049003e     .7.<...H.=...I.>
8060d7dc:	0092004a 003f0094 00610040 009300c8     ...J.?...a.@....
8060d7ec:	42700000 41a00000 3c23d70a 420c0000     Bp..A...<#..B...
8060d7fc:	3eb33333 400921fb 54442d18 41f00000     >.33@.!.TD-.A...
8060d80c:	42480000 461c4000 447a0000 80600ba0     BH..F.@.Dz...`..
8060d81c:	80600c0c 80600c0c 80600c0c 80600c0c     .`...`...`...`..
8060d82c:	80600c0c 80600c0c 80600c0c 80600c0c     .`...`...`...`..
8060d83c:	80600c0c 80600c0c 80600c0c 80600c0c     .`...`...`...`..
8060d84c:	80600c0c 80600c0c 80600c0c 80600c0c     .`...`...`...`..
8060d85c:	80600c0c 80600b94 80600b6c 80600b5c     .`...`...`.l.`.\
8060d86c:	80600c0c 80600bac 80600bb8 80600bc4     .`...`...`...`..
8060d87c:	80600bd0 80600bdc 80600be8 80600bf4     .`...`...`...`..
8060d88c:	80600c00 459c4000 80600ef0 80600e98     .`..E.@..`...`..
8060d89c:	80600ebc 80600ec4 80600ecc 80600ee8     .`...`...`...`..
8060d8ac:	446f2079 6f752077 616e7420 00000000     Do you want ....
8060d8bc:	20666f72 20054100 20527570 65657300      for .A. Rupees.
8060d8cc:	3f011b05 42000000 59657301 00000000     ?...B...Yes.....
8060d8dc:	4e6f0200 43fa0000 08130000 2e2e2e00     No..C...........
8060d8ec:	0b020000 04000000 13080849 74206973     ...........It is
8060d8fc:	20616c73 6f207772 69747465 6e207468      also written th
8060d90c:	61742072 65756e69 74696e67 20746865     at reuniting the
8060d91c:	20054653 70697269 7475616c 2053746f      .FSpiritual Sto
8060d92c:	6e657320 00000000 6c656164 7320746f     nes ....leads to
8060d93c:	20000000 20616e64 20000000 2e0b0200      ... and .......

8060d94c <kIcons>:
8060d94c:	6c6d6e6b 66676869 6a000000 3f266666     lmnkfghij...?&ff
8060d95c:	4f000000 486f7720 61626f75 74206275     O...How about bu
8060d96c:	79696e67 20000000 20666f72 20323030     ying ... for 200
8060d97c:	20527570 6565733f 0105421b 42757901      Rupees?..B.Buy.
8060d98c:	446f6e27 74206275 79020000 43b40000     Don't buy...C...
8060d99c:	37800000 3c8efa35 c50b1000 c4440000     7...<..5.....D..
8060d9ac:	c4120000 43df8000 4421c000 c3df0000     ....C...D!......
8060d9bc:	c3760000 41200000 461c3c00 c50ac000     .v..A ..F.<.....

8060d9cc <kNPCs>:
8060d9cc:	00130014 00150016 00170000 42c80000     ............B...
8060d9dc:	43c80000 43480000 41480000 41055532     C...CH..AH..A.U2
8060d9ec:	3f800000 46800000 80603fb8 80603fcc     ?...F....`?..`?.
8060d9fc:	80604014 80603fb0 80603fd8 80603fb8     .`@..`?..`?..`?.
8060da0c:	80603fcc 80604014 80603fb0 80603fd8     .`?..`@..`?..`?.
8060da1c:	80603fe0 80603fe8 80603ff0 8060400c     .`?..`?..`?..`@.
8060da2c:	8060400c 80603ff8 8060400c 8060400c     .`@..`?..`@..`@.
8060da3c:	8060400c 80604000 428c0000              .`@..`@.B...

8060da48 <sWarpEntrances.0>:
8060da48:	060004f6 060401f1 056805f4 c3e28000     .........h......
8060da58:	c3678000 431d0000 c35a0000 43270000     .g..C....Z..C'..
8060da68:	3ba3d70a                                ;...

8060da6c <kGreatFairyNPCs>:
8060da6c:	4e4f5052 51530000                       NOPRQS..

8060da74 <kGreatFairyRewards>:
8060da74:	00960097 0098005d 005c005e              .......].\.^

8060da80 <CSWTCH.4>:
8060da80:	00010203 04050706                       ........

8060da88 <kDungeonEntrances>:
8060da88:	00000000 00000004 00000028 00000169     ...........(...i
8060da98:	00000165 00000010 00000037 00000082     ...e.......7....
8060daa8:	80605aa4 80605a5c 80605ba0 80605ba0     .`Z..`Z\.`[..`[.
8060dab8:	80605bfc 80605be4 80605bcc 80605bb4     .`[..`[..`[..`[.
8060dac8:	80605a5c 80605a5c 80605a5c 80605a5c     .`Z\.`Z\.`Z\.`Z\
8060dad8:	80605a5c 80605b88 80605a5c 80605a5c     .`Z\.`[..`Z\.`Z\
8060dae8:	80605a5c 80605afc 80605b14 80605b28     .`Z\.`Z..`[..`[(
8060daf8:	80605ba0 80605aa4 80605a5c 80605a5c     .`[..`Z..`Z\.`Z\
8060db08:	80605a5c 80605a5c 80605b3c 80605b50     .`Z\.`Z\.`[<.`[P
8060db18:	80605a5c 80605a5c 80605a5c 80605a5c     .`Z\.`Z\.`Z\.`Z\
8060db28:	80605a5c 80605a5c 80605a5c 80605a5c     .`Z\.`Z\.`Z\.`Z\
8060db38:	80605a5c 80605a5c 80605a5c 80605a5c     .`Z\.`Z\.`Z\.`Z\
8060db48:	80605a5c 80605a5c 80605a5c 80605a5c     .`Z\.`Z\.`Z\.`Z\
8060db58:	80605a5c 80605a5c 80605a5c 80605a5c     .`Z\.`Z\.`Z\.`Z\
8060db68:	80605a5c 80605aa4 80605aa4 80605aa4     .`Z\.`Z..`Z..`Z.
8060db78:	80605a5c 80605a5c 80605bb4 80605afc     .`Z\.`Z\.`[..`Z.
8060db88:	80605b14 80605b28 80605b3c 80605ba0     .`[..`[(.`[<.`[.
8060db98:	40800000 44800000 80607390 806073a0     @...D....`s..`s.
8060dba8:	8060759c 806073b0 806073c0 806073d0     .`u..`s..`s..`s.
8060dbb8:	806073e0 8060710c 8060712c 80607380     .`s..`q..`q,.`s.
8060dbc8:	8060759c 80607308 80607368 8060759c     .`u..`s..`sh.`u.
8060dbd8:	8060759c 8060759c 8060759c 8060759c     .`u..`u..`u..`u.
8060dbe8:	8060759c 80606c58 80606c60 80606c68     .`u..`lX.`l`.`lh
8060dbf8:	80606c70 80606c78 80606cb0 80606cfc     .`lp.`lx.`l..`l.
8060dc08:	80606fd4 80607008 8060703c 80606c80     .`o..`p..`p<.`l.
8060dc18:	80606c88 80606c90 8060759c 80607070     .`l..`l..`u..`pp
8060dc28:	806070a4 806070d8 80606b54 80606b64     .`p..`p..`kT.`kd
8060dc38:	80606b74 80606c98 80606ca0 80606ca8     .`kt.`l..`l..`l.
8060dc48:	8060759c 8060759c 8060759c 80606d04     .`u..`u..`u..`m.
8060dc58:	8060759c 8060759c 8060759c 80606f9c     .`u..`u..`u..`o.
8060dc68:	80606fb8 80606ba4 80606b84 80606cec     .`o..`k..`k..`l.
8060dc78:	80606f14 80606f38 80606f64 80606cf4     .`o..`o8.`od.`l.
8060dc88:	80606bf0 8060759c 8060759c 8060759c     .`k..`u..`u..`u.
8060dc98:	8060759c 8060759c 80606be0 80606bd0     .`u..`u..`k..`k.
8060dca8:	80606bc0 8060759c 8060759c 8060759c     .`k..`u..`u..`u.
8060dcb8:	8060759c 8060759c 8060759c 8060759c     .`u..`u..`u..`u.
8060dcc8:	8060759c 80606b48 8060759c 8060759c     .`u..`kH.`u..`u.
8060dcd8:	8060759c 8060728c 8060759c 8060759c     .`u..`r..`u..`u.
8060dce8:	8060759c 8060759c 8060759c 8060759c     .`u..`u..`u..`u.
8060dcf8:	8060759c 8060759c 80606c20 80606c00     .`u..`u..`l .`l.
8060dd08:	80606c28 80606c38 80606c30 8060759c     .`l(.`l8.`l0.`u.
8060dd18:	8060759c 80606c08 8060759c 8060759c     .`u..`l..`u..`u.
8060dd28:	8060759c 8060759c 8060759c 8060759c     .`u..`u..`u..`u.
8060dd38:	8060759c 8060759c 8060759c 80606c10     .`u..`u..`u..`l.
8060dd48:	8060759c 8060759c 8060759c 80606c40     .`u..`u..`u..`l@
8060dd58:	80606c18 8060759c 8060759c 8060759c     .`l..`u..`u..`u.
8060dd68:	8060759c 8060759c 8060759c 8060759c     .`u..`u..`u..`u.
8060dd78:	8060759c 80606da4 80606e04 80606e64     .`u..`m..`n..`nd
8060dd88:	80606ec4 80606ea4 80606eb4 80606d64     .`n..`n..`n..`md
8060dd98:	80606dd4 80606db4 80606e94 80606e14     .`m..`m..`n..`n.
8060dda8:	80606e24 80606d54 80606e44 80606d94     .`n$.`mT.`nD.`m.
8060ddb8:	80606e84 80606de4 80606e74 80606e54     .`n..`m..`nt.`nT
8060ddc8:	80606d84 80606dc4 80606d74 80606df4     .`m..`m..`mt.`m.
8060ddd8:	80606e34 8060759c 80606c50 80606c48     .`n4.`u..`lP.`lH
8060dde8:	8060759c 8060759c 80606c40 80606d0c     .`u..`u..`l@.`m.
8060ddf8:	80606d14 80606d1c 80606d24 80606d2c     .`m..`m..`m$.`m,
8060de08:	8060759c 8060759c 8060759c 8060759c     .`u..`u..`u..`u.
8060de18:	8060759c 80606d34 80606d3c 8060759c     .`u..`m4.`m<.`u.
8060de28:	8060759c 8060759c 8060759c 8060759c     .`u..`u..`u..`u.
8060de38:	8060759c 8060759c 8060759c 80606d44     .`u..`u..`u..`mD
8060de48:	80606d4c 8060759c 8060759c 8060759c     .`mL.`u..`u..`u.
8060de58:	8060759c 8060759c 8060759c 8060759c     .`u..`u..`u..`u.
8060de68:	8060759c 8060759c 8060759c 8060759c     .`u..`u..`u..`u.
8060de78:	8060759c 8060759c 8060759c 8060759c     .`u..`u..`u..`u.
8060de88:	80606ed4 80606ef4 806074ac 806074c8     .`n..`n..`t..`t.
8060de98:	8060717c 80607194 806071ac 806071c4     .`q|.`q..`q..`q.
8060dea8:	806071dc 806071f4 8060720c 80607224     .`q..`q..`r..`r$
8060deb8:	8060723c 80607254 80607270 806072a8     .`r<.`rT.`rp.`r.
8060dec8:	806072c0 806072d8 806072f0 8060759c     .`r..`r..`r..`u.
8060ded8:	80606f88 8060714c 80607164 806073f0     .`o..`qL.`qd.`s.
8060dee8:	806073f8 80607400 80607408 80607410     .`s..`t..`t..`t.
8060def8:	80607428 80607440 80607458 80607470     .`t(.`t@.`tX.`tp
8060df08:	80607478 80607480 80607488 80607490     .`tx.`t..`t..`t.
8060df18:	806074e0 806074f8 80607510 80607528     .`t..`t..`u..`u(
8060df28:	80607540 80607558 80607570 80607588     .`u@.`uX.`up.`u.

8060df38 <kMmTrade3>:
8060df38:	2f300000                                /0..

8060df3c <kMmTrade2>:
8060df3c:	2d2e0000                                -...

8060df40 <kMmTrade1>:
8060df40:	28292a2b 2c000000 44656b75 00000000     ()*+,...Deku....
8060df50:	446f646f 6e676f00 4a616275 00000000     Dodongo.Jabu....
8060df60:	57617465 72000000 53686164 6f770000     Water...Shadow..
8060df70:	53706972 69740000 49636500 48696465     Spirit..Ice.Hide
8060df80:	6f757400 47544700 47616e6f 6e000000     out.GTG.Ganon...
8060df90:	576f6f64 66616c6c 00000000 536e6f77     Woodfall....Snow
8060dfa0:	68656164 00000000 47726561 74204261     head....Great Ba
8060dfb0:	79000000 53746f6e 6520546f 77657200     y...Stone Tower.
8060dfc0:	546f6b65 6e730000                       Tokens..

8060dfc8 <kFairyColors>:
8060dfc8:	ba5084ff 45852bff 7f65ccff c2c164ff     .P..E.+..e....d.
8060dfd8:	bc702dff 41400000 41000000 3c000000     .p-.A@..A...<...
8060dfe8:	3f000000 bf000000 42580000 42dc0000     ?.......BX..B...
8060dff8:	42800000 42980000 c0c00000 40c00000     B...B.......@...
8060e008:	42080000 42380000 42940000 42ac0000     B...B8..B...B...
8060e018:	41900000 4f6f542b 4d4d3c33 00000000     A...OoT+MM<3....
8060e028:	80608a94 80608a7c 80608b80 80608ab4     .`...`.|.`...`..
8060e038:	80608b20 80608bc0 80608a64 80608b90     .`. .`...`.d.`..
8060e048:	80608b98 80608bd0 806094e0 80608b70     .`...`...`...`.p
8060e058:	80608bfc 80609538 80608c2c 80608c44     .`...`.8.`.,.`.D
8060e068:	80608c54 80608c4c 80609834 80608c3c     .`.T.`.L.`.4.`.<
8060e078:	80608c34 80608be0 806094f0 806094f8     .`.4.`...`...`..
8060e088:	806094d8 806094e8 80609500 80609520     .`...`...`...`. 
8060e098:	80609528 80609530 80609540 80609548     .`.(.`.0.`.@.`.H
8060e0a8:	80609550 80609558 80609560 80609568     .`.P.`.X.`.`.`.h
8060e0b8:	80609570 80609578 80608c7c 80608cac     .`.p.`.x.`.|.`..
8060e0c8:	80608d10 80608d3c 80608d54 80608d78     .`...`.<.`.T.`.x
8060e0d8:	80608d90 80608da8 80608dc0 80608ee8     .`...`...`...`..
8060e0e8:	80608f1c 80608f50 80608f84 80608fb8     .`...`.P.`...`..
8060e0f8:	80608df8 80608e18 80608e38 80608e58     .`...`...`.8.`.X
8060e108:	8060923c 80609220 80608b68 80608b58     .`.<.`. .`.h.`.X
8060e118:	806091e0 80609180 80609834 80609834     .`...`...`.4.`.4
8060e128:	80609834 80609834 80609834 80609834     .`.4.`.4.`.4.`.4
8060e138:	80608fec 8060900c 806094d0 806094c0     .`...`...`...`..
8060e148:	80608ae8 80608af0 80608af8 80609470     .`...`...`...`.p
8060e158:	80609480 80609490 806091e0 80608c74     .`...`...`...`.t
8060e168:	80609508 80609510 80609518 80608dd8     .`...`...`...`..
8060e178:	806094a0 806094b0 80608ccc 80608b00     .`...`...`...`..
8060e188:	80608ba0 80608c0c 806091f8 80608b10     .`...`...`...`..
8060e198:	80608bb0 80608c1c 80608b20 80608e78     .`...`...`. .`.x
8060e1a8:	80608a6c 80608a74 80608a7c 80608a84     .`.l.`.t.`.|.`..
8060e1b8:	80608a8c 80608a9c 80608aa4 80608aac     .`...`...`...`..
8060e1c8:	80608b60 80608b78 80608b88 80608c5c     .`.`.`.x.`...`.\
8060e1d8:	80608c6c 80608c64 80609834 80609834     .`.l.`.d.`.4.`.4
8060e1e8:	80609834 80609470 80609480 80609490     .`.4.`.p.`...`..
8060e1f8:	806094a0 80609180 806090e8 80609120     .`...`...`...`. 
8060e208:	80609070 806090ac 80608eb0 80609834     .`.p.`...`...`.4
8060e218:	80609834 80609834 80609834 806093c8     .`.4.`.4.`.4.`..
8060e228:	806093b0 80609398 80609380 80609368     .`...`...`...`.h
8060e238:	80609350 80609338 80609314 806092fc     .`.P.`.8.`...`..
8060e248:	806092e4 806092c8 806092ac 80608c94     .`...`...`...`..
8060e258:	80609290 80609274 80609258 80609458     .`...`.t.`.X.`.X
8060e268:	80609440 80609428 80609410 806093f8     .`.@.`.(.`...`..
8060e278:	806093e0 8060902c 8060904c 80609158     .`...`.,.`.L.`.X
8060e288:	80608cfc 80608d28 80609580 80609588     .`...`.(.`...`..
8060e298:	80609590 80609598 806095a0 806095a8     .`...`...`...`..
8060e2a8:	806095b0 806095b8 806095c0 806095c8     .`...`...`...`..
8060e2b8:	806095e0 806095f8 80609610 80609628     .`...`...`...`.(
8060e2c8:	80609640 80609658 80609670 80609688     .`.@.`.X.`.p.`..
8060e2d8:	806096a0 806096b8 806096d0 806096e8     .`...`...`...`..
8060e2e8:	80609700 80609718 80609730 80609748     .`...`...`.0.`.H
8060e2f8:	80609760 80609778 80609790 806097a8     .`.`.`.x.`...`..
8060e308:	806097c0 806097d8 806097f0 80609808     .`...`...`...`..
8060e318:	80609820                                .`. 

8060e31c <kOotTradeChild>:
8060e31c:	21222324 25262728 292a2b00              !"#$%&'()*+.

8060e328 <kOotTradeAdult>:
8060e328:	2d2e2f30 31323334 35363700 00000000     -./01234567.....
	...

8060e340 <kObjectPatches>:
8060e340:	00af0378 04180bc8 0c901868 19600000     ...x.......h.`..
8060e350:	00000097 09b80a98 0be00000 00000000     ................
8060e360:	00000000 00c605b8 06c00000 00000000     ................
8060e370:	00000000 000000a5 09d80c40 00000000     ...........@....
	...
8060e388:	00b004e8 00000000 00000000 00000000     ................
8060e398:	00000098 0bb80db0 00000000 00000000     ................
8060e3a8:	00000000 00920cd8 0f400000 00000000     .........@......
8060e3b8:	00000000 0000009e 06a80788 00000000     ................
	...
8060e3d0:	00910998 0c800000 00000000 00000000     ................
8060e3e0:	000000c7 06380760 08580000 00000000     .....8.`.X......
8060e3f0:	00000000 013909c8 0b000c18 00000000     .....9..........
8060e400:	00000000 000000c0 0db81048 00000000     ...........H....
	...
8060e418:	00900110 00000000 00000000 00000000     ................
8060e428:	00000096 12c814a8 15c81600 16f00000     ................
8060e438:	00000000 01370868 0b580000 00000000     .....7.h.X......
8060e448:	00000000 00000086 08380000 00000000     .........8......
	...
8060e460:	01000af8 00000000 00000000 00000000     ................
8060e470:	000000c1 146016c0 172017b8 00000000     .....`... ......
8060e480:	00000000 00cb0638 08480000 00000000     .......8.H......
8060e490:	00000000 00000121 0b180bb8 0d280000     .......!.....(..
	...
8060e4a8:	00a405b8 0f180000 00000000 00000000     ................
8060e4b8:	000000a0 04900ba8 00000000 00000000     ................
8060e4c8:	00000000 008f0af8 00000000 00000000     ................
8060e4d8:	00000000 000000b6 10981158 12c00000     ...........X....
	...
8060e4f0:	009410f8 00000000 00000000 00000000     ................
8060e500:	000000b5 08f80000 00000000 00000000     ................
8060e510:	00000000 01030bf8 00000000 00000000     ................
8060e520:	00000000 0000013f 06480758 00000000     .......?.H.X....
	...
8060e538:	013a0c08 0df00f50 00000000 00000000     .:.....P........
8060e548:	0000009f 05080000 00000000 00000000     ................
8060e558:	00000000 01250368 047004a8 052805e8     .....%.h.p...(..
8060e568:	00000000 00000104 140816e8 00000000     ................
	...

8060e580 <kExtraObjectsTable>:
8060e580:	04000000 04000000 0508b000 0511d5e0     ................
8060e590:	0511e000 05127290 05128000 0514b280     ......r.........
8060e5a0:	05c74000 05c7cc50 051eb000 051ef680     ..@....P........
8060e5b0:	055ca000 055cb0d0 05cab000 05cb4e80     .\...\........N.
8060e5c0:	051fb000 052178c0 051f0000 051fa070     .....!x........p
8060e5d0:	0521a000 05223940 05218000 052198c0     .!..."9@.!...!..
8060e5e0:	051e2000 051ea120 05d05000 05d12bf0     .. .... ..P...+.
8060e5f0:	05250000 052510c0 05224000 05226540     .%...%..."@.."e@
8060e600:	0514d000 0515a890 0515b000 05179250     ...............P
8060e610:	05227000 0522aa30 05d13000 05d1b6c0     ."p..".0..0.....
8060e620:	0522b000 0522cc90 05e0e000 05e202e0     ."..."..........
8060e630:	05e28000 05e296a0 0522d000 0523a640     ........."...#.@
8060e640:	05e22000 05e27a90 0523b000 0524f3c0     .. ...z..#...$..
8060e650:	05e2a000 05e328d0 04000000 04000000     ......(.........
8060e660:	05252000 05261800 05262000 05265e40     .% ..&...& ..&^@
8060e670:	04000000 04000000 04000000 04000000     ................
8060e680:	05266000 0526bbb0 04000000 04000000     .&`..&..........
8060e690:	0526c000 052723e0 04000000 04000000     .&...'#.........
8060e6a0:	04000000 04000000 04000000 04000000     ................
8060e6b0:	04000000 04000000 04000000 04000000     ................
8060e6c0:	04000000 04000000 04000000 04000000     ................
8060e6d0:	05273000 05274a00 04000000 04000000     .'0..'J.........
8060e6e0:	04000000 04000000 04000000 04000000     ................
8060e6f0:	04000000 04000000 04000000 04000000     ................
8060e700:	05275000 0527ad30 0527b000 0527e9c0     .'P..'.0.'...'..
8060e710:	04000000 04000000 04000000 04000000     ................
8060e720:	04000000 04000000 04000000 04000000     ................
8060e730:	04000000 04000000 04000000 04000000     ................
8060e740:	04000000 04000000 04000000 04000000     ................
8060e750:	04000000 04000000 04000000 04000000     ................
8060e760:	04000000 04000000 04000000 04000000     ................
8060e770:	0527f000 05287c00 05288000 05288640     .'...(|..(...(.@
8060e780:	05289000 0528c790 04000000 04000000     .(...(..........
8060e790:	04000000 04000000 04000000 04000000     ................
8060e7a0:	04000000 04000000 04000000 04000000     ................
8060e7b0:	04000000 04000000 04000000 04000000     ................
8060e7c0:	04000000 04000000 04000000 04000000     ................
8060e7d0:	04000000 04000000 04000000 04000000     ................
8060e7e0:	04000000 04000000 04000000 04000000     ................
8060e7f0:	04000000 04000000 04000000 04000000     ................
8060e800:	04000000 04000000 0528d000 0528ea40     .........(...(.@
8060e810:	0528f000 0529bbd0 04000000 04000000     .(...)..........
8060e820:	04000000 04000000 04000000 04000000     ................
8060e830:	04000000 04000000 04000000 04000000     ................
8060e840:	04000000 04000000 04000000 04000000     ................
8060e850:	04000000 04000000 04000000 04000000     ................
8060e860:	05591000 05595670 05597000 055a0940     .Y...YVp.Yp..Z.@
8060e870:	04000000 04000000 0529c000 0529efe0     .........)...)..
8060e880:	04000000 04000000 0529f000 052a87c0     .........)...*..
8060e890:	04000000 04000000 04000000 04000000     ................
8060e8a0:	052a9000 052ab3e0 04000000 04000000     .*...*..........
8060e8b0:	04000000 04000000 04000000 04000000     ................
8060e8c0:	04000000 04000000 04000000 04000000     ................
8060e8d0:	052ac000 052aff70 04000000 04000000     .*...*.p........
8060e8e0:	04000000 04000000 04000000 04000000     ................
8060e8f0:	04000000 04000000 04000000 04000000     ................
8060e900:	052b0000 052b17d0 04000000 04000000     .+...+..........
8060e910:	04000000 04000000 04000000 04000000     ................
8060e920:	04000000 04000000 052b2000 052c4180     .........+ ..,A.
8060e930:	052c5000 052c70a0 04000000 04000000     .,P..,p.........
8060e940:	04000000 04000000 04000000 04000000     ................
8060e950:	04000000 04000000 04000000 04000000     ................
8060e960:	04000000 04000000 052c8000 052d64f0     .........,...-d.
8060e970:	04000000 04000000 04000000 04000000     ................
8060e980:	052d7000 052dac90 04000000 04000000     .-p..-..........
8060e990:	04000000 04000000 04000000 04000000     ................
8060e9a0:	052db000 052dc2f0 04000000 04000000     .-...-..........
8060e9b0:	052dd000 052dda20 052de000 052ded60     .-...-. .-...-.`
8060e9c0:	052df000 052f75c0 04000000 04000000     .-.../u.........
8060e9d0:	052f8000 052ffba0 04000000 04000000     ./.../..........
8060e9e0:	04000000 04000000 04000000 04000000     ................
8060e9f0:	05300000 05302ca0 05303000 05303d20     .0...0,..00..0= 
8060ea00:	05304000 053041f0 05305000 05305d10     .0@..0A..0P..0].
8060ea10:	05306000 05307010 04000000 04000000     .0`..0p.........
8060ea20:	05308000 053091c0 04000000 04000000     .0...0..........
8060ea30:	0530a000 0530b7b0 0530c000 0530ccb0     .0...0...0...0..
8060ea40:	0530d000 0530de60 0530e000 0532afb0     .0...0.`.0...2..
8060ea50:	04000000 04000000 04000000 04000000     ................
8060ea60:	04000000 04000000 0532b000 0532dc90     .........2...2..
8060ea70:	0532e000 0532e8f0 0532f000 0532f6c0     .2...2...2...2..
8060ea80:	05330000 05331160 05332000 05346d90     .3...3.`.3 ..4m.
8060ea90:	05347000 053568d0 04000000 04000000     .4p..5h.........
8060eaa0:	05357000 053581d0 05359000 05359cb0     .5p..5...5...5..
8060eab0:	04000000 04000000 0535a000 05370730     .........5...7.0
8060eac0:	05371000 05372b70 04000000 04000000     .7...7+p........
8060ead0:	04000000 04000000 05373000 05373e00     .........70..7>.
8060eae0:	04000000 04000000 04000000 04000000     ................
8060eaf0:	04000000 04000000 05374000 05375b10     .........7@..7[.
8060eb00:	05376000 053766a0 04000000 04000000     .7`..7f.........
8060eb10:	04000000 04000000 05377000 05378ec0     .........7p..7..
8060eb20:	05379000 0537a450 0537b000 0537bbb0     .7...7.P.7...7..
8060eb30:	0537c000 0537d470 0537e000 05399780     .7...7.p.7...9..
8060eb40:	04000000 04000000 04000000 04000000     ................
8060eb50:	04000000 04000000 0539a000 0539c330     .........9...9.0
8060eb60:	0539d000 053a8550 04000000 04000000     .9...:.P........
8060eb70:	04000000 04000000 053a9000 053aa2f0     .........:...:..
8060eb80:	053ab000 053ac180 053ad000 053ae8d0     .:...:...:...:..
8060eb90:	053af000 053ba8c0 053bb000 053bcc00     .:...;...;...;..
8060eba0:	04000000 04000000 04000000 04000000     ................
8060ebb0:	053bd000 053bd8c0 053be000 053be950     .;...;...;...;.P
8060ebc0:	04000000 04000000 04000000 04000000     ................
8060ebd0:	04000000 04000000 053bf000 053bf8c0     .........;...;..
8060ebe0:	04000000 04000000 04000000 04000000     ................
8060ebf0:	04000000 04000000 04000000 04000000     ................
8060ec00:	053c0000 053d1440 04000000 04000000     .<...=.@........
8060ec10:	053d2000 053d3590 04000000 04000000     .= ..=5.........
8060ec20:	04000000 04000000 053d4000 053d4110     .........=@..=A.
8060ec30:	053d5000 053d57a0 053d6000 053dd770     .=P..=W..=`..=.p
8060ec40:	053de000 053f16b0 053f2000 053f79b0     .=...?...? ..?y.
8060ec50:	053f8000 053fa9d0 04000000 04000000     .?...?..........
8060ec60:	04000000 04000000 05c4d000 05c4fa60     ...............`
8060ec70:	053fb000 05400b70 05401000 0540b0a0     .?...@.p.@...@..
8060ec80:	05c48000 05c4c2e0 04000000 04000000     ................
8060ec90:	0540c000 0541fe30 05420000 054337c0     .@...A.0.B...C7.
8060eca0:	05434000 054374d0 05438000 0543cf20     .C@..Ct..C...C. 
8060ecb0:	0543d000 054491e0 0544a000 0544ae50     .C...D...D...D.P
8060ecc0:	04000000 04000000 04000000 04000000     ................
8060ecd0:	04000000 04000000 04000000 04000000     ................
8060ece0:	0544b000 0544c760 0544d000 0544f330     .D...D.`.D...D.0
8060ecf0:	05450000 054526a0 05453000 0545d5a0     .E...E&..E0..E..
8060ed00:	0545e000 05465160 05466000 05473340     .E...FQ`.F`..G3@
8060ed10:	05474000 05475ca0 05476000 05476010     .G@..G\..G`..G`.
8060ed20:	05477000 0547add0 0547b000 05481270     .Gp..G...G...H.p
8060ed30:	04000000 04000000 05482000 05484420     .........H ..HD 
8060ed40:	05485000 05485380 05486000 054879f0     .HP..HS..H`..Hy.
8060ed50:	04000000 04000000 04000000 04000000     ................
8060ed60:	05488000 054897b0 0548a000 0549a5d0     .H...H...H...I..
8060ed70:	0549b000 054a1cb0 054a2000 054a8ca0     .I...J...J ..J..
8060ed80:	054a9000 054a9df0 04000000 04000000     .J...J..........
8060ed90:	054aa000 054ab8c0 054ac000 054acf00     .J...J...J...J..
8060eda0:	054ad000 054ae860 04000000 04000000     .J...J.`........
8060edb0:	054af000 054afa80 054b0000 054bda60     .J...J...K...K.`
8060edc0:	04000000 04000000 04000000 04000000     ................
8060edd0:	04000000 04000000 04000000 04000000     ................
8060ede0:	04000000 04000000 04000000 04000000     ................
8060edf0:	04000000 04000000 054be000 054c4a20     .........K...LJ 
8060ee00:	054c5000 054d5b80 04000000 04000000     .LP..M[.........
8060ee10:	04000000 04000000 054d6000 054d64d0     .........M`..Md.
8060ee20:	04000000 04000000 054d7000 054f6e50     .........Mp..OnP
8060ee30:	04000000 04000000 04000000 04000000     ................
8060ee40:	04000000 04000000 054f7000 054f8d20     .........Op..O. 
8060ee50:	054f9000 054fa760 04000000 04000000     .O...O.`........
8060ee60:	04000000 04000000 054fb000 055031c0     .........O...P1.
8060ee70:	04000000 04000000 05504000 05505200     .........P@..PR.
8060ee80:	04000000 04000000 05506000 05506e80     .........P`..Pn.
8060ee90:	05507000 0550b270 04000000 04000000     .Pp..P.p........
8060eea0:	0550c000 055215f0 05522000 05522650     .P...R...R ..R&P
8060eeb0:	04000000 04000000 05523000 05529d90     .........R0..R..
8060eec0:	0552a000 0553d400 0553e000 0554fb70     .R...S...S...T.p
8060eed0:	05550000 05556a70 05557000 0555a140     .U...Ujp.Up..U.@
8060eee0:	0555b000 05564230 04000000 04000000     .U...VB0........
8060eef0:	05565000 0556f360 04000000 04000000     .VP..V.`........
8060ef00:	05570000 0557b100 04000000 04000000     .W...W..........
8060ef10:	0557c000 05584100 05585000 055861c0     .W...XA..XP..Xa.
8060ef20:	05587000 0558a500 0558b000 0558db80     .Xp..X...X...X..
8060ef30:	04000000 04000000 0558e000 0558ebf0     .........X...X..
8060ef40:	04000000 04000000 0558f000 0558fdb0     .........X...X..
8060ef50:	05590000 05590fb0 04000000 04000000     .Y...Y..........
8060ef60:	04000000 04000000 04000000 04000000     ................
8060ef70:	04000000 04000000 05596000 05596840     .........Y`..Yh@
8060ef80:	055a1000 055acae0 055ad000 055b73e0     .Z...Z...Z...[s.
8060ef90:	055b8000 055beda0 055bf000 055bfa80     .[...[...[...[..
8060efa0:	055c0000 055c7910 055c8000 055c9b00     .\...\y..\...\..
8060efb0:	055cc000 055d0eb0 04000000 04000000     .\...]..........
8060efc0:	055d1000 055d2220 04000000 04000000     .]...]" ........
8060efd0:	04000000 04000000 055d3000 055f7f60     .........]0.._.`
8060efe0:	0517a000 05191a90 05192000 051a4c40     .......... ...L@
8060eff0:	055f8000 055fd260 055fe000 055fee90     ._..._.`._..._..
8060f000:	04000000 04000000 04000000 04000000     ................
8060f010:	04000000 04000000 055ff000 05604ca0     ........._...`L.
8060f020:	051a5000 051b0a30 05605000 05610600     ..P....0.`P..a..
8060f030:	05611000 05633cc0 05634000 056352c0     .a...c<..c@..cR.
8060f040:	05636000 056386b0 04000000 04000000     .c`..c..........
8060f050:	05639000 0565b560 0565c000 0566f9a0     .c...e.`.e...f..
8060f060:	05670000 0567dac0 0567e000 05682600     .g...g...g...h&.
8060f070:	05683000 0568a920 0568b000 0568b000     .h0..h. .h...h..
8060f080:	0568b000 056d1b30 056d2000 056d5440     .h...m.0.m ..mT@
8060f090:	056d6000 056d65c0 056d7000 056deeb0     .m`..me..mp..m..
8060f0a0:	056df000 056f31b0 056f4000 056f5640     .m...o1..o@..oV@
8060f0b0:	056f6000 056f6fb0 056f7000 056f8ae0     .o`..oo..op..o..
8060f0c0:	04000000 04000000 056f9000 05706330     .........o...pc0
8060f0d0:	05707000 05708c70 05709000 0570d350     .pp..p.p.p...p.P
8060f0e0:	0570e000 0570fbe0 05710000 05713a70     .p...p...q...q:p
8060f0f0:	04000000 04000000 05714000 05715b00     .........q@..q[.
8060f100:	05716000 0571aa70 0571b000 0571d0f0     .q`..q.p.q...q..
8060f110:	0571e000 0571eca0 0571f000 05722430     .q...q...q...r$0
8060f120:	05723000 05726410 05727000 0572a410     .r0..rd..rp..r..
8060f130:	0572b000 0572c040 04000000 04000000     .r...r.@........
8060f140:	0572d000 05738330 05739000 0573a0a0     .r...s.0.s...s..
8060f150:	0573b000 0573b510 04000000 04000000     .s...s..........
8060f160:	04000000 04000000 04000000 04000000     ................
8060f170:	0573c000 05741220 05742000 05744910     .s...t. .t ..tI.
8060f180:	05745000 05746100 05747000 05748870     .tP..ta..tp..t.p
8060f190:	05749000 0574d410 04000000 04000000     .t...t..........
8060f1a0:	0574e000 05766e60 05767000 057745c0     .t...vn`.vp..wE.
8060f1b0:	05775000 05777450 05778000 05779ae0     .wP..wtP.w...w..
8060f1c0:	0577a000 05784b40 05785000 05789dc0     .w...xK@.xP..x..
8060f1d0:	0578a000 0578ae30 0578b000 0579a520     .x...x.0.x...y. 
8060f1e0:	0579b000 057acc80 057ad000 057c01f0     .y...z...z...|..
8060f1f0:	057c1000 057dc5e0 057dd000 057ecf00     .|...}...}...~..
8060f200:	057ed000 057fd440 057fe000 05801950     .~.....@.......P
8060f210:	05802000 0581f3e0 04000000 04000000     .. .............
8060f220:	04000000 04000000 05820000 0583d530     ...............0
8060f230:	0583e000 0583efd0 0583f000 058405c0     ................
8060f240:	05841000 0585bdd0 0585c000 0585e0d0     ................
8060f250:	0585f000 058636c0 05864000 05866500     ......6...@...e.
8060f260:	05867000 058688a0 05869000 0587e0f0     ..p.............
8060f270:	0587f000 05885bd0 05886000 05897470     ......[...`...tp
8060f280:	05898000 0589b830 0589c000 0589f250     .......0.......P
8060f290:	058a0000 058b10c0 058b2000 058d2560     .......... ...%`
8060f2a0:	058d3000 058d39a0 058d4000 058d4a50     ..0...9...@...JP
8060f2b0:	058d5000 058dd250 058de000 058df1e0     ..P....P........
8060f2c0:	058e0000 058e0b00 058e1000 058ea310     ................
8060f2d0:	058eb000 058f3180 058f4000 05908320     ......1...@.... 
8060f2e0:	05909000 0591a220 0591b000 0591dd70     ....... .......p
8060f2f0:	0591e000 05920000 05920000 0592ba00     ................
8060f300:	0592c000 0594cdd0 0594d000 0594ec70     ...............p
8060f310:	0594f000 05950610 05951000 05951bb0     ................
8060f320:	05952000 05952e50 05953000 05954e30     .. ....P..0...N0
8060f330:	05955000 05962c90 05963000 05965aa0     ..P...,...0...Z.
8060f340:	05966000 0597d960 0597e000 0597f0d0     ..`....`........
8060f350:	05980000 05980750 05981000 05996440     .......P......d@
8060f360:	05997000 059985d0 05999000 0599ac30     ..p............0
8060f370:	0599b000 059d5910 059d6000 059d7ef0     ......Y...`...~.
8060f380:	059d8000 059dbe10 059dc000 059e42c0     ..............B.
8060f390:	059e5000 059e7ff0 059e8000 059ed0e0     ..P.............
8060f3a0:	059ee000 059f5730 059f6000 059fc5d0     ......W0..`.....
8060f3b0:	059fd000 05a0fb00 05a10000 05a129b0     ..............).
8060f3c0:	05a13000 05a28130 05a29000 05a2ac10     ..0....0........
8060f3d0:	05a2b000 05a2c930 05a2d000 05a2ea90     .......0........
8060f3e0:	05a2f000 05a3bb90 05a3c000 05a3e3c0     ................
8060f3f0:	05a3f000 05a449b0 05a45000 05a540e0     ......I...P...@.
8060f400:	05a55000 05a650e0 05a66000 05a68fe0     ..P...P...`.....
8060f410:	05a69000 05a6cd00 05a6d000 05a6d9c0     ................
8060f420:	05a6e000 05a80440 05a81000 05a940e0     .......@......@.
8060f430:	05a95000 05aa5ba0 05aa6000 05aaceb0     ..P...[...`.....
8060f440:	05aad000 05ab4780 051d6000 051d73f0     ......G...`...s.
8060f450:	051b1000 051b1ad0 051b2000 051b33a0     .......... ...3.
8060f460:	051b4000 051b56e0 051d4000 051d5200     ..@...V...@...R.
8060f470:	051b6000 051b72a0 05ab5000 05ac6720     ..`...r...P...g 
8060f480:	05ac7000 05ace840 051d8000 051d97b0     ..p....@........
8060f490:	051da000 051db090 051dc000 051de0e0     ................
8060f4a0:	051df000 051e10d0 05acf000 05ada2d0     ................
8060f4b0:	05adb000 05ae1870 05ae2000 05ae2cc0     .......p.. ...,.
8060f4c0:	05ae3000 05ae4140 05ae5000 05ae6320     ..0...A@..P...c 
8060f4d0:	05ae7000 05ae8ac0 05ae9000 05aea3a0     ..p.............
8060f4e0:	05aeb000 05aefb40 05af0000 05af4ad0     .......@......J.
8060f4f0:	05af5000 05afa210 05afb000 05afc440     ..P............@
8060f500:	05afd000 05afe7d0 05aff000 05b04c20     ..............L 
8060f510:	05b05000 05b05420 05b06000 05b14210     ..P...T ..`...B.
8060f520:	05b15000 05b15080 05b16000 05b1e3c0     ..P...P...`.....
8060f530:	05b1f000 05b1fa60 05b20000 05b23390     .......`......3.
8060f540:	05b24000 05b3f220 05b40000 05b41560     ..@.... .......`
8060f550:	05b42000 05b432a0 05b44000 05b45460     .. ...2...@...T`
8060f560:	05b46000 05b5fe20 051b8000 051b8da0     ..`.... ........
8060f570:	051b9000 051ba360 051bb000 051bc5c0     .......`........
8060f580:	051bd000 051c04b0 05b60000 05b61ef0     ................
8060f590:	05b62000 05b639e0 05b64000 05b79ba0     .. ...9...@.....
8060f5a0:	05b7a000 05b89900 05b8a000 05b8d140     ...............@
8060f5b0:	05b8e000 05bb7180 05bb8000 05bbce20     ......q........ 
8060f5c0:	05bbd000 05bbf980 05bc0000 05bc1760     ...............`
8060f5d0:	05bc2000 05bc3f80 05bc4000 05bc5b60     .. ...?...@...[`
8060f5e0:	05bc6000 05bd4ee0 05bd5000 05bd6b60     ..`...N...P...k`
8060f5f0:	05bd7000 05be28a0 05be3000 05be4030     ..p...(...0...@0
8060f600:	05be5000 05be60e0 05be7000 05bf8160     ..P...`...p....`
8060f610:	05bf9000 05c0a8b0 05c0b000 05c0f2c0     ................
8060f620:	051c1000 051c1ca0 05c10000 05c10f00     ................
8060f630:	05c11000 05c1e9c0 05c1f000 05c22370     ..............#p
8060f640:	05c23000 05c24460 051c2000 051c3a10     ..0...D`.. ...:.
8060f650:	05c25000 05c25010 05c26000 05c272a0     ..P...P...`...r.
8060f660:	05c28000 05c292a0 05c2a000 05c2ade0     ................
8060f670:	05c2b000 05c2e4f0 05c2f000 05c30cc0     ................
8060f680:	05c31000 05c47990 051c4000 051c4b50     ......y...@...KP
8060f690:	05c50000 05c50df0 05c51000 05c54e20     ..............N 
8060f6a0:	05c55000 05c57960 05c58000 05c58f00     ..P...y`........
8060f6b0:	05c59000 05c5a510 05c5b000 05c5cca0     ................
8060f6c0:	05c5d000 05c5e860 05c5f000 05c73ea0     .......`......>.
8060f6d0:	05c7d000 05c93600 05c94000 05caa270     ......6...@....p
8060f6e0:	05cb5000 05cb6d40 04000000 04000000     ..P...m@........
8060f6f0:	04000000 04000000 04000000 04000000     ................
8060f700:	05cb7000 05cb8650 05cb9000 05cba610     ..p....P........
8060f710:	05cbb000 05cbc4d0 05cbd000 05cbe660     ...............`
8060f720:	05cbf000 05cc3b20 05cc4000 05cc4bb0     ......; ..@...K.
8060f730:	05cc5000 05cd2e80 05cd3000 05ce6190     ..P.......0...a.
8060f740:	05ce7000 05cf5180 05cf6000 05cf71e0     ..p...Q...`...q.
8060f750:	05cf8000 05d04890 05d50000 05d50ac0     ......H.........
8060f760:	05d1c000 05d1ecf0 05d51000 05d52940     ..............)@
8060f770:	05d53000 05d57e60 05d58000 05d58e80     ..0...~`........
8060f780:	05d59000 05d5a2a0 05d1f000 05d2a510     ................
8060f790:	05d2b000 05d2ceb0 05d2d000 05d2ee10     ................
8060f7a0:	05d2f000 05d31640 05d32000 05d336e0     .......@.. ...6.
8060f7b0:	05d34000 05d36a10 05d37000 05d3f1b0     ..@...j...p.....
8060f7c0:	05d5b000 05d67050 05d40000 05d4dcc0     ......pP........
8060f7d0:	05d68000 05d6df60 05d6e000 05d7b8f0     .......`........
8060f7e0:	051c5000 051c6690 05d4e000 05d4f820     ..P...f........ 
8060f7f0:	051c7000 051c8040 05d7c000 05d7e3a0     ..p....@........
8060f800:	05d7f000 05d80ce0 05d81000 05d82230     .............."0
8060f810:	051c9000 051cada0 05d83000 05d848c0     ..........0...H.
8060f820:	05d85000 05d86350 05d87000 05d87f40     ..P...cP..p....@
8060f830:	05d88000 05d90090 05d91000 05d932e0     ..............2.
8060f840:	05d94000 05d95ac0 05d96000 05d97e90     ..@...Z...`...~.
8060f850:	05d98000 05d99840 05d9a000 05d9cea0     .......@........
8060f860:	051cb000 051cde90 051ce000 051cfaa0     ................
8060f870:	051d0000 051d1ce0 051d2000 051d3b50     .......... ...;P
8060f880:	05d9d000 05d9e150 05d9f000 05da0a00     .......P........
8060f890:	05da1000 05da22f0 05da3000 05da91b0     ......"...0.....
8060f8a0:	05daa000 05db1fc0 05db2000 05db38e0     .......... ...8.
8060f8b0:	05db4000 05db5fd0 05db6000 05db84d0     ..@..._...`.....
8060f8c0:	05db9000 05dc63e0 05dc7000 05dcf8a0     ......c...p.....
8060f8d0:	05dd0000 05dd3210 05dd4000 05dd5470     ......2...@...Tp
8060f8e0:	05dd6000 05dd7790 05dd8000 05dd93b0     ..`...w.........
8060f8f0:	05dda000 05ddb2f0 05ddc000 05de0da0     ................
8060f900:	05de1000 05df3a00 05df4000 05e0beb0     ......:...@.....
8060f910:	05e0c000 05e0d260 05e21000 05e21bd0     .......`........
8060f920:	05e33000 05e346b0 05e35000 05e366b0     ..0...F...P...f.
8060f930:	05e37000 05e386b0 05e3d000 05e42f60     ..p.........../`
8060f940:	05e43000 05e442f0 05e45000 05e464f0     ..0...B...P...d.
8060f950:	05e47000 05e48e70 05e39000 05e3a670     ..p....p.......p
8060f960:	05e3b000 05e3c670 05e49000 05e4ac50     .......p.......P
8060f970:	05e4b000 05e4c6e0 05e4d000 05e4e510     ................
8060f980:	05e4f000 05e51450 05e52000 05e5a7e0     .......P.. .....
8060f990:	05e5b000 05e5c600 08000000 05400000     .............@..
8060f9a0:	61200541 50726f67 72657373 69766520     a .AProgressive 
8060f9b0:	53776f72 64000000 61200541 50726f67     Sword...a .AProg
8060f9c0:	72657373 69766520 476f726f 6e205377     ressive Goron Sw
8060f9d0:	6f726400 61200541 50726f67 72657373     ord.a .AProgress
8060f9e0:	69766520 53686965 6c640000 61200541     ive Shield..a .A
8060f9f0:	50726f67 72657373 69766520 4f636172     Progressive Ocar
8060fa00:	696e6100 61200541 50726f67 72657373     ina.a .AProgress
8060fa10:	69766520 486f6f6b 73686f74 00000000     ive Hookshot....
8060fa20:	61200541 50726f67 72657373 69766520     a .AProgressive 
8060fa30:	57616c6c 65740000 61200545 50726f67     Wallet..a .EProg
8060fa40:	72657373 69766520 476f726f 6e204c75     ressive Goron Lu
8060fa50:	6c6c6162 79000000 61200541 50726f67     llaby...a .AProg
8060fa60:	72657373 69766520 5363616c 65000000     ressive Scale...
8060fa70:	61200541 50726f67 72657373 69766520     a .AProgressive 
8060fa80:	53747265 6e677468 00000000 20280000     Strength.... (..
8060fa90:	05454d4d 00000000 05444f6f 54000000     .EMM.....DOoT...
8060faa0:	696e2000 74686520 0541566f 69640000     in .the .AVoid..
8060fab0:	596f7520 676f7420 00000000 21000000     You got ....!...
8060fac0:	02000000 01054100 011b0542 00000000     ......A....B....
8060fad0:	42757901 00000000 4e6f2074 68616e6b     Buy.....No thank
8060fae0:	73000000 01010a00 59656161 61727267     s.......Yeaaarrg
8060faf0:	68212049 276d2063 75727365 64212120     h! I'm cursed!! 
8060fb00:	506c6561 73652073 61766520 6d652062     Please save me b
8060fb10:	79206465 7374726f 79696e67 20054100     y destroying .A.
8060fb20:	20537069 64657273 206f6620 74686520      Spiders of the 
8060fb30:	43757273 65054020 616e6420 49207769     Curse.@ and I wi
8060fb40:	6c6c2067 69766520 796f7520 00000000     ll give you ....
8060fb50:	05402e02 00000000 48617665 20796f75     .@......Have you
8060fb60:	20666f75 6e642074 68652005 464c6967      found the .FLig
8060fb70:	68742041 72726f77 73200540 00000000     ht Arrows .@....
8060fb80:	3f020000 74686520 05465261 6e636820     ?...the .FRanch 
8060fb90:	44656665 6e736500 74686520 05424275     Defense.the .BBu
8060fba0:	746c6572 20526163 65000000 0545416e     tler Race....EAn
8060fbb0:	6a752061 6e64204b 61666569 00000000     ju and Kafei....
8060fbc0:	0543446f 6e204765 726f2773 2043686f     .CDon Gero's Cho
8060fbd0:	69720000 74686520 0541476f 726f6e20     ir..the .AGoron 
8060fbe0:	52616365 00000000 74686520 05454772     Race....the .EGr
8060fbf0:	61766579 61726420 42696720 506f6500     aveyard Big Poe.
8060fc00:	74686520 05444261 6e6b2773 2046696e     the .DBank's Fin
8060fc10:	616c2052 65776172 64000000 74686520     al Reward...the 
8060fc20:	05444d69 6c6b2042 61722050 6572666f     .DMilk Bar Perfo
8060fc30:	726d616e 63650000 74686520 0542426f     rmance..the .BBo
8060fc40:	61742041 72636865 72790000 74686520     at Archery..the 
8060fc50:	05434f63 65616e20 53706964 65722048     .COcean Spider H
8060fc60:	6f757365 20436865 73740000 74686520     ouse Chest..the 
8060fc70:	05435069 6e6e6163 6c652052 6f636b20     .CPinnacle Rock 
8060fc80:	53656168 6f727365 73000000 74686520     Seahorses...the 
8060fc90:	05434669 73686572 6d616e27 73204761     .CFisherman's Ga
8060fca0:	6d650000 05464967 6f732064 7520496b     me...FIgos du Ik
8060fcb0:	616e6100 74686520 05465365 63726574     ana.the .FSecret
8060fcc0:	20536872 696e6520 46696e61 6c204368      Shrine Final Ch
8060fcd0:	65737400 74686520 05434672 6f677320     est.the .CFrogs 
8060fce0:	4f636172 696e6120 47616d65 00000000     Ocarina Game....
8060fcf0:	05434669 7368696e 67000000 61200545     .CFishing...a .E
8060fd00:	52617661 67656420 56696c6c 61676500     Ravaged Village.
8060fd10:	05434b69 6e67205a 6f726100 74686520     .CKing Zora.the 
8060fd20:	05414772 65617420 46616972 79206f75     .AGreat Fairy ou
8060fd30:	74736964 65206f66 2047616e 6f6e2773     tside of Ganon's
8060fd40:	20436173 746c6500 74686520 05414669      Castle.the .AFi
8060fd50:	72652054 656d706c 65204861 6d6d6572     re Temple Hammer
8060fd60:	20436865 73740000 74686520 05414669      Chest..the .AFi
8060fd70:	72652054 656d706c 65205363 61726563     re Temple Scarec
8060fd80:	726f7720 43686573 74000000 74686520     row Chest...the 
8060fd90:	05464765 7275646f 20547261 696e696e     .FGerudo Trainin
8060fda0:	67204772 6f756e64 73205761 74657220     g Grounds Water 
8060fdb0:	526f6f6d 00000000 74686520 05464861     Room....the .FHa
8060fdc0:	756e7465 64205761 7374656c 616e6473     unted Wastelands
8060fdd0:	20436865 73740000 74686520 05464765      Chest..the .FGe
8060fde0:	7275646f 20417263 68657279 00000000     rudo Archery....
8060fdf0:	696e0000 0542576f 6f646661 6c6c2054     in...BWoodfall T
8060fe00:	656d706c 65000000 0544536e 6f776865     emple....DSnowhe
8060fe10:	61642054 656d706c 65000000 05434772     ad Temple....CGr
8060fe20:	65617420 42617920 54656d70 6c650000     eat Bay Temple..
8060fe30:	05465374 6f6e6520 546f7765 72205465     .FStone Tower Te
8060fe40:	6d706c65 00000000 0546536f 75746820     mple.....FSouth 
8060fe50:	436c6f63 6b20546f 776e0000 05464e6f     Clock Town...FNo
8060fe60:	72746820 436c6f63 6b20546f 776e0000     rth Clock Town..
8060fe70:	05464561 73742043 6c6f636b 20546f77     .FEast Clock Tow
8060fe80:	6e000000 05465765 73742043 6c6f636b     n....FWest Clock
8060fe90:	20546f77 6e000000 74686520 05464c61      Town...the .FLa
8060fea0:	756e6472 7920506f 6f6c0000 696e7369     undry Pool..insi
8060feb0:	64650000 74686520 05454769 616e7427     de..the .EGiant'
8060fec0:	73204472 65616d00 0546436c 6f636b20     s Dream..FClock 
8060fed0:	546f7765 7220526f 6f660000 74686520     Tower Roof..the 
8060fee0:	05415374 6f636b20 506f7420 496e6e00     .AStock Pot Inn.
8060fef0:	05415465 726d696e 61204669 656c6400     .ATermina Field.
8060ff00:	74686520 0542526f 61642074 6f207468     the .BRoad to th
8060ff10:	65205377 616d7000 74686520 0542536f     e Swamp.the .BSo
8060ff20:	75746865 726e2053 77616d70 00000000     uthern Swamp....
8060ff30:	05424465 6b752050 616c6163 65000000     .BDeku Palace...
8060ff40:	0542576f 6f646661 6c6c0000 74686520     .BWoodfall..the 
8060ff50:	05415061 74682074 6f204d6f 756e7461     .APath to Mounta
8060ff60:	696e2056 696c6c61 67650000 74686520     in Village..the 
8060ff70:	05414d6f 756e7461 696e2056 696c6c61     .AMountain Villa
8060ff80:	67650000 74686520 05415061 74682074     ge..the .APath t
8060ff90:	6f20536e 6f776865 61640000 61726f75     o Snowhead..arou
8060ffa0:	6e640000 05415477 696e2049 736c616e     nd...ATwin Islan
8060ffb0:	64730000 0541476f 726f6e20 56696c6c     ds...AGoron Vill
8060ffc0:	61676500 0541536e 6f776865 61640000     age..ASnowhead..
8060ffd0:	74686520 05454d69 6c6b2052 6f616400     the .EMilk Road.
8060ffe0:	0546526f 6d616e69 2052616e 63680000     .FRomani Ranch..
8060fff0:	05434772 65617420 42617920 436f6173     .CGreat Bay Coas
80610000:	74000000 74686520 05435069 72617465     t...the .CPirate
80610010:	27732046 6f727472 65737320 45787465     's Fortress Exte
80610020:	72696f72 00000000 74686520 05435069     rior....the .CPi
80610030:	72617465 27732046 6f727472 65737320     rate's Fortress 
80610040:	53657765 72730000 74686520 05435069     Sewers..the .CPi
80610050:	72617465 27732046 6f727472 65737320     rate's Fortress 
80610060:	496e7465 72696f72 00000000 05435a6f     Interior.....CZo
80610070:	72612043 61706500 05435a6f 72612048     ra Cape..CZora H
80610080:	616c6c00 05435069 6e6e6163 6c652052     all..CPinnacle R
80610090:	6f636b00 74686520 0546526f 61642074     ock.the .FRoad t
806100a0:	6f20496b 616e6100 0545496b 616e6127     o Ikana..EIkana'
806100b0:	73204772 61766579 61726400 0546496b     s Graveyard..FIk
806100c0:	616e6120 43616e79 6f6e0000 74686520     ana Canyon..the 
806100d0:	0546416e 6369656e 74204361 73746c65     .FAncient Castle
806100e0:	206f6620 496b616e 61000000 736f6d65      of Ikana...some
806100f0:	77686572 65000000 05454265 6e656174     where....EBeneat
80610100:	68207468 65205765 6c6c0000 61200546     h the Well..a .F
80610110:	53656372 65742053 6872696e 65000000     Secret Shrine...
80610120:	74686520 05465374 6f6e6520 546f7765     the .FStone Towe
80610130:	72000000 74686520 05414d6f 6f6e0000     r...the .AMoon..
80610140:	74686520 05425377 616d7020 53706964     the .BSwamp Spid
80610150:	65722048 6f757365 00000000 74686520     er House....the 
80610160:	05434f63 65616e20 53706964 65722048     .COcean Spider H
80610170:	6f757365 00000000 74686520 05465361     ouse....the .FSa
80610180:	63726564 20526561 6c6d0000 74686520     cred Realm..the 
80610190:	05424465 6b752054 72656500 0541446f     .BDeku Tree..ADo
806101a0:	646f6e67 6f277320 43617665 726e0000     dongo's Cavern..
806101b0:	05434a61 62752d4a 61627500 74686520     .CJabu-Jabu.the 
806101c0:	0542466f 72657374 2054656d 706c6500     .BForest Temple.
806101d0:	74686520 05414669 72652054 656d706c     the .AFire Templ
806101e0:	65000000 74686520 05435761 74657220     e...the .CWater 
806101f0:	54656d70 6c650000 74686520 05465370     Temple..the .FSp
80610200:	69726974 2054656d 706c6500 74686520     irit Temple.the 
80610210:	05455368 61646f77 2054656d 706c6500     .EShadow Temple.
80610220:	61740000 74686520 0545426f 74746f6d     at..the .EBottom
80610230:	206f6620 74686520 57656c6c 00000000      of the Well....
80610240:	74686520 05444963 65204361 7665726e     the .DIce Cavern
80610250:	00000000 05464765 7275646f 20547261     .....FGerudo Tra
80610260:	696e696e 67204772 6f756e64 73000000     ining Grounds...
80610270:	74686520 05465468 69657665 27732048     the .FThieve's H
80610280:	6964656f 75740000 05414761 6e6f6e27     ideout...AGanon'
80610290:	73204361 73746c65 00000000 74686520     s Castle....the 
806102a0:	05424b6f 6b697269 20466f72 65737400     .BKokiri Forest.
806102b0:	05464879 72756c65 20466965 6c640000     .FHyrule Field..
806102c0:	05464879 72756c65 2773204d 61726b65     .FHyrule's Marke
806102d0:	74000000 05464c6f 6e204c6f 6e205261     t....FLon Lon Ra
806102e0:	6e636800 05464879 72756c65 27732043     nch..FHyrule's C
806102f0:	6173746c 65000000 05414761 6e6f6e27     astle....AGanon'
80610300:	73204361 73746c65 20457874 6572696f     s Castle Exterio
80610310:	72000000 74686520 05424c6f 73742057     r...the .BLost W
80610320:	6f6f6473 00000000 74686520 05425361     oods....the .BSa
80610330:	63726564 204d6561 646f7700 05414b61     cred Meadow..AKa
80610340:	6b617269 6b6f0000 05454b61 6b617269     kariko...EKakari
80610350:	6b6f2773 20477261 76657961 72640000     ko's Graveyard..
80610360:	05414465 61746820 4d6f756e 7461696e     .ADeath Mountain
80610370:	27732054 7261696c 00000000 05414465     's Trail.....ADe
80610380:	61746820 4d6f756e 7461696e 27732043     ath Mountain's C
80610390:	72617465 72000000 0541476f 726f6e20     rater....AGoron 
806103a0:	43697479 00000000 05435a6f 72612773     City.....CZora's
806103b0:	20526976 65720000 05435a6f 72612773      River...CZora's
806103c0:	20446f6d 61696e00 05435a6f 72612773      Domain..CZora's
806103d0:	20466f75 6e746169 6e000000 05434c61      Fountain....CLa
806103e0:	6b652048 796c6961 00000000 74686520     ke Hylia....the 
806103f0:	05465465 6d706c65 206f6620 54696d65     .FTemple of Time
80610400:	00000000 05464765 7275646f 2056616c     .....FGerudo Val
80610410:	6c657900 05464765 7275646f 20466f72     ley..FGerudo For
80610420:	74726573 73000000 74686520 05464861     tress...the .FHa
80610430:	756e7465 64205761 7374656c 616e6473     unted Wastelands
80610440:	00000000 74686520 05464465 73657274     ....the .FDesert
80610450:	20436f6c 6f737375 73000000 61200544      Colossus...a .D
80610460:	47726565 6e205275 70656500 61200544     Green Rupee.a .D
80610470:	426c7565 20527570 65650000 61200544     Blue Rupee..a .D
80610480:	52656420 52757065 65000000 61200544     Red Rupee...a .D
80610490:	50757270 6c652052 75706565 00000000     Purple Rupee....
806104a0:	61200544 53696c76 65722052 75706565     a .DSilver Rupee
806104b0:	00000000 61200544 476f6c64 20527570     ....a .DGold Rup
806104c0:	65650000 74686520 05414164 756c7420     ee..the .AAdult 
806104d0:	57616c6c 65740000 74686520 05414769     Wallet..the .AGi
806104e0:	616e7420 57616c6c 65740000 61200544     ant Wallet..a .D
806104f0:	5265636f 76657279 20486561 72740000     Recovery Heart..
80610500:	61200544 50696563 65206f66 20486561     a .DPiece of Hea
80610510:	72740000 61200544 48656172 7420436f     rt..a .DHeart Co
80610520:	6e746169 6e657200 61200544 536d616c     ntainer.a .DSmal
80610530:	6c204d61 67696320 4a617200 61200544     l Magic Jar.a .D
80610540:	4c617267 65204d61 67696320 4a617200     Large Magic Jar.
80610550:	61200544 53747261 79204661 69727900     a .DStray Fairy.
80610560:	61200541 426f6d62 00000000 05443520     a .ABomb.....D5 
80610570:	426f6d62 73000000 05443130 20426f6d     Bombs....D10 Bom
80610580:	62730000 05443230 20426f6d 62730000     bs...D20 Bombs..
80610590:	05443330 20426f6d 62730000 61200544     .D30 Bombs..a .D
806105a0:	44656b75 20537469 636b0000 05443130     Deku Stick...D10
806105b0:	20426f6d 62636875 00000000 74686520      Bombchu....the 
806105c0:	0541426f 6d622042 61670000 74686520     .ABomb Bag..the 
806105d0:	05414269 6720426f 6d622042 61670000     .ABig Bomb Bag..
806105e0:	74686520 05414269 67676573 7420426f     the .ABiggest Bo
806105f0:	6d622042 61670000 05443130 20417272     mb Bag...D10 Arr
80610600:	6f777300 05443330 20417272 6f777300     ows..D30 Arrows.
80610610:	05443430 20417272 6f777300 74686520     .D40 Arrows.the 
80610620:	05414865 726f2773 20426f77 00000000     .AHero's Bow....
80610630:	74686520 05414269 67205175 69766572     the .ABig Quiver
80610640:	00000000 74686520 05414269 67676573     ....the .ABigges
80610650:	74205175 69766572 00000000 74686520     t Quiver....the 
80610660:	05414669 72652041 72726f77 00000000     .AFire Arrow....
80610670:	74686520 05414963 65204172 726f7700     the .AIce Arrow.
80610680:	74686520 05414c69 67687420 4172726f     the .ALight Arro
80610690:	77000000 61200544 44656b75 204e7574     w...a .DDeku Nut
806106a0:	00000000 05443520 44656b75 204e7574     .....D5 Deku Nut
806106b0:	73000000 05443130 2044656b 75204e75     s....D10 Deku Nu
806106c0:	74730000 05443330 2044656b 75204e75     ts...D30 Deku Nu
806106d0:	74730000 05443430 2044656b 75204e75     ts...D40 Deku Nu
806106e0:	74730000 05443230 20426f6d 62636875     ts...D20 Bombchu
806106f0:	00000000 05443230 2044656b 75205374     .....D20 Deku St
80610700:	69636b73 00000000 05443330 2044656b     icks.....D30 Dek
80610710:	75205374 69636b73 00000000 74686520     u Sticks....the 
80610720:	05414865 726f2773 20536869 656c6400     .AHero's Shield.
80610730:	74686520 05414d69 72726f72 20536869     the .AMirror Shi
80610740:	656c6400 61200544 506f7764 6572204b     eld.a .DPowder K
80610750:	65670000 61200544 4d616769 63204265     eg..a .DMagic Be
80610760:	616e0000 61200541 426f6d62 63687500     an..a .ABombchu.
80610770:	74686520 05414b6f 6b697269 2053776f     the .AKokiri Swo
80610780:	72640000 74686520 05415261 7a6f7220     rd..the .ARazor 
80610790:	53776f72 64000000 74686520 05414769     Sword...the .AGi
806107a0:	6c646564 2053776f 72640000 05443520     lded Sword...D5 
806107b0:	426f6d62 63687500 74686520 05414772     Bombchu.the .AGr
806107c0:	65617420 46616972 79277320 53776f72     eat Fairy's Swor
806107d0:	64000000 61200544 536d616c 6c204b65     d...a .DSmall Ke
806107e0:	79000000 74686520 0544426f 7373204b     y...the .DBoss K
806107f0:	65790000 74686520 05444475 6e67656f     ey..the .DDungeo
80610800:	6e204d61 70000000 74686520 0544436f     n Map...the .DCo
80610810:	6d706173 73000000 74686520 0541486f     mpass...the .AHo
80610820:	6f6b7368 6f740000 74686520 05414c65     okshot..the .ALe
80610830:	6e73206f 66205472 75746800 74686520     ns of Truth.the 
80610840:	05415069 63746f67 72617068 20426f78     .APictograph Box
80610850:	00000000 74686520 05414f63 6172696e     ....the .AOcarin
80610860:	61206f66 2054696d 65000000 74686520     a of Time...the 
80610870:	0541426f 6d626572 2773204e 6f746562     .ABomber's Noteb
80610880:	6f6f6b00 05464f64 6f6c7761 27732052     ook..FOdolwa's R
80610890:	656d6169 6e730000 0546476f 68742773     emains...FGoht's
806108a0:	2052656d 61696e73 00000000 05464779      Remains.....FGy
806108b0:	6f726727 73205265 6d61696e 73000000     org's Remains...
806108c0:	05465477 696e6d6f 6c642773 2052656d     .FTwinmold's Rem
806108d0:	61696e73 00000000 61200541 626f7474     ains....a .Abott
806108e0:	6c65206f 66205265 6420506f 74696f6e     le of Red Potion
806108f0:	00000000 616e2005 41456d70 74792042     ....an .AEmpty B
80610900:	6f74746c 65000000 61200544 52656420     ottle...a .DRed 
80610910:	506f7469 6f6e0000 61200544 47726565     Potion..a .DGree
80610920:	6e20506f 74696f6e 00000000 61200544     n Potion....a .D
80610930:	426c7565 20506f74 696f6e00 61200544     Blue Potion.a .D
80610940:	46616972 79000000 61200541 626f7474     Fairy...a .Abott
80610950:	6c65206f 66204d69 6c6b0000 61200544     le of Milk..a .D
80610960:	46697368 00000000 61200544 42756700     Fish....a .DBug.
80610970:	61200544 42696720 506f6500 736f6d65     a .DBig Poe.some
80610980:	20054453 7072696e 67205761 74657200      .DSpring Water.
80610990:	736f6d65 20054448 6f742053 7072696e     some .DHot Sprin
806109a0:	67205761 74657200 61200541 5a6f7261     g Water.a .AZora
806109b0:	20456767 00000000 61200541 626f7474      Egg....a .Abott
806109c0:	6c65206f 6620476f 6c642044 75737400     le of Gold Dust.
806109d0:	61200544 4d616769 63204d75 7368726f     a .DMagic Mushro
806109e0:	6f6d0000 61200544 53656168 6f727365     om..a .DSeahorse
806109f0:	00000000 6120626f 74746c65 206f6620     ....a bottle of 
80610a00:	05444368 61746561 7520526f 6d616e69     .DChateau Romani
80610a10:	00000000 74686520 05414465 6b75204d     ....the .ADeku M
80610a20:	61736b00 74686520 0541476f 726f6e20     ask.the .AGoron 
80610a30:	4d61736b 00000000 74686520 05415a6f     Mask....the .AZo
80610a40:	7261204d 61736b00 74686520 05414669     ra Mask.the .AFi
80610a50:	65726365 20446569 74792773 204d6173     erce Deity's Mas
80610a60:	6b000000 74686520 05414361 70746169     k...the .ACaptai
80610a70:	6e277320 48617400 74686520 05414769     n's Hat.the .AGi
80610a80:	616e7427 73204d61 736b0000 74686520     ant's Mask..the 
80610a90:	0541416c 6c204e69 67687420 4d61736b     .AAll Night Mask
80610aa0:	00000000 74686520 05414275 6e6e7920     ....the .ABunny 
80610ab0:	486f6f64 00000000 74686520 05414b65     Hood....the .AKe
80610ac0:	61746f6e 204d6173 6b000000 74686520     aton Mask...the 
80610ad0:	05414761 726f2773 204d6173 6b000000     .AGaro's Mask...
80610ae0:	0541526f 6d616e69 2773204d 61736b00     .ARomani's Mask.
80610af0:	74686520 05414369 72637573 204c6561     the .ACircus Lea
80610b00:	64657227 73204d61 736b0000 74686520     der's Mask..the 
80610b10:	0541506f 73746d61 6e277320 48617400     .APostman's Hat.
80610b20:	74686520 0541436f 75706c65 2773204d     the .ACouple's M
80610b30:	61736b00 74686520 05414772 65617420     ask.the .AGreat 
80610b40:	46616972 79204d61 736b0000 74686520     Fairy Mask..the 
80610b50:	05414769 62646f20 4d61736b 00000000     .AGibdo Mask....
80610b60:	74686520 0541446f 6e204765 726f2773     the .ADon Gero's
80610b70:	204d6173 6b000000 74686520 05414b61      Mask...the .AKa
80610b80:	6d61726f 2773204d 61736b00 74686520     maro's Mask.the 
80610b90:	05414d61 736b206f 66205472 75746800     .AMask of Truth.
80610ba0:	74686520 05415374 6f6e6520 4d61736b     the .AStone Mask
80610bb0:	00000000 74686520 05414272 656d656e     ....the .ABremen
80610bc0:	204d6173 6b000000 74686520 0541426c      Mask...the .ABl
80610bd0:	61737420 4d61736b 00000000 74686520     ast Mask....the 
80610be0:	05414d61 736b206f 66205363 656e7473     .AMask of Scents
80610bf0:	00000000 74686520 05414b61 66656927     ....the .AKafei'
80610c00:	73204d61 736b0000 736f6d65 20054443     s Mask..some .DC
80610c10:	68617465 61752052 6f6d616e 69000000     hateau Romani...
80610c20:	736f6d65 2005444d 696c6b00 74686520     some .DMilk.the 
80610c30:	05414d6f 6f6e2773 20546561 72000000     .AMoon's Tear...
80610c40:	74686520 05414c61 6e642054 69746c65     the .ALand Title
80610c50:	20446565 64000000 74686520 05415377      Deed...the .ASw
80610c60:	616d7020 5469746c 65204465 65640000     amp Title Deed..
80610c70:	74686520 05414d6f 756e7461 696e2054     the .AMountain T
80610c80:	69746c65 20446565 64000000 74686520     itle Deed...the 
80610c90:	05414f63 65616e20 5469746c 65204465     .AOcean Title De
80610ca0:	65640000 74686520 0541526f 6f6d204b     ed..the .ARoom K
80610cb0:	65790000 74686520 05414c65 74746572     ey..the .ALetter
80610cc0:	20746f20 4d616d61 00000000 74686520      to Mama....the 
80610cd0:	05414c65 74746572 20746f20 4b616665     .ALetter to Kafe
80610ce0:	69000000 74686520 05415065 6e64616e     i...the .APendan
80610cf0:	74206f66 204d656d 6f726965 73000000     t of Memories...
80610d00:	61200544 576f726c 64204d61 70202843     a .DWorld Map (C
80610d10:	6c6f636b 20546f77 6e290000 61200544     lock Town)..a .D
80610d20:	576f726c 64204d61 70202857 6f6f6466     World Map (Woodf
80610d30:	616c6c29 00000000 61200544 576f726c     all)....a .DWorl
80610d40:	64204d61 70202853 6e6f7768 65616429     d Map (Snowhead)
80610d50:	00000000 61200544 576f726c 64204d61     ....a .DWorld Ma
80610d60:	70202852 6f6d616e 69205261 6e636829     p (Romani Ranch)
80610d70:	00000000 61200544 576f726c 64204d61     ....a .DWorld Ma
80610d80:	70202847 72656174 20426179 29000000     p (Great Bay)...
80610d90:	61200544 576f726c 64204d61 70202853     a .DWorld Map (S
80610da0:	746f6e65 20546f77 65722900 74686520     tone Tower).the 
80610db0:	05414d61 67696320 55706772 61646500     .AMagic Upgrade.
80610dc0:	74686520 05414c61 72676572 204d6167     the .ALarger Mag
80610dd0:	69632055 70677261 64650000 74686520     ic Upgrade..the 
80610de0:	05414465 66656e73 65205570 67726164     .ADefense Upgrad
80610df0:	65000000 74686520 05415370 696e2041     e...the .ASpin A
80610e00:	74746163 6b205570 67726164 65000000     ttack Upgrade...
80610e10:	74686520 0545536f 6e617461 206f6620     the .ESonata of 
80610e20:	4177616b 656e696e 67000000 74686520     Awakening...the 
80610e30:	0545476f 726f6e20 4c756c6c 61627900     .EGoron Lullaby.
80610e40:	74686520 05454e65 77205761 76652042     the .ENew Wave B
80610e50:	6f737361 204e6f76 61000000 74686520     ossa Nova...the 
80610e60:	0545456c 65677920 6f662045 6d707469     .EElegy of Empti
80610e70:	6e657373 00000000 74686520 05454f61     ness....the .EOa
80610e80:	74682074 6f204f72 64657200 74686520     th to Order.the 
80610e90:	0545536f 6e67206f 66205469 6d650000     .ESong of Time..
80610ea0:	74686520 0545536f 6e67206f 66204865     the .ESong of He
80610eb0:	616c696e 67000000 05454570 6f6e6127     aling....EEpona'
80610ec0:	7320536f 6e670000 74686520 0545536f     s Song..the .ESo
80610ed0:	6e67206f 6620536f 6172696e 67000000     ng of Soaring...
80610ee0:	74686520 0545536f 6e67206f 66205374     the .ESong of St
80610ef0:	6f726d73 00000000 74686520 05454c75     orms....the .ELu
80610f00:	6c6c6162 7920496e 74726f00 61200544     llaby Intro.a .D
80610f10:	5377616d 7020536b 756c6c74 756c6120     Swamp Skulltula 
80610f20:	546f6b65 6e000000 616e2005 444f6365     Token...an .DOce
80610f30:	616e2053 6b756c6c 74756c61 20546f6b     an Skulltula Tok
80610f40:	656e0000 61200544 536d616c 6c204b65     en..a .DSmall Ke
80610f50:	79202857 6f6f6466 616c6c29 00000000     y (Woodfall)....
80610f60:	61200544 536d616c 6c204b65 79202853     a .DSmall Key (S
80610f70:	6e6f7768 65616429 00000000 61200544     nowhead)....a .D
80610f80:	536d616c 6c204b65 79202847 72656174     Small Key (Great
80610f90:	20426179 29000000 61200544 536d616c      Bay)...a .DSmal
80610fa0:	6c204b65 79202853 746f6e65 20546f77     l Key (Stone Tow
80610fb0:	65722900 74686520 0544426f 7373204b     er).the .DBoss K
80610fc0:	65792028 576f6f64 66616c6c 29000000     ey (Woodfall)...
80610fd0:	74686520 0544426f 7373204b 65792028     the .DBoss Key (
80610fe0:	536e6f77 68656164 29000000 74686520     Snowhead)...the 
80610ff0:	0544426f 7373204b 65792028 47726561     .DBoss Key (Grea
80611000:	74204261 79290000 74686520 0544426f     t Bay)..the .DBo
80611010:	7373204b 65792028 53746f6e 6520546f     ss Key (Stone To
80611020:	77657229 00000000 61200544 53747261     wer)....a .DStra
80611030:	79204661 69727920 28576f6f 6466616c     y Fairy (Woodfal
80611040:	6c290000 61200544 53747261 79204661     l)..a .DStray Fa
80611050:	69727920 28536e6f 77686561 64290000     iry (Snowhead)..
80611060:	61200544 53747261 79204661 69727920     a .DStray Fairy 
80611070:	28477265 61742042 61792900 61200544     (Great Bay).a .D
80611080:	53747261 79204661 69727920 2853746f     Stray Fairy (Sto
80611090:	6e652054 6f776572 29000000 61200544     ne Tower)...a .D
806110a0:	53747261 79204661 69727920 28546f77     Stray Fairy (Tow
806110b0:	6e290000 74686520 05444475 6e67656f     n)..the .DDungeo
806110c0:	6e204d61 70202857 6f6f6466 616c6c29     n Map (Woodfall)
806110d0:	00000000 74686520 05444475 6e67656f     ....the .DDungeo
806110e0:	6e204d61 70202853 6e6f7768 65616429     n Map (Snowhead)
806110f0:	00000000 74686520 05444475 6e67656f     ....the .DDungeo
80611100:	6e204d61 70202847 72656174 20426179     n Map (Great Bay
80611110:	29000000 74686520 05444475 6e67656f     )...the .DDungeo
80611120:	6e204d61 70202853 746f6e65 20546f77     n Map (Stone Tow
80611130:	65722900 74686520 0544436f 6d706173     er).the .DCompas
80611140:	73202857 6f6f6466 616c6c29 00000000     s (Woodfall)....
80611150:	74686520 0544436f 6d706173 73202853     the .DCompass (S
80611160:	6e6f7768 65616429 00000000 74686520     nowhead)....the 
80611170:	0544436f 6d706173 73202847 72656174     .DCompass (Great
80611180:	20426179 29000000 74686520 0544436f      Bay)...the .DCo
80611190:	6d706173 73202853 746f6e65 20546f77     mpass (Stone Tow
806111a0:	65722900 74686520 05414661 69727920     er).the .AFairy 
806111b0:	426f7700 74686520 05414661 69727920     Bow.the .AFairy 
806111c0:	536c696e 6773686f 74000000 74686520     Slingshot...the 
806111d0:	0541426f 6f6d6572 616e6700 74686520     .ABoomerang.the 
806111e0:	05414c6f 6e677368 6f740000 05415a65     .ALongshot...AZe
806111f0:	6c646127 73204c65 74746572 00000000     lda's Letter....
80611200:	74686520 05414d65 6761746f 6e204861     the .AMegaton Ha
80611210:	6d6d6572 00000000 0541436f 6a69726f     mmer.....ACojiro
80611220:	00000000 61200541 626f7474 6c65206f     ....a .Abottle o
80611230:	66204c6f 6e204c6f 6e204d69 6c6b0000     f Lon Lon Milk..
80611240:	05415275 746f2773 204c6574 74657200     .ARuto's Letter.
80611250:	74686520 0541536b 756c6c20 4d61736b     the .ASkull Mask
80611260:	00000000 74686520 05415370 6f6f6b79     ....the .ASpooky
80611270:	204d6173 6b000000 74686520 05414368      Mask...the .ACh
80611280:	69636b65 6e000000 74686520 0541506f     icken...the .APo
80611290:	636b6574 20456767 00000000 74686520     cket Egg....the 
806112a0:	0541506f 636b6574 20437563 636f0000     .APocket Cucco..
806112b0:	74686520 05414f64 64204d75 7368726f     the .AOdd Mushro
806112c0:	6f6d0000 74686520 05414f64 6420506f     om..the .AOdd Po
806112d0:	74696f6e 00000000 74686520 0541506f     tion....the .APo
806112e0:	61636865 72277320 53617700 74686520     acher's Saw.the 
806112f0:	05414272 6f6b656e 20476f72 6f6e2773     .ABroken Goron's
80611300:	2053776f 72640000 74686520 05415072      Sword..the .APr
80611310:	65736372 69707469 6f6e0000 74686520     escription..the 
80611320:	05414579 6562616c 6c204672 6f670000     .AEyeball Frog..
80611330:	74686520 05414579 65204472 6f707300     the .AEye Drops.
80611340:	74686520 0541436c 61696d20 43686563     the .AClaim Chec
80611350:	6b000000 74686520 05414769 616e7427     k...the .AGiant'
80611360:	73204b6e 69666500 74686520 05414465     s Knife.the .ADe
80611370:	6b752053 6869656c 64000000 74686520     ku Shield...the 
80611380:	05414879 6c69616e 20536869 656c6400     .AHylian Shield.
80611390:	74686520 0541476f 726f6e20 54756e69     the .AGoron Tuni
806113a0:	63000000 74686520 05415a6f 72612054     c...the .AZora T
806113b0:	756e6963 00000000 74686520 05414972     unic....the .AIr
806113c0:	6f6e2042 6f6f7473 00000000 74686520     on Boots....the 
806113d0:	0541486f 76657220 426f6f74 73000000     .AHover Boots...
806113e0:	74686520 05415369 6c766572 20476175     the .ASilver Gau
806113f0:	6e746c65 74730000 74686520 0541476f     ntlets..the .AGo
80611400:	6c64656e 20476175 6e746c65 74730000     lden Gauntlets..
80611410:	74686520 05415369 6c766572 20536361     the .ASilver Sca
80611420:	6c650000 74686520 0541476f 6c64656e     le..the .AGolden
80611430:	20536361 6c650000 74686520 05415374      Scale..the .ASt
80611440:	6f6e6520 6f662041 676f6e79 00000000     one of Agony....
80611450:	74686520 05414765 7275646f 27732043     the .AGerudo's C
80611460:	61726400 74686520 05414661 69727920     ard.the .AFairy 
80611470:	4f636172 696e6100 05443520 44656b75     Ocarina..D5 Deku
80611480:	20536565 64730000 74686520 05414164      Seeds..the .AAd
80611490:	756c7427 73205761 6c6c6574 00000000     ult's Wallet....
806114a0:	74686520 05414769 616e7427 73205761     the .AGiant's Wa
806114b0:	6c6c6574 00000000 74686520 05415765     llet....the .AWe
806114c0:	69726420 45676700 05443520 4172726f     ird Egg..D5 Arro
806114d0:	77730000 736f6d65 2005444c 6f6e204c     ws..some .DLon L
806114e0:	6f6e204d 696c6b00 74686520 05414765     on Milk.the .AGe
806114f0:	7275646f 204d6173 6b000000 74686520     rudo Mask...the 
80611500:	0541476f 726f6e27 73204272 6163656c     .AGoron's Bracel
80611510:	65740000 61200544 48756765 20527570     et..a .DHuge Rup
80611520:	65650000 05414269 67676f72 6f6e2773     ee...ABiggoron's
80611530:	2053776f 72640000 61200544 476f6c64      Sword..a .DGold
80611540:	20536b75 6c6c7475 6c612054 6f6b656e      Skulltula Token
80611550:	00000000 05414469 6e277320 46697265     .....ADin's Fire
80611560:	00000000 05414661 726f7265 27732057     .....AFarore's W
80611570:	696e6400 05414e61 79727527 73204c6f     ind..ANayru's Lo
80611580:	76650000 74686520 05414c61 72676520     ve..the .ALarge 
80611590:	42756c6c 65742042 61670000 05443520     Bullet Bag...D5 
806115a0:	44656b75 20537469 636b7300 05443130     Deku Sticks..D10
806115b0:	2044656b 75205374 69636b73 00000000      Deku Sticks....
806115c0:	61200544 426f6d62 00000000 05443330     a .DBomb.....D30
806115d0:	2044656b 75205365 65647300 736f6d65      Deku Seeds.some
806115e0:	20054442 6c756520 46697265 00000000      .DBlue Fire....
806115f0:	61200544 506f6500 74686520 05414465     a .DPoe.the .ADe
80611600:	6b752053 7469636b 20557067 72616465     ku Stick Upgrade
80611610:	00000000 74686520 05415365 636f6e64     ....the .ASecond
80611620:	2044656b 75205374 69636b20 55706772      Deku Stick Upgr
80611630:	61646500 74686520 05414465 6b75204e     ade.the .ADeku N
80611640:	75742055 70677261 64650000 74686520     ut Upgrade..the 
80611650:	05415365 636f6e64 2044656b 75204e75     .ASecond Deku Nu
80611660:	74205570 67726164 65000000 74686520     t Upgrade...the 
80611670:	05414c61 72676573 74204275 6c6c6574     .ALargest Bullet
80611680:	20426167 00000000 74686520 05454d69      Bag....the .EMi
80611690:	6e756574 206f6620 466f7265 73740000     nuet of Forest..
806116a0:	74686520 0545426f 6c65726f 206f6620     the .EBolero of 
806116b0:	46697265 00000000 74686520 05455365     Fire....the .ESe
806116c0:	72656e61 6465206f 66205761 74657200     renade of Water.
806116d0:	74686520 05455265 71756965 6d206f66     the .ERequiem of
806116e0:	20537069 72697400 74686520 05454e6f      Spirit.the .ENo
806116f0:	63747572 6e65206f 66205368 61646f77     cturne of Shadow
80611700:	00000000 74686520 05455072 656c7564     ....the .EPrelud
80611710:	65206f66 204c6967 68740000 05455a65     e of Light...EZe
80611720:	6c646127 73204c75 6c6c6162 79000000     lda's Lullaby...
80611730:	05455361 72696127 7320536f 6e670000     .ESaria's Song..
80611740:	74686520 05455375 6e277320 536f6e67     the .ESun's Song
80611750:	00000000 74686520 05414d61 73746572     ....the .AMaster
80611760:	2053776f 72640000 74686520 05464b6f      Sword..the .FKo
80611770:	6b697269 27732045 6d657261 6c640000     kiri's Emerald..
80611780:	74686520 0546476f 726f6e27 73205275     the .FGoron's Ru
80611790:	62790000 74686520 05465a6f 72612773     by..the .FZora's
806117a0:	20536170 70686972 65000000 74686520      Sapphire...the 
806117b0:	0546466f 72657374 204d6564 616c6c69     .FForest Medalli
806117c0:	6f6e0000 74686520 05464669 7265204d     on..the .FFire M
806117d0:	6564616c 6c696f6e 00000000 74686520     edallion....the 
806117e0:	05465761 74657220 4d656461 6c6c696f     .FWater Medallio
806117f0:	6e000000 74686520 05465370 69726974     n...the .FSpirit
80611800:	204d6564 616c6c69 6f6e0000 74686520      Medallion..the 
80611810:	05465368 61646f77 204d6564 616c6c69     .FShadow Medalli
80611820:	6f6e0000 74686520 05464c69 67687420     on..the .FLight 
80611830:	4d656461 6c6c696f 6e000000 61200544     Medallion...a .D
80611840:	536d616c 6c204b65 79202846 6f726573     Small Key (Fores
80611850:	74290000 61200544 536d616c 6c204b65     t)..a .DSmall Ke
80611860:	79202846 69726529 00000000 61200544     y (Fire)....a .D
80611870:	536d616c 6c204b65 79202857 61746572     Small Key (Water
80611880:	29000000 61200544 536d616c 6c204b65     )...a .DSmall Ke
80611890:	79202853 70697269 74290000 61200544     y (Spirit)..a .D
806118a0:	536d616c 6c204b65 79202853 6861646f     Small Key (Shado
806118b0:	77290000 61200544 536d616c 6c204b65     w)..a .DSmall Ke
806118c0:	79202847 616e6f6e 29000000 61200544     y (Ganon)...a .D
806118d0:	536d616c 6c204b65 79202857 656c6c29     Small Key (Well)
806118e0:	00000000 61200544 536d616c 6c204b65     ....a .DSmall Ke
806118f0:	79202848 6964656f 75742900 61200544     y (Hideout).a .D
80611900:	536d616c 6c204b65 79202847 54472900     Small Key (GTG).
80611910:	74686520 0544426f 7373204b 65792028     the .DBoss Key (
80611920:	466f7265 73742900 74686520 0544426f     Forest).the .DBo
80611930:	7373204b 65792028 46697265 29000000     ss Key (Fire)...
80611940:	74686520 0544426f 7373204b 65792028     the .DBoss Key (
80611950:	57617465 72290000 74686520 0544426f     Water)..the .DBo
80611960:	7373204b 65792028 53706972 69742900     ss Key (Spirit).
80611970:	74686520 0544426f 7373204b 65792028     the .DBoss Key (
80611980:	53686164 6f772900 74686520 0544426f     Shadow).the .DBo
80611990:	7373204b 65792028 47616e6f 6e290000     ss Key (Ganon)..
806119a0:	74686520 05444475 6e67656f 6e204d61     the .DDungeon Ma
806119b0:	70202844 656b7529 00000000 74686520     p (Deku)....the 
806119c0:	05444475 6e67656f 6e204d61 70202844     .DDungeon Map (D
806119d0:	6f646f6e 676f2900 74686520 05444475     odongo).the .DDu
806119e0:	6e67656f 6e204d61 7020284a 61627529     ngeon Map (Jabu)
806119f0:	00000000 74686520 05444475 6e67656f     ....the .DDungeo
80611a00:	6e204d61 70202846 6f726573 74290000     n Map (Forest)..
80611a10:	74686520 05444475 6e67656f 6e204d61     the .DDungeon Ma
80611a20:	70202846 69726529 00000000 74686520     p (Fire)....the 
80611a30:	05444475 6e67656f 6e204d61 70202857     .DDungeon Map (W
80611a40:	61746572 29000000 74686520 05444475     ater)...the .DDu
80611a50:	6e67656f 6e204d61 70202853 70697269     ngeon Map (Spiri
80611a60:	74290000 74686520 05444475 6e67656f     t)..the .DDungeo
80611a70:	6e204d61 70202853 6861646f 77290000     n Map (Shadow)..
80611a80:	74686520 05444475 6e67656f 6e204d61     the .DDungeon Ma
80611a90:	70202857 656c6c29 00000000 74686520     p (Well)....the 
80611aa0:	05444475 6e67656f 6e204d61 70202849     .DDungeon Map (I
80611ab0:	63652900 74686520 0544436f 6d706173     ce).the .DCompas
80611ac0:	73202844 656b7529 00000000 74686520     s (Deku)....the 
80611ad0:	0544436f 6d706173 73202844 6f646f6e     .DCompass (Dodon
80611ae0:	676f2900 74686520 0544436f 6d706173     go).the .DCompas
80611af0:	7320284a 61627529 00000000 74686520     s (Jabu)....the 
80611b00:	0544436f 6d706173 73202846 6f726573     .DCompass (Fores
80611b10:	74290000 74686520 0544436f 6d706173     t)..the .DCompas
80611b20:	73202846 69726529 00000000 74686520     s (Fire)....the 
80611b30:	0544436f 6d706173 73202857 61746572     .DCompass (Water
80611b40:	29000000 74686520 0544436f 6d706173     )...the .DCompas
80611b50:	73202853 70697269 74290000 74686520     s (Spirit)..the 
80611b60:	0544436f 6d706173 73202853 6861646f     .DCompass (Shado
80611b70:	77290000 74686520 0544436f 6d706173     w)..the .DCompas
80611b80:	73202857 656c6c29 00000000 74686520     s (Well)....the 
80611b90:	0544436f 6d706173 73202849 63652900     .DCompass (Ice).

80611ba0 <kCheckNamesMm>:
80611ba0:	8060fb84 8060fb98 8060fbac 8060fbc0     .`...`...`...`..
80611bb0:	8060fbd4 8060fbe8 8060fc00 8060fc1c     .`...`...`...`..
80611bc0:	8060fc38 8060fc4c 8060fc6c 8060fc8c     .`.8.`.L.`.l.`..
80611bd0:	8060fca4 8060fcb4                       .`...`..

80611bd8 <kCheckNamesOot>:
80611bd8:	8060fcd4 8060fcf0 8060fcfc 8060fd10     .`...`...`...`..
80611be8:	8060fd1c 8060fd48 8060fd68 8060fd8c     .`...`.H.`.h.`..
80611bf8:	8060fdb8 8060fdd8                       .`...`..

80611c00 <kRegionNamesMm>:
80611c00:	8060fdf0 8060fdf4 8060fdf0 8060fe08     .`...`...`...`..
80611c10:	8060fdf0 8060fe1c 8060fdf0 8060fe30     .`...`...`...`.0
80611c20:	8060fdf0 8060fe48 8060fdf0 8060fe5c     .`...`.H.`...`.\
80611c30:	8060fdf0 8060fe70 8060fdf0 8060fe84     .`...`.p.`...`..
80611c40:	8060fdf0 8060fe98 8060feac 8060feb4     .`...`...`...`..
80611c50:	80611808 8060fec8 8060fdf0 8060fedc     .a...`...`...`..
80611c60:	8060fdf0 8060fef0 80611808 8060ff00     .`...`...a...`..
80611c70:	8060fdf0 8060ff18 8060fdf0 8060ff30     .`...`...`...`.0
80611c80:	8060fdf0 8060ff40 80611808 8060ff4c     .`...`.@.a...`.L
80611c90:	8060fdf0 8060ff6c 80611808 8060ff84     .`...`.l.a...`..
80611ca0:	8060ff9c 8060ffa4 8060ff9c 8060ffb4     .`...`...`...`..
80611cb0:	8060fdf0 8060ffc4 8060ff9c 8060ffd0     .`...`...`...`..
80611cc0:	8060ff9c 8060ffe0 8060ff9c 8060fff0     .`...`...`...`..
80611cd0:	8060fdf0 80610004 8060fdf0 80610028     .`...a...`...a.(
80611ce0:	8060fdf0 80610048 8060ff9c 8061006c     .`...a.H.`...a.l
80611cf0:	8060fdf0 80610078 8060fdf0 80610084     .`...a.x.`...a..
80611d00:	80611808 80610094 8060fdf0 806100a8     .a...a...`...a..
80611d10:	8060fdf0 806100bc 8060fdf0 806100cc     .`...a...`...a..
80611d20:	806100ec 806100f8 8060fdf0 8061010c     .a...a...`...a..
80611d30:	80611808 80610120 80611808 80610134     .a...a. .a...a.4
80611d40:	8060fdf0 80610140 8060fdf0 8061015c     .`...a.@.`...a.\

80611d50 <kRegionNamesOot>:
80611d50:	8060fdf0 80610178 8060feac 8061018c     .`...a.x.`...a..
80611d60:	8060feac 8061019c 8060feac 806101b0     .`...a...`...a..
80611d70:	8060fdf0 806101bc 8060fdf0 806101d0     .`...a...`...a..
80611d80:	8060fdf0 806101e4 8060fdf0 806101f8     .`...a...`...a..
80611d90:	8060fdf0 8061020c 80610220 80610224     .`...a...a. .a.$
80611da0:	8060fdf0 80610240 8060fdf0 80610254     .`...a.@.`...a.T
80611db0:	8060fdf0 80610270 8060feac 80610288     .`...a.p.`...a..
80611dc0:	8060fdf0 8061029c 8060fdf0 806102b0     .`...a...`...a..
80611dd0:	8060fdf0 806102c0 8060fdf0 806102d4     .`...a...`...a..
80611de0:	8060fdf0 806102e4 8060fdf0 806102f8     .`...a...`...a..
80611df0:	8060fdf0 80610314 8060fdf0 80610328     .`...a...`...a.(
80611e00:	8060fdf0 8061033c 8060feac 80610348     .`...a.<.`...a.H
80611e10:	80611808 80610360 8060fdf0 8061037c     .a...a.`.`...a.|
80611e20:	8060fdf0 80610398 8060fdf0 806103a8     .`...a...`...a..
80611e30:	8060fdf0 806103b8 8060fdf0 806103c8     .`...a...`...a..
80611e40:	8060ff9c 806103dc 8060fdf0 806103ec     .`...a...`...a..
80611e50:	8060fdf0 80610404 8060ff9c 80610414     .`...a...`...a..
80611e60:	8060fdf0 80610428 8060ff9c 80610444     .`...a.(.`...a.D

80611e70 <kItemNamesMm>:
80611e70:	8061045c 8061046c 8061047c 8061047c     .a.\.a.l.a.|.a.|
80611e80:	8061048c 806104a0 806104b4 806104c4     .a...a...a...a..
80611e90:	806104d8 806104ec 806104ec 80610500     .a...a...a...a..
80611ea0:	80610514 80610528 8061053c 806104ec     .a...a.(.a.<.a..
80611eb0:	80610550 806104ec 806104ec 80610560     .a.P.a...a...a.`
80611ec0:	8061056c 80610578 80610584 80610590     .a.l.a.x.a...a..
80611ed0:	8061059c 806105ac 806105bc 806105cc     .a...a...a...a..
80611ee0:	806105e0 806105f8 80610604 80610610     .a...a...a...a..
80611ef0:	80610610 8061061c 80610630 80610644     .a...a...a.0.a.D
80611f00:	8061065c 80610670 80610680 80610694     .a.\.a.p.a...a..
80611f10:	806106a4 806106b4 806106c4 806106c4     .a...a...a...a..
80611f20:	806106d4 806106e4 806106f4 806106f4     .a...a...a...a..
80611f30:	80610708 8061071c 80610730 80610744     .a...a...a.0.a.D
80611f40:	80610754 80610764 80610770 80610784     .a.T.a.d.a.p.a..
80611f50:	80610798 806107ac 806107b8 806107d4     .a...a...a...a..
80611f60:	806107e4 806107f4 80610808 8060d8d8     .a...a...a...`..
80611f70:	80610818 80610828 8061083c 8060d8d8     .a...a.(.a.<.`..
80611f80:	806104ec 8060d8d8 8060d8d8 8060d8d8     .a...`...`...`..
80611f90:	8060d8d8 8060d8d8 8060d8d8 80610854     .`...`...`...a.T
80611fa0:	8060d8d8 8060d8d8 8060d8d8 8061086c     .`...`...`...a.l
80611fb0:	8060d8d8 8060d8d8 8060d8d8 8060d8d8     .`...`...`...`..
80611fc0:	80610884 80610898 806108ac 806108c0     .a...a...a...a..
80611fd0:	806108d8 806108f4 80610908 80610918     .a...a...a...a..
80611fe0:	8061092c 8061093c 8060d8d8 80610948     .a.,.a.<.`...a.H
80611ff0:	8060d8d8 8061095c 80610968 8060d8d8     .`...a.\.a.h.`..
80612000:	8060d8d8 80610970 8061097c 80610990     .`...a.p.a.|.a..
80612010:	806109a8 806109b8 806109d0 8060d8d8     .a...a...a...`..
80612020:	8060d8d8 806109e4 806109f4 8060d8d8     .`...a...a...`..
80612030:	8060d8d8 8060d8d8 8060d8d8 8060d8d8     .`...`...`...`..
80612040:	8060d8d8 8060d8d8 8060d8d8 80610a14     .`...`...`...a..
80612050:	80610a24 80610a38 80610a48 80610a64     .a.$.a.8.a.H.a.d
80612060:	80610a78 80610a8c 80610aa4 80610ab8     .a.x.a...a...a..
80612070:	80610acc 80610ae0 80610af0 80610b0c     .a...a...a...a..
80612080:	80610b20 80610b34 80610b4c 80610b60     .a. .a.4.a.L.a.`
80612090:	80610b78 80610b8c 80610ba0 80610bb4     .a.x.a...a...a..
806120a0:	80610bc8 80610bdc 80610bf4 8060d8d8     .a...a...a...`..
806120b0:	80610c08 80610c20 8060d8d8 8060d8d8     .a...a. .`...`..
806120c0:	806109e4 80610c2c 80610c40 80610c58     .a...a.,.a.@.a.X
806120d0:	80610c70 80610c8c 806107b8 8060d8d8     .a.p.a...a...`..
806120e0:	8060d8d8 8060d8d8 8060d8d8 80610ca4     .`...`...`...a..
806120f0:	80610cb4 8060d8d8 8060d8d8 8060d8d8     .a...`...`...`..
80612100:	8060d8d8 8060d8d8 8060d8d8 8060d8d8     .`...`...`...`..
80612110:	8060d8d8 80610ccc 80610ce4 8060d8d8     .`...a...a...`..
80612120:	8060d8d8 8060d8d8 8060d8d8 8060d8d8     .`...`...`...`..
80612130:	8060d8d8 8060d8d8 8060d8d8 80610d00     .`...`...`...a..
80612140:	80610d1c 80610d38 80610d54 80610d74     .a...a.8.a.T.a.t
80612150:	80610d90 8060d8d8 80610dac 80610dc0     .a...`...a...a..
80612160:	80610ddc 80610df4 80610e10 80610e2c     .a...a...a...a.,
80612170:	80610e40 80610e5c 80610e78 80610e8c     .a.@.a.\.a.x.a..
80612180:	80610ea0 80610eb8 80610ec8 80610ee0     .a...a...a...a..
80612190:	80610ef8 80610884 80610898 806108ac     .a...a...a...a..
806121a0:	806108c0 8060d8d8 8061071c 80610f0c     .a...`...a...a..
806121b0:	80610f28 80610f44 80610f60 80610f7c     .a.(.a.D.a.`.a.|
806121c0:	80610f98 80610fb4 80610fd0 80610fec     .a...a...a...a..
806121d0:	80611008 80611028 80611044 80611060     .a...a.(.a.D.a.`
806121e0:	8061107c 8061109c 806110b4 806110d4     .a.|.a...a...a..
806121f0:	806110f4 80611114 80611134 80611150     .a...a...a.4.a.P
80612200:	8061116c 80611188                       .a.l.a..

80612208 <kItemNamesOot>:
80612208:	8061056c 806106a4 806105ac 806111a4     .a.l.a...a...a..
80612218:	806111b4 806111cc 8061059c 80610818     .a...a...a...a..
80612228:	806111dc 80610828 806111ec 80610854     .a...a.(.a...a.T
80612238:	80611200 80611218 806108f4 80610908     .a...a...a...a..
80612248:	80610918 8061092c 8061093c 80611224     .a...a.,.a.<.a.$
80612258:	80611240 80610754 80611250 80611264     .a.@.a.T.a.P.a.d
80612268:	80611278 80610ab8 80610aa4 80610b8c     .a.x.a...a...a..
80612278:	80611288 8061129c 806112b0 806112c4     .a...a...a...a..
80612288:	806112d8 806112ec 80611308 8061131c     .a...a...a...a..
80612298:	80611330 80611340 80610770 80611354     .a.0.a.@.a.p.a.T
806122a8:	80611368 8061137c 80610730 80611390     .a.h.a.|.a.0.a..
806122b8:	806113a4 806113b8 806113cc 80610630     .a...a...a...a.0
806122c8:	80610644 806105bc 806105cc 806105e0     .a.D.a...a...a..
806122d8:	806113e0 806113f8 80611410 80611424     .a...a...a...a.$
806122e8:	80611438 80611450 80611464 80611478     .a.8.a.P.a.d.a.x
806122f8:	80610514 80610500 806107e4 80610808     .a...a...a...a..
80612308:	806107f4 806107d4 80610528 8061053c     .a...a...a.(.a.<
80612318:	80611488 806114a0 806114b8 806104ec     .a...a...a...a..
80612328:	806114c8 806105f8 80610604 8061045c     .a...a...a...a.\
80612338:	8061046c 8061047c 80610514 806114d4     .a.l.a.|.a...a..
80612348:	80610a24 80610a38 806114e8 806114fc     .a.$.a.8.a...a..
80612358:	8061048c 80611514 80611524 8061065c     .a...a...a.$.a.\
80612368:	80610670 80610680 80611538 80611554     .a.p.a...a.8.a.T
80612378:	80611564 80611574 8060d8d8 80611584     .a.d.a.t.`...a..
80612388:	8061159c 806115ac 806106a4 806106b4     .a...a...a...a..
80612398:	806115c0 80610578 80610584 80610590     .a...a.x.a...a..
806123a8:	806115cc 806107ac 806106e4 8061095c     .a...a...a...a.\
806123b8:	80610968 806115dc 806115f0 80610970     .a.h.a...a...a.p
806123c8:	806107d4 8061045c 8061046c 8061047c     .a...a.\.a.l.a.|
806123d8:	8061048c 80610500 806115f8 80611614     .a...a...a...a..
806123e8:	80611634 8061164c 8061166c 8060d8d8     .a.4.a.L.a.l.`..
806123f8:	8060d8d8 8060d8d8 8060d8d8 80611688     .`...`...`...a..
80612408:	806116a0 806116b8 806116d0 806116e8     .a...a...a...a..
80612418:	80611704 8061171c 80610eb8 80611730     .a...a...a...a.0
80612428:	80611740 80610e8c 80610ee0 80611754     .a.@.a...a...a.T
80612438:	80611768 80611780 80611794 806117ac     .a.h.a...a...a..
80612448:	806117c4 806117dc 806117f4 8061180c     .a...a...a...a..
80612458:	80611824 80610dac 80610dc0 80610ddc     .a.$.a...a...a..
80612468:	80611368 8061137c 8061183c 80611854     .a.h.a.|.a.<.a.T
80612478:	8061186c 80611884 8061189c 806118b4     .a.l.a...a...a..
80612488:	806118cc 806118e4 806118fc 80611910     .a...a...a...a..
80612498:	80611928 80611940 80611958 80611970     .a.(.a.@.a.X.a.p
806124a8:	80611988 806119a0 806119bc 806119d8     .a...a...a...a..
806124b8:	806119f4 80611a10 80611a2c 80611a48     .a...a...a.,.a.H
806124c8:	80611a64 80611a80 80611a9c 80611ab4     .a.d.a...a...a..
806124d8:	80611acc 80611ae4 80611afc 80611b14     .a...a...a...a..
806124e8:	80611b2c 80611b44 80611b5c 80611b74     .a.,.a.D.a.\.a.t
806124f8:	80611b8c 00000000                       .a......

80612500 <CSWTCH.20>:
80612500:	80612930 806128b0 80612830 806127b0     .a)0.a(..a(0.a'.
80612510:	80612730 806126b0                       .a'0.a&.

80612518 <CSWTCH.19>:
80612518:	80612970 806128f0 80612870 806127f0     .a)p.a(..a(p.a'.
80612528:	80612770 806126f0                       .a'p.a&.

80612530 <CSWTCH.14>:
80612530:	02020000 00000000 00050000 00000000     ................
80612540:	00000002 02020000 00000202 02020202     ................
	...
80612558:	00000002 02020002 02020002 03010000     ................
80612568:	00020202 00000000 00000000 02000000     ................
80612578:	02000400 00000000 00020200 00000000     ................
80612588:	02000000 00000000 00000200 00000002     ................
	...
806125a0:	02020202 02020202 02020202 02020202     ................
806125b0:	02020202 02020202 00000000 00000202     ................
806125c0:	02020200 00000000 02020000 00000000     ................
806125d0:	00000202 00000000 00000000 00000000     ................
806125e0:	00000002 02020202 02020202 02020202     ................
806125f0:	02020202 02020002 04040303 03030101     ................
80612600:	01010505 05050500                       ........

80612608 <CSWTCH.12>:
80612608:	02020200 02020202 02020202 00000000     ................
80612618:	02020202 02020202 02000202 02020202     ................
80612628:	02020202 02000002 02020202 02020202     ................
80612638:	02020202 02020202 00000001 00000300     ................
80612648:	00020200 00000000 00000000 00020202     ................
80612658:	02000002 02020204 02020200 02000000     ................
	...
80612678:	00000002 02020202 00000000 02020202     ................
80612688:	02020202 02020202 02020202 02020202     ................
80612698:	02020202 02020203 03030303 03030303     ................
806126a8:	01010101 01010000                       ........

806126b0 <kListFairySide>:
806126b0:	fd100000 09006800 f5100000 07054150     ......h.......AP
806126c0:	e6000000 00000000 f3000000 073ff100     .............?..
806126d0:	e7000000 00000000 f5101000 00054150     ..............AP
806126e0:	f2000000 0007c07c df000000 00000000     .......|........

806126f0 <kListFairyFront>:
806126f0:	fd100000 09005800 f5100000 07058150     ......X........P
80612700:	e6000000 00000000 f3000000 077ff100     ................
80612710:	e7000000 00000000 f5101000 00058150     ...............P
80612720:	f2000000 0007c0fc df000000 00000000     ................

80612730 <kListSpiderSide>:
80612730:	fd100000 09005000 f5100000 07054150     ......P.......AP
80612740:	e6000000 00000000 f3000000 073ff100     .............?..
80612750:	e7000000 00000000 f5101000 00054150     ..............AP
80612760:	f2000000 0007c07c df000000 00000000     .......|........

80612770 <kListSpiderFront>:
80612770:	fd100000 09004000 f5100000 07058150     ......@........P
80612780:	e6000000 00000000 f3000000 077ff100     ................
80612790:	e7000000 00000000 f5101000 00058150     ...............P
806127a0:	f2000000 0007c0fc df000000 00000000     ................

806127b0 <kListKeySide>:
806127b0:	fd100000 09003800 f5100000 07054150     ......8.......AP
806127c0:	e6000000 00000000 f3000000 073ff100     .............?..
806127d0:	e7000000 00000000 f5101000 00054150     ..............AP
806127e0:	f2000000 0007c07c df000000 00000000     .......|........

806127f0 <kListKeyFront>:
806127f0:	fd100000 09002800 f5100000 07058150     ......(........P
80612800:	e6000000 00000000 f3000000 077ff100     ................
80612810:	e7000000 00000000 f5101000 00058150     ...............P
80612820:	f2000000 0007c0fc df000000 00000000     ................

80612830 <kListMajorSide>:
80612830:	fd100000 09002000 f5100000 07054150     ...... .......AP
80612840:	e6000000 00000000 f3000000 073ff100     .............?..
80612850:	e7000000 00000000 f5101000 00054150     ..............AP
80612860:	f2000000 0007c07c df000000 00000000     .......|........

80612870 <kListMajorFront>:
80612870:	fd100000 09001000 f5100000 07058150     ...............P
80612880:	e6000000 00000000 f3000000 077ff100     ................
80612890:	e7000000 00000000 f5101000 00058150     ...............P
806128a0:	f2000000 0007c0fc df000000 00000000     ................

806128b0 <kListBossKeySide>:
806128b0:	fd100000 06002f98 f5100000 07054150     ....../.......AP
806128c0:	e6000000 00000000 f3000000 073ff100     .............?..
806128d0:	e7000000 00000000 f5101000 00054150     ..............AP
806128e0:	f2000000 0007c07c df000000 00000000     .......|........

806128f0 <kListBossKeyFront>:
806128f0:	fd100000 06003798 f5100000 07058150     ......7........P
80612900:	e6000000 00000000 f3000000 077ff100     ................
80612910:	e7000000 00000000 f5101000 00058150     ...............P
80612920:	f2000000 0007c0fc df000000 00000000     ................

80612930 <kListNormalSide>:
80612930:	fd100000 06002798 f5100000 07054150     ......'.......AP
80612940:	e6000000 00000000 f3000000 073ff100     .............?..
80612950:	e7000000 00000000 f5101000 00054150     ..............AP
80612960:	f2000000 0007c07c df000000 00000000     .......|........

80612970 <kListNormalFront>:
80612970:	fd100000 06001798 f5100000 07058150     ...............P
80612980:	e6000000 00000000 f3000000 077ff100     ................
80612990:	e7000000 00000000 f5101000 00058150     ...............P
806129a0:	f2000000 0007c0fc df000000 00000000     ................
806129b0:	42200000                                B ..

806129b4 <kMaxRupees>:
806129b4:	006300c8 01f40000                       .c......

806129bc <kMaxSeeds>:
806129bc:	001e2832                                ..(2

806129c0 <kMaxArrows>:
806129c0:	001e2832                                ..(2

806129c4 <kMaxBombs>:
806129c4:	00141e28                                ...(

806129c8 <kMaxNuts>:
806129c8:	00141e28                                ...(

806129cc <kMaxSticks>:
806129cc:	000a141e                                ....

806129d0 <kPrimColors.0>:
806129d0:	d2b8c8ff f0f6c2ff e1ebfdff fefee7ff     ................
806129e0:	f1e5d9ff                                ....

806129e4 <kEnvColors.1>:
806129e4:	ba5084ff 45852bff 7f65ccff c2c164ff     .P..E.+..e....d.
806129f4:	bc702dff                                .p-.

806129f8 <kMatrixScale.2>:
806129f8:	3d8f5c29 00000000 00000000 00000000     =.\)............
80612a08:	00000000 3d8f5c29 00000000 00000000     ....=.\)........
	...
80612a20:	3d8f5c29 00000000 00000000 00000000     =.\)............
80612a30:	00000000 3f800000                       ....?...

80612a38 <kMatrixRot.3>:
80612a38:	bf3504f3 bf3504f3 00000000 00000000     .5...5..........
80612a48:	3f3504f3 bf3504f3 00000000 00000000     ?5...5..........
	...
80612a60:	3f800000 00000000 00000000 00000000     ?...............
80612a70:	00000000 3f800000                       ....?...

80612a78 <kEnvColors.4>:
80612a78:	00ff00ff ff0064ff 320096ff              ......d.2...

80612a84 <kPrimColors.5>:
80612a84:	ffffa0ff ffaaffff 32ffffff              ........2...

80612a90 <kMatrixRot.6>:
80612a90:	3f800000 00000000 00000000 00000000     ?...............
	...
80612aa8:	3f800000 00000000 00000000 bf800000     ?...............
	...
80612acc:	3f800000                                ?...

80612ad0 <kMatrixScale.7>:
80612ad0:	3cf5c28f 00000000 00000000 00000000     <...............
80612ae0:	00000000 3cf5c28f 00000000 00000000     ....<...........
	...
80612af8:	3cf5c28f 00000000 00000000 00000000     <...............
80612b08:	00000000 3f800000                       ....?...

80612b10 <kEnvColors.8>:
80612b10:	0000ffc0 ff0000c0 ffff00c0              ............

80612b1c <kPrimColors.9>:
80612b1c:	00ffffc0 ff00ffc0 ff0000c0              ............

80612b28 <colors.10>:
80612b28:	a0ffffff 0064ffff ff0064ff 640032ff     .....d....d.d.2.
80612b38:	ffff00ff cccc00ff ffffffff ffffffff     ................

80612b48 <kColors.11>:
80612b48:	8000ffff 0000ffff 00ff00ff ffff00ff     ................
80612b58:	ff8000ff ff0000ff                       ........

80612b60 <kShaders>:
80612b60:	800582c0 06000670 06000750 00000000     .......p...P....
	...
80612b84:	80058228 06000800 00000000 00000000     ...(............
	...
80612ba8:	80058008 060000e0 00000000 00000000     ................
	...
80612bcc:	800582c0 06000ca0 06000f08 00000000     ................
	...
80612bf0:	80057b34 06000960 06000c50 00000000     ..{4...`...P....
	...
80612c14:	80057a80 06000370 06000e40 00000000     ..z....p...@....
	...
80612c38:	80057a80 060001b0 06000c30 00000000     ..z........0....
	...
80612c5c:	80057a80 06000330 06000e00 00000000     ..z....0........
	...
80612c80:	80057a80 06000380 06000e40 00000000     ..z........@....
	...
80612ca4:	80057a80 060002d0 06000d60 00000000     ..z........`....
	...
80612cc8:	80057a80 060004d0 06000f80 00000000     ..z.............
	...
80612cec:	8060b2b4 06000e90 00000000 00000000     .`..............
	...
80612d10:	8060adf4 00000000 06001290 06001470     .`.............p
	...
80612d34:	8060adf4 00000000 06001290 06001590     .`..............
	...
80612d58:	800587e8 06000990 060008d0 06000930     ...............0
80612d68:	06000a80 00000000 00000000 00000000     ................
80612d78:	00000000 800587e8 06000990 060008f0     ................
80612d88:	06000950 06000a80 00000000 00000000     ...P............
	...
80612da0:	800587e8 06000990 06000910 06000970     ...............p
80612db0:	06000a80 00000000 00000000 00000000     ................
80612dc0:	00000000 800587e8 06000b90 06000ad0     ................
80612dd0:	06000b30 06000d98 00000000 00000000     ...0............
	...
80612de8:	800587e8 06000b90 06000af0 06000b50     ...............P
80612df8:	06000d98 00000000 00000000 00000000     ................
80612e08:	00000000 800587e8 06000b90 06000b10     ................
80612e18:	06000b70 06000d98 00000000 00000000     ...p............
	...
80612e30:	8060b1a4 060004d0 00000000 00000000     .`..............
	...
80612e54:	80058228 060003c0 00000000 00000000     ...(............
	...
80612e78:	80058228 06000a50 00000000 00000000     ...(...P........
	...
80612e9c:	80058228 06000580 00000000 00000000     ...(............
	...
80612ec0:	80058228 06000ee0 00000000 00000000     ...(............
	...
80612ee4:	80058228 060009a0 00000000 00000000     ...(............
	...
80612f08:	80058228 06000b70 00000000 00000000     ...(...p........
	...
80612f2c:	80058dd8 06001850 06001750 06001790     .......P...P....
80612f3c:	060019a0 060017b0 06001a28 060017d0     ...........(....
80612f4c:	06001ad8 80058dd8 06001850 06001770     ...........P...p
80612f5c:	060017f0 060019a0 06001810 06001a28     ...............(
80612f6c:	06001830 06001ad8 80058228 06000f60     ...0.......(...`
	...
80612f98:	80058228 06000340 00000000 00000000     ...(...@........
	...
80612fbc:	80058228 06000b90 00000000 00000000     ...(............
	...
80612fe0:	80058228 06001830 00000000 00000000     ...(...0........
	...
80613004:	80057104 060004b0 00000000 00000000     ..q.............
	...
80613028:	80057a80 06000fd0 06001008 00000000     ..z.............
	...
8061304c:	80058b34 06000aa0 06000a20 06000a60     ...4....... ...`
8061305c:	06000cc8 00000000 00000000 00000000     ................
8061306c:	00000000 80058b34 06000aa0 06000a40     .......4.......@
8061307c:	06000a80 06000cc8 00000000 00000000     ................
	...
80613094:	80058228 06000c70 00000000 00000000     ...(...p........
	...
806130b8:	80058228 06000750 00000000 00000000     ...(...P........
	...
806130dc:	80058228 06001240 00000000 00000000     ...(...@........
	...
80613100:	800582c0 060008c0 06000af8 00000000     ................
	...
80613124:	800582c0 06001060 06001288 00000000     .......`........
	...
80613148:	800582c0 06000ac0 06000d50 00000000     ...........P....
	...
8061316c:	80058228 060007e0 00000000 00000000     ...(............
	...
80613190:	80058228 06000940 00000000 00000000     ...(...@........
	...
806131b4:	80058228 06000a30 00000000 00000000     ...(...0........
	...
806131d8:	80058228 06000990 00000000 00000000     ...(............
	...
806131fc:	800582c0 06000d80 06001010 00000000     ................
	...
80613220:	80057c2c 06001438 06001270 060012d0     ..|,...8...p....
80613230:	06001790 06001330 06001848 00000000     .......0...H....
80613240:	00000000 80057c2c 06001438 06001290     ......|,...8....
80613250:	060012f0 06001790 06001388 06001848     ...............H
	...
80613268:	80057c2c 06001438 060012b0 06001310     ..|,...8........
80613278:	06001790 060013e0 06001848 00000000     ...........H....
80613288:	00000000 800577a8 06000fb0 060011c8     ......w.........
	...
806132b0:	800582c0 06000cc0 06000d60 00000000     ...........`....
	...
806132d4:	800587e8 06001560 060014e0 06001520     .......`....... 
806132e4:	06001608 00000000 00000000 00000000     ................
806132f4:	00000000 800587e8 06001560 06001500     ...........`....
80613304:	06001540 06001608 00000000 00000000     ...@............
	...
8061331c:	80058228 06000580 00000000 00000000     ...(............
	...
80613340:	80058120 06000600 00000000 00000000     ... ............
	...
80613364:	80058228 060007e0 00000000 00000000     ...(............
	...
80613388:	80058228 060009d0 00000000 00000000     ...(............
	...
806133ac:	80057dec 06000600 00000000 00000000     ..}.............
	...
806133d0:	80058470 06001630 060015f0 06001948     ...p...0.......H
	...
806133f4:	800582c0 060008e0 06000ae0 00000000     ................
	...
80613418:	800582c0 060008e0 06000b58 00000000     ...........X....
	...
8061343c:	800582c0 06001630 06001a98 00000000     .......0........
	...
80613460:	80058228 06000810 00000000 00000000     ...(............
	...
80613484:	800588cc 06001540 060014c0 06001860     .......@.......`
80613494:	06001500 00000000 00000000 00000000     ................
806134a4:	00000000 800588cc 06001540 060014e0     ...........@....
806134b4:	06001860 06001520 00000000 00000000     ...`... ........
	...
806134cc:	80058228 060009d0 00000000 00000000     ...(............
	...
806134f0:	800582c0 06000bc0 06000e58 00000000     ...........X....
	...
80613514:	800582c0 060013d0 060016b0 00000000     ................
	...
80613538:	800582c0 06000680 06000768 00000000     ...........h....
	...
8061355c:	80058228 060008b0 00000000 00000000     ...(............
	...
80613580:	80058228 060009d0 00000000 00000000     ...(............
	...
806135a4:	800582c0 06000f00 06001188 00000000     ................
	...
806135c8:	80057dec 060006e0 00000000 00000000     ..}.............
	...
806135ec:	800582c0 060009c0 06000af0 00000000     ................
	...
80613610:	80058228 06000960 00000000 00000000     ...(...`........
	...
80613634:	8005719c 06000440 00000000 00000000     ..q....@........
	...
80613658:	800582c0 06000d60 06001060 00000000     .......`...`....
	...
8061367c:	80057104 060014f8 00000000 00000000     ..q.............
	...
806136a0:	80057104 06001398 00000000 00000000     ..q.............
	...
806136c4:	80057104 060010e8 00000000 00000000     ..q.............
	...
806136e8:	80058470 06001630 06001610 06001948     ...p...0.......H
	...
8061370c:	80058228 06001850 00000000 00000000     ...(...P........
	...
80613730:	80058584 06000ae0 06000ca0 06000d00     ................
	...
80613754:	80058584 06000ae0 06000cc0 06000d00     ................
	...
80613778:	80058584 06000ae0 06000ce0 06000d00     ................
	...
8061379c:	8060b650 06000330 06000438 ffd86eff     .`.P...0...8..n.
806137ac:	ffd86eff 00000000 00000000 00000000     ..n.............
806137bc:	00000000 80058698 06000920 060009e0     ........... ....
806137cc:	06000a40 00000000 00000000 00000000     ...@............
	...
806137e4:	80058698 06000920 06000a00 06000a40     ....... .......@
	...
80613808:	80058698 06000920 06000a20 06000a40     ....... ... ...@
	...
8061382c:	80057238 06000c60 06000f08 00000000     ..r8...`........
	...
80613850:	800582c0 06000830 06000b20 00000000     .......0... ....
	...
80613874:	800573dc 06000990 06000be0 06000cf0     ..s.............
80613884:	06000950 00000000 00000000 00000000     ...P............
80613894:	00000000 800575d0 06000bd0 06000db8     ......u.........
806138a4:	06000ef0 00000000 00000000 00000000     ................
	...
806138bc:	80058c94 06000b70 06000af0 06000f48     .......p.......H
806138cc:	06000b30 06000ff0 00000000 00000000     ...0............
806138dc:	00000000 800589f8 060005e0 060004a0     ................
806138ec:	060006f0 06000540 00000000 00000000     .......@........
	...
80613904:	800589f8 060005e0 060004c0 060006f0     ................
80613914:	06000560 00000000 00000000 00000000     ...`............
80613924:	00000000 800589f8 060005e0 060004e0     ................
80613934:	060006f0 06000580 00000000 00000000     ................
	...
8061394c:	800573dc 06000990 06000be0 06000cf0     ..s.............
8061395c:	06000970 00000000 00000000 00000000     ...p............
8061396c:	00000000 800588cc 060005e0 06000500     ................
8061397c:	060006f0 060005a0 00000000 00000000     ................
	...
80613994:	800588cc 060005e0 06000520 060006f0     ........... ....
806139a4:	060005c0 00000000 00000000 00000000     ................
806139b4:	00000000 80058c94 06000b70 06000b10     ...........p....
806139c4:	06000f48 06000b50 06000ff0 00000000     ...H...P........
	...
806139dc:	80058228 06000960 00000000 00000000     ...(...`........
	...
80613a00:	80057918 06004db0 06004eb8 00000000     ..y...M...N.....
	...
80613a24:	8060b7c8 060011a0 00000000 00000000     .`..............
	...
80613a48:	8060b918 00000000 06000b50 06001290     .`.........P....
	...
80613a6c:	8060b918 00000001 06000620 06000920     .`......... ... 
	...
80613a90:	8060b918 00000002 06000b00 060012f0     .`..............
	...
80613ab4:	8060adf4 00000001 06001290 06001470     .`.............p
	...
80613ad8:	8060559c 06000fd8 06000fd0 00000000     .`U.............
	...
80613afc:	800582c0 060006a0 060005a0 00000000     ................
	...
80613b20:	800582c0 06000b78 060006c0 00000000     .......x........
	...
80613b44:	800582c0 06000e48 06000a10 00000000     .......H........
	...
80613b68:	8060559c 06001048 06001040 00000000     .`U....H...@....
	...
80613b8c:	800582c0 06000c00 06000b50 00000000     ...........P....
	...
80613bb0:	8060559c 06000808 06000800 00000000     .`U.............
	...
80613bd4:	800582c0 06000968 060006f0 00000000     .......h........
	...
80613bf8:	800582c0 06001438 06001040 00000000     .......8...@....
	...
80613c1c:	800582c0 06000d28 060009f0 00000000     .......(........
	...
80613c40:	8060559c 06000e48 06000a10 00000000     .`U....H........
	...
80613c64:	8060559c 060006e8 060006e0 00000000     .`U.............
	...
80613c88:	8060559c 06000c80 06000f40 00000000     .`U........@....
	...
80613cac:	800582c0 06000bf8 06000770 00000000     ...........p....
	...
80613cd0:	800582c0 06000948 06000820 00000000     .......H... ....
	...
80613cf4:	800582c0 06000df0 06000c00 00000000     ................
	...
80613d18:	800582c0 06000aa8 06000830 00000000     ...........0....
	...
80613d3c:	800ef4d4 06000b10 060008b8 060007f0     ................
80613d4c:	060007b0 00000000 00000000 00000000     ................
80613d5c:	00000000 8060559c 06000918 06000880     .....`U.........
	...
80613d84:	8060559c 06000fa0 06000cf0 00000000     .`U.............
	...
80613da8:	8060559c 06000a08 06000990 00000000     .`U.............
	...
80613dcc:	8060559c 06000a08 060009b8 00000000     .`U.............
	...
80613df0:	800588cc 06000620 06000540 06000730     ....... ...@...0
80613e00:	06000600 00000000 00000000 00000000     ................
80613e10:	00000000 8060559c 06000a08 060009e0     .....`U.........
	...
80613e38:	800582c0 060010d0 06000ba0 00000000     ................
	...
80613e5c:	8060559c 06000c10 060007d0 00000000     .`U.............
	...
80613e80:	800589f8 06000620 060004a0 06000730     ....... .......0
80613e90:	06000560 00000000 00000000 00000000     ...`............
80613ea0:	00000000 800589f8 06000620 060004c0     ........... ....
80613eb0:	06000730 06000580 00000000 00000000     ...0............
	...
80613ec8:	800589f8 06000620 060004e0 06000730     ....... .......0
80613ed8:	060005a0 00000000 00000000 00000000     ................
80613ee8:	00000000 800588cc 06000620 06000500     ........... ....
80613ef8:	06000730 060005c0 00000000 00000000     ...0............
	...
80613f10:	800588cc 06000620 06000520 06000730     ....... ... ...0
80613f20:	060005e0 00000000 00000000 00000000     ................
80613f30:	00000000 8060559c 06000998 06000850     .....`U........P
	...
80613f58:	800582c0 06000cc0 060009b0 00000000     ................
	...
80613f7c:	800582c0 06001010 06000cf0 00000000     ................
	...
80613fa0:	80605648 06000d78 06000c80 00000000     .`VH...x........
	...
80613fc4:	8060559c 06000a08 06000968 00000000     .`U........h....
	...
80613fe8:	800582c0 06000f20 06000b50 00000000     ....... ...P....
	...
8061400c:	800efd44 06000690 06000690 00000000     ...D............
	...
80614030:	800582c0 06000da0 06000bc0 00000000     ................
	...
80614054:	8060559c 06000888 06000880 00000000     .`U.............
	...
80614078:	800582c0 06000d18 060009a0 00000000     ................
	...
8061409c:	800582c0 06000fb8 06000c90 00000000     ................
	...
806140c0:	800582c0 06000d30 060007f0 00000000     .......0........
	...
806140e4:	800ef364 06000f08 06000b20 06000a90     ...d....... ....
806140f4:	06000a50 00000000 00000000 00000000     ...P............
80614104:	00000000 800efd44 06003ad0 06003ad0     .......D..:...:.
	...
8061412c:	800efd44 06001d80 06001d80 00000000     ...D............
	...
80614150:	800efd44 06005020 06005020 00000000     ...D..P ..P ....
	...
80614174:	8060559c 06000c08 06000c00 00000000     .`U.............
	...
80614198:	8060559c 060009e8 060009e0 00000000     .`U.............
	...
806141bc:	800582c0 06000ad8 06000940 00000000     ...........@....
	...
806141e0:	800582c0 060008f0 060007a0 00000000     ................
	...
80614204:	800582c0 06001000 06000ed0 00000000     ................
	...
80614228:	800582c0 06000f58 06000b30 00000000     .......X...0....
	...
8061424c:	800582c0 06000c20 060007d0 00000000     ....... ........
	...
80614270:	800582c0 060005f0 060004a0 00000000     ................
	...
80614294:	800582c0 06000c78 06000750 00000000     .......x...P....
	...
806142b8:	800582c0 06000958 06000640 00000000     .......X...@....
	...
806142dc:	800582c0 06000b60 06000a30 00000000     .......`...0....
	...
80614300:	800582c0 06000608 06000570 00000000     ...........p....
	...
80614324:	8060559c 06000c00 060008c0 00000000     .`U.............
	...
80614348:	800582c0 06000e90 06000a50 00000000     ...........P....
	...
8061436c:	800582c0 06000ec8 06000bc0 00000000     ................
	...
80614390:	8060559c 06000b90 060009b0 00000000     .`U.............
	...
806143b4:	8060b434 060018d0 00000000 00000000     .`.4............
	...
806143d8:	8060b434 06004c50 00000000 00000000     .`.4..LP........
	...
806143fc:	8060b434 06002c80 00000000 00000000     .`.4..,.........
	...
80614420:	8060b434 06003df0 00000000 00000000     .`.4..=.........
	...
80614444:	8060ad54 06000440 00000000 00000000     .`.T...@........
	...
80614468:	8060af1c 06000ae0 00000000 00000000     .`..............
	...
8061448c:	8060af1c 06000ae0 00000001 00000000     .`..............
	...
806144b0:	8060af1c 06000ae0 00000002 00000000     .`..............
	...
806144d4:	8060af1c 06000ae0 00000003 00000000     .`..............
	...
806144f8:	8060af1c 06000ae0 00000004 00000000     .`..............
	...
8061451c:	8060af1c 06000ae0 00000005 00000000     .`..............
	...
80614540:	8060af1c 06000ae0 00000010 00000000     .`..............
	...
80614564:	8060af1c 06000ae0 00000011 00000000     .`..............
	...
80614588:	8060af1c 06000ae0 00000012 00000000     .`..............
	...
806145ac:	8060af1c 06000ae0 00000013 00000000     .`..............
	...
806145d0:	8060af1c 06000ae0 00000014 00000000     .`..............
	...
806145f4:	8060af1c 06000ae0 00000015 00000000     .`..............
	...
80614618:	8060b1a4 060004d0 00000001 00000000     .`..............
	...
8061463c:	8060b1a4 060004d0 00000002 00000000     .`..............
	...
80614660:	8060b2b4 06000e90 00000001 00000000     .`..............
	...
80614684:	8060b2b4 06000e90 00000002 00000000     .`..............
	...
806146a8:	8060b514 06000998 06000850 00000000     .`.........P....
	...
806146cc:	8060b6a0 00000000 00000000 00000000     .`..............
	...
806146f0:	8060b650 06000330 06000438 82ff80ff     .`.P...0...8....
80614700:	82ff80ff 00000000 00000000 00000000     ................
80614710:	00000000 8060b650 06000330 06000438     .....`.P...0...8
80614720:	7d83ffff 7d83ffff 00000000 00000000     }...}...........
	...
80614738:	8060b6a0 00000001 00000000 00000000     .`..............
	...
8061475c:	8060b6a0 00000002 00000000 00000000     .`..............
	...
80614780:	8060b6a0 00000003 00000000 00000000     .`..............
	...
806147a4:	8060b6a0 00000004 00000000 00000000     .`..............
	...
806147c8:	8060b6a0 00000005 00000000 00000000     .`..............
	...

80614f60 <kNutStickEnvColors>:
80614f60:	280a00ff 505050ff aaaa00ff              (...PPP.....

80614f6c <kNutStickPrimColors>:
80614f6c:	a06428ff ffffffff ffffbbff 3e490fdb     .d(.........>I..
80614f7c:	4055a0d8 c1700000 c1f00000 3bb43958     @U...p......;.9X
80614f8c:	3c1930be 40400000 40a00000 40e00000     <.0.@@..@...@...
80614f9c:	00000000 41f00000 00000000 54686579     ....A.......They
80614fac:	20736179 20746861 74200000 20697320      say that .. is 
80614fbc:	6f6e2074 68652005 46576179 206f6620     on the .FWay of 
80614fcc:	74686520 4865726f 00000000 706c756e     the Hero....plun
80614fdc:	64657269 6e672000 20697320 61200545     dering . is a .E
80614fec:	666f6f6c 69736820 63686f69 63650000     foolish choice..
80614ffc:	20676976 65732000 2063616e 20626520      gives . can be 
8061500c:	666f756e 64200000 2e020000 54484557     found ......THEW
8061501c:	204f524c 44204953 53512055 41524500      ORLD ISSQ UARE.
8061502c:	53574954 43482074 61726765 74696e67     SWITCH targeting
8061503c:	20697320 74686520 73757065 72696f72      is the superior
8061504c:	206f7074 696f6e00 67657474 696e6720      option.getting 
8061505c:	31303020 636f696e 73206769 76657320     100 coins gives 
8061506c:	796f7520 61207374 61720000 74686520     you a star..the 
8061507c:	6d61696e 20636861 72616374 65722069     main character i
8061508c:	73206e6f 74206163 7475616c 6c792063     s not actually c
8061509c:	616c6c65 64205a65 6c646100 6e6f7468     alled Zelda.noth
806150ac:	696e6720 69732066 6f726576 65720000     ing is forever..

806150bc <kJunkHints>:
806150bc:	80615018 8061502c 80615054 80615078     .aP..aP,.aPT.aPx
806150cc:	806150a8                                .aP.

806150d0 <kExtendedGetItemsTable>:
806150d0:	8e591a08 00ce8c0c 0c0800bb 09802208     .Y............".
806150e0:	00d90380 2f0800e9 06802d08 00e70e80     ..../.....-.....
806150f0:	2e0800e8 000d1508 00c70a80 270800dd     ............'...
80615100:	0b802808 00dd0f80 300800ea 23803508     ..(.....0...#.5.
80615110:	00ef0880 290800de 11803b08 00f62f80     ....).....;.../.
80615120:	53080109 14800108 00c61580 320800eb     S...........2...
80615130:	16803108 00eb1780 330800eb 18805f08     ..1.....3....._.
80615140:	01778280 2a0800df 1b803e08 010b1080     .w..*.....>.....
80615150:	380800f3 25804408 01362680 2c080135     8...%.D..6&.,..5
80615160:	22803d08 01092480 2b080134 27804508     ".=...$.+..4'.E.
80615170:	01372b80 46080138 2d802308 00da2e80     .7+.F..8-.#.....
80615180:	3d080109 30804908 01413180 48080140     =...0.I..A1.H..@
80615190:	32803a08 00f53380 4b080143 34804c08     2.:...3.K..C4.L.
806151a0:	01463580 4f080149 36804708 013f3780     .F5.O..I6.G..?7.
806151b0:	4a080142 3b806808 018d3d80 3c0800f8     J..B;.h...=.<...
806151c0:	3ea01708 00cb3fa0 260800dc 40803408     >.....?.&...@.4.
806151d0:	00ee42a0 360800f2 43a03708 00f24580     ..B.6...C.7...E.
806151e0:	40080118 46805408 01574b80 100800be     @...F.T..WK.....
806151f0:	4c801108 00be4d80 120800bf 4e801308     L.....M.....N...
80615200:	00bf4f80 140800bf 51804208 012d5280     ..O.....Q.B..-R.
80615210:	4308012d 53802408 00db5480 250800db     C..-S.$...T.%...
80615220:	6f801b08 00c87080 1e0800d7 07803f08     o.....p.......?.
80615230:	010e5850 41080119 72800d08 00bd7a80     ..XPA...r.....z.
80615240:	0e0800bd 74800408 00b97580 050800b8     ....t.....u.....
80615250:	76801608 00c87780 020800aa 786f1808     v.....w.....xo..
80615260:	00cd796e 190800cd 56801c08 00d15780     ..yn....V.....W.
80615270:	1d0800d1 21802308 00da8380 030800b7     ....!.#.........
80615280:	92481f08 00d89349 200800d8 944a2108     .H.....I ....J!.
80615290:	00d88400 6108017f 85016208 017f8602     ....a.....b.....
806152a0:	6308017f 72800d08 00bd1a80 2a0800df     c...r.......*...
806152b0:	28805008 01502980 51080151 2a805208     (.P..P).Q..Q*.R.
806152c0:	01525080 4d080147 87146508 017f8813     .RP.M..G..e.....
806152d0:	6608017f 3d803c08 00f80480 55080158     f...=.<.....U..X
806152e0:	0c805608 01581280 57080158 71805808     ..V..X..W..Xq.X.
806152f0:	015c0580 5908015d 0d805a08 015d1380     .\..Y..]..Z..]..
80615300:	5b08015d 47806008 017b4880 6008017b     [..]G.`..{H.`..{
80615310:	8a0d1508 00c78b0d 150800c7 8c0c0c08     ................
80615320:	00bb8d0c 0c0800bb 02591a08 00ce8f59     .........Y.....Y
80615330:	1a0800ce 90591a08 00ce9159 1a0800ce     .....Y.....Y....
80615340:	95504108 01199680 220800d9 97802208     .PA.....".....".
80615350:	00d91980 390800f4 1d805d08 01741c80     ....9.....]..t..
80615360:	5c080173 20805e08 01761e80 64080176     \..s .^..v..d..v
80615370:	77800208 00aa8400 6108017f 85016208     w.......a.....b.
80615380:	017f8602 6308017f 87146508 017f7a80     ....c.....e...z.
80615390:	0e0800bd 9880bf08 00c79980 c00800c7     ................
806153a0:	9a80c108 00bb9b80 c20800bb 49806708     ............I.g.
806153b0:	017bff00 00080000 ff000008 0000ff00     .{..............
806153c0:	00080000 ff000008 0000f080 bb0800b6     ................
806153d0:	f080be08 00b6f080 ba0800b6 f080bd08     ................
806153e0:	00b6f080 b90800b6 f080bc08 00b6f080     ................
806153f0:	b80800b6 f080b708 00b6f080 b50800b6     ................
80615400:	f080b608 00b6f080 b40800b6 f080b308     ................
80615410:	00b6f080 6a082004 f0806b08 2005f080     ....j. ...k. ...
80615420:	6c082006 f0806d08 2007f080 06082008     l. ...m. ..... .
80615430:	f0800708 2009f080 0808200a f0800908     .... ..... .....
80615440:	200bf080 0a08200c f0800b08 200df080      ..... ..... ...
80615450:	180800cd f0801908 00cdf080 6e0800bd     ............n...
80615460:	f0a01708 00cbf0a0 260800dc f0800208     ........&.......
80615470:	00aaf080 020800aa f0800208 00aaf080     ................
80615480:	020800aa f0800208 00aaf080 020800aa     ................
80615490:	f0800208 00aaf080 020800aa f0800208     ................
806154a0:	00aaf080 040800b9 f0800408 00b9f080     ................
806154b0:	040800b9 f0800408 00b9f080 040800b9     ................
806154c0:	f0800408 00b9f080 160800c8 f0801608     ................
806154d0:	00c8f080 160800c8 f0801608 00c8f080     ................
806154e0:	160800c8 f0801608 00c8f080 160800c8     ................
806154f0:	f0801608 00c8f080 160800c8 f0801608     ................
80615500:	00c8f080 050800b8 f0800508 00b8f080     ................
80615510:	050800b8 f0800508 00b8f080 050800b8     ................
80615520:	f0800508 00b8f080 050800b8 f0800508     ................
80615530:	00b8f080 050800b8 f0800508 00b80000     ................
	...
806156d0:	84008908 113f8501 8a08113f 86028b08     .....?.....?....
806156e0:	113f8702 8b08113f 88148c08 113f8914     .?.....?.....?..
806156f0:	8d08113f 8a138508 113f5aa0 1c0810a8     ...?.....?Z.....
80615700:	5ba01d08 10a88380 03081090 83a00308     [...............
80615710:	10907ba0 0e081096 6fa00d08 1096796f     ..{.....o.....yo
80615720:	180810a4 7a6e1908 10a48380 03081090     ....zn..........
80615730:	7780c408 10008380 03081090 83800308     w...............
80615740:	10900659 1a0810a5 8f591a08 10a59059     ...Y.....Y.....Y
80615750:	1a0810a5 91591a08 10a59259 1a0810a5     .....Y.....Y....
80615760:	080d1508 109f98c0 220810b0 56a01208     ........"...V...
80615770:	109857a0 13081098 58a01408 10989348     ..W.....X......H
80615780:	1f0810af 94492008 10af954a 210810af     .....I ....J!...
80615790:	954a2108 10af01a0 7b0810bf 54a01008     .J!.....{...T...
806157a0:	109755a0 11081097 02a05508 112103a0     ..U.......U..!..
806157b0:	56081121 04a05708 1121090c 0c081094     V..!..W..!......
806157c0:	8d0c0c08 10948e0c 0c081094 9da00c08     ................
806157d0:	10949da0 0c081094 9ea00c08 109497c0     ................
806157e0:	220810b0 9ba01508 109f9ba0 1508109f     "...............
806157f0:	9ca01508 109f51a0 780810b3 52a07c08     ......Q.x...R.|.
80615800:	10c30c80 950811ca 0a803808 10c699c0     ..........8.....
80615810:	220810b0 4da08e08 11484ea0 9e0811f9     "...M....HN.....
80615820:	4fa09f08 11fa9ac0 220810b0 10a0a008     O.......".......
80615830:	11fb78a0 02081086 74a00408 109276a0     ..x.....t.....v.
80615840:	160810a0 75a00508 1091ff00 00081000     ....u...........
80615850:	0fa07908 10b40ea0 300810c0 0da0ac08     ..y.....0.......
80615860:	12280d00 00081000 83800308 1090ff00     .(..............
80615870:	00081000 ff000008 1000ff00 00081000     ................
80615880:	ff000008 1000ff00 00081000 ff000008     ................
80615890:	100000a0 290810b5 ff000008 1000ff00     ....)...........
806158a0:	00081000 ff000008 10006d80 71081253     ..........m.q..S
806158b0:	ffa01b08 10a06e80 58081125 ff000008     ......n.X..%....
806158c0:	1000ff00 00081000 5d809408 10005e80     ........].....^.
806158d0:	9b081000 5f809c08 10006080 9d081000     ...._.....`.....
806158e0:	11808f08 11961280 0108109e 13803208     ..............2.
806158f0:	10c11480 310810c1 15803308 10c11680     ....1.....3.....
80615900:	80081272 16800108 109e1880 2a0810b6     ...r........*...
80615910:	19802a08 10b61a80 390810c7 1b805d08     ..*.....9.....].
80615920:	11371c00 00081000 12800108 109e1e80     .7..............
80615930:	64081139 1f000008 10002000 00081000     d..9...... .....
80615940:	21809008 11ae2280 970811e9 2380a708     !.....".....#...
80615950:	121dff00 00081000 12800108 109e2480     ..............$.
80615960:	970811e9 2580ab08 12271280 0108109e     ....%....'......
80615970:	ff000008 1000ff00 00081000 ff000008     ................
80615980:	1000ff00 00081000 ff000008 1000ff00     ................
80615990:	00081000 ff000008 100032a0 930811bd     ..........2.....
806159a0:	33a08708 111934a0 8808111a 35a0ad08     3.....4.....5...
806159b0:	124244a0 82081102 49a0aa08 122638a0     .BD.....I....&8.
806159c0:	76081265 39a04508 11033aa0 2b081100     v..e9.E...:.+...
806159d0:	3ba0a108 12093ca0 a808121f 3da07408     ;.....<.....=.t.
806159e0:	12593ea0 a9081225 3fa07008 128240a0     .Y>....%?.p...@.
806159f0:	a208120a 41a0a308 120b42a0 77081266     ....A.....B.w..f
80615a00:	43a06f08 127d36a0 46081104 45a07208     C.o..}6.F...E.r.
80615a10:	125446a0 7508125a 47a07f08 126d48a0     .TF.u..ZG....mH.
80615a20:	8108127e 37a07308 1258ff00 00081000     ...~7.s..X......
80615a30:	9f80ab08 1227a080 2a0810b6 a1809608     .....'..*.......
80615a40:	11e8a280 990811ef a3809a08 11f02880     ..............(.
80615a50:	910811b1 29809208 11b22a80 830811b2     ....).....*.....
80615a60:	2b808408 11b22c80 860811b2 10a0a008     +.....,.........
80615a70:	11fb4da0 8e081148 4ea09e08 11f94fa0     ..M....HN.....O.
80615a80:	9f0811fa 51a07808 10b32d80 a408120f     ....Q.x...-.....
80615a90:	2e807d08 1245ff00 00081000 ff000008     ..}..E..........
80615aa0:	1000ff80 2b081100 ff000008 1000ff00     ....+...........
80615ab0:	00081000 ff000008 1000ff00 00081000     ................
80615ac0:	12800108 109e2f80 a5081210 3080a608     ....../.....0...
80615ad0:	1215ff00 00081000 ff000008 1000ff00     ................
80615ae0:	00081000 ff000008 1000ff00 00081000     ................
80615af0:	ff000008 1000ff00 00081000 ff807e08     ..............~.
80615b00:	126b31a0 7a08124d 31a07a08 124d31a0     .k1.z..M1.z..M1.
80615b10:	7a08124d 31a07a08 124d31a0 7a08124d     z..M1.z..M1.z..M
80615b20:	31a07a08 124dff00 00081000 f0a01808     1.z..M..........
80615b30:	10a4f0a0 190810a4 f0a06e08 1096f0a0     ..........n.....
80615b40:	c3081148 f0a0bb08 108ff0a0 be08108f     ...H............
80615b50:	f0a0ba08 108ff0a0 bd08108f f0a0b908     ................
80615b60:	108ff0a0 b408108f f0a0b508 108ff0a0     ................
80615b70:	b708108f f0a0b808 108ff0a0 b308108f     ................
80615b80:	f0a0be08 108ff0a0 ae082000 f0a0af08     .......... .....
80615b90:	2001f0a0 b0082002 f0a0b108 2003f0a0      ..... ..... ...
80615ba0:	b2081113 f0a07808 10b3f080 c5081125     ......x........%
80615bb0:	f080c608 1125f0a0 02081086 f0a00208     .....%..........
80615bc0:	1086f0a0 02081086 f0a00208 1086f0a0     ................
80615bd0:	04081092 f0a00408 1092f0a0 04081092     ................
80615be0:	f0a00408 1092f080 c7081000 f080c808     ................
80615bf0:	1000f080 c9081000 f080ca08 1000f080     ................
80615c00:	cb081000 f0a01608 10a0f0a0 160810a0     ................
80615c10:	f0a01608 10a0f0a0 160810a0 f0a00508     ................
80615c20:	1091f0a0 05081091 f0a00508 1091f0a0     ................
80615c30:	05081091 8060c570 8060c578 8060c4d4     .....`.p.`.x.`..
80615c40:	8060c590 8060c584                       .`...`..

80615c48 <kDpadOffY>:
80615c48:	00000001 ffffffff 00000000 00000000     ................

80615c58 <kDpadOffX>:
	...
80615c60:	ffffffff 00000001 42960000 43898000     ........B...C...
80615c70:	3ecccccd 3fc00000 8060cc80 8060cc18     >...?....`...`..
80615c80:	8060cb84 8060cb84 8060ccd8 8060cb84     .`...`...`...`..
80615c90:	8060cb84 8060cb84 8060cb84 8060cd4c     .`...`...`...`.L
80615ca0:	8060cd4c 8060cd10 8060cd10 8060cd10     .`.L.`...`...`..
80615cb0:	8060cde8 8060cde8 8060ce14 8060ce14     .`...`...`...`..
80615cc0:	8060cb84 8060cb84 8060cbcc 8060cb84     .`...`...`...`..
80615cd0:	8060cb84 8060cb84 8060cb84 8060cb84     .`...`...`...`..
80615ce0:	8060cb84 8060cb84 8060cb84 8060cb84     .`...`...`...`..
80615cf0:	8060ce2c 8060ce2c 8060d0dc 8060d1d8     .`.,.`.,.`...`..
80615d00:	8060d1e0 8060d0b0 8060d1e8 8060d100     .`...`...`...`..
80615d10:	8060d11c 8060d124 8060d12c 8060d158     .`...`.$.`.,.`.X
80615d20:	8060d184 8060d1b0                       .`...`..

80615d28 <sDoorWarp1Actor>:
80615d28:	00000000                                ....

80615d2c <gMmMag>:
80615d2c:	00000000                                ....

80615d30 <sInMessage.0>:
80615d30:	00000000                                ....

80615d34 <lagFrame.0>:
80615d34:	00000000                                ....

80615d38 <sInMessage.0>:
80615d38:	00000000                                ....

80615d3c <sIsSmallChest>:
80615d3c:	00000000                                ....

80615d40 <isKeysMenu>:
	...

80615d50 <gStartingItemsBuffer>:
	...

80615dd0 <kComboDmaData>:
	...

80621e30 <delay.0>:
80621e30:	00000000                                ....

80621e34 <menuCursor>:
80621e34:	00000000                                ....

80621e38 <gVtxBufferIndex>:
	...

80621e40 <gVtxBuffer>:
	...

80625e40 <gComboCtx>:
	...

80625e60 <kCustomObjectsTable>:
	...

80625ed8 <gCustomKeep>:
80625ed8:	00000000                                ....

80625edc <sObjectsTTL>:
	...

80625efc <sObjectsAddr>:
	...

80625f3c <sObjectsIds>:
	...

80625f60 <gComboData>:
	...

80625fc0 <gHints>:
	...

806261c0 <sFlashVersion>:
806261c0:	00000000                                ....

806261c4 <sFlashInitialized>:
806261c4:	00000000                                ....

806261c8 <sFlashId>:
	...

806261d0 <sFlashHandle>:
	...

80626248 <sFlashMesg>:
	...

80626250 <sFlashIoMesg>:
	...

80626268 <sFlashQueue>:
	...

80626280 <gComboOverrides>:
	...

80626a80 <sDpadIconBuffer>:
	...

80626a90 <gMmSave>:
	...

8062a730 <gLastEntrance>:
8062a730:	00000000                                ....

8062a734 <gIsEntranceOverride>:
	...

8062a740 <gEntrances>:
	...

Disassembly of section .patch:

80800000 <kPatch0-0x398>:
80800000:	00000001 	0x1
80800004:	80056e80 	lb	a1,28288(zero)
80800008:	00000004 	sllv	zero,zero,zero
8080000c:	24020001 	li	v0,1
80800010:	00000001 	0x1
80800014:	80056ef0 	lb	a1,28400(zero)
80800018:	00000004 	sllv	zero,zero,zero
8080001c:	24020001 	li	v0,1
80800020:	00000001 	0x1
80800024:	80056de4 	lb	a1,28132(zero)
80800028:	00000004 	sllv	zero,zero,zero
8080002c:	24020001 	li	v0,1
80800030:	00000001 	0x1
80800034:	80056e4c 	lb	a1,28236(zero)
80800038:	00000004 	sllv	zero,zero,zero
8080003c:	24020001 	li	v0,1
80800040:	00000001 	0x1
80800044:	80056f3c 	lb	a1,28476(zero)
80800048:	00000004 	sllv	zero,zero,zero
8080004c:	24020001 	li	v0,1
80800050:	00000001 	0x1
80800054:	800efd04 	lb	t6,-764(zero)
80800058:	00000002 	srl	zero,zero,0x0
8080005c:	0fff0000 	jal	8ffc0000 <Player_AddItemWithIcon+0xf783a70>
80800060:	00000001 	0x1
80800064:	800efd0c 	lb	t6,-756(zero)
80800068:	00000002 	srl	zero,zero,0x0
8080006c:	0fff0000 	jal	8ffc0000 <Player_AddItemWithIcon+0xf783a70>
80800070:	00000001 	0x1
80800074:	800efd14 	lb	t6,-748(zero)
80800078:	00000002 	srl	zero,zero,0x0
8080007c:	0fff0000 	jal	8ffc0000 <Player_AddItemWithIcon+0xf783a70>
80800080:	00000001 	0x1
80800084:	800efd1c 	lb	t6,-740(zero)
80800088:	00000002 	srl	zero,zero,0x0
8080008c:	0fff0000 	jal	8ffc0000 <Player_AddItemWithIcon+0xf783a70>
80800090:	00000001 	0x1
80800094:	800efd24 	lb	t6,-732(zero)
80800098:	00000002 	srl	zero,zero,0x0
8080009c:	0fff0000 	jal	8ffc0000 <Player_AddItemWithIcon+0xf783a70>
808000a0:	00000001 	0x1
808000a4:	800efd2c 	lb	t6,-724(zero)
808000a8:	00000002 	srl	zero,zero,0x0
808000ac:	0fff0000 	jal	8ffc0000 <Player_AddItemWithIcon+0xf783a70>
808000b0:	00000001 	0x1
808000b4:	800efd34 	lb	t6,-716(zero)
808000b8:	00000002 	srl	zero,zero,0x0
808000bc:	0fff0000 	jal	8ffc0000 <Player_AddItemWithIcon+0xf783a70>
808000c0:	00000001 	0x1
808000c4:	800efd3c 	lb	t6,-708(zero)
808000c8:	00000002 	srl	zero,zero,0x0
808000cc:	0fff0000 	jal	8ffc0000 <Player_AddItemWithIcon+0xf783a70>
808000d0:	00000001 	0x1
808000d4:	800efd6c 	lb	t6,-660(zero)
808000d8:	00000002 	srl	zero,zero,0x0
808000dc:	0fff0000 	jal	8ffc0000 <Player_AddItemWithIcon+0xf783a70>
808000e0:	00000001 	0x1
808000e4:	800efd74 	lb	t6,-652(zero)
808000e8:	00000002 	srl	zero,zero,0x0
808000ec:	0fff0000 	jal	8ffc0000 <Player_AddItemWithIcon+0xf783a70>
808000f0:	00000001 	0x1
808000f4:	800efd7c 	lb	t6,-644(zero)
808000f8:	00000002 	srl	zero,zero,0x0
808000fc:	0fff0000 	jal	8ffc0000 <Player_AddItemWithIcon+0xf783a70>
80800100:	00000001 	0x1
80800104:	800efd84 	lb	t6,-636(zero)
80800108:	00000002 	srl	zero,zero,0x0
8080010c:	0fff0000 	jal	8ffc0000 <Player_AddItemWithIcon+0xf783a70>
80800110:	00000001 	0x1
80800114:	800efd8c 	lb	t6,-628(zero)
80800118:	00000002 	srl	zero,zero,0x0
8080011c:	0fff0000 	jal	8ffc0000 <Player_AddItemWithIcon+0xf783a70>
80800120:	00000001 	0x1
80800124:	800efd94 	lb	t6,-620(zero)
80800128:	00000002 	srl	zero,zero,0x0
8080012c:	0fff0000 	jal	8ffc0000 <Player_AddItemWithIcon+0xf783a70>
80800130:	00000001 	0x1
80800134:	800efd9c 	lb	t6,-612(zero)
80800138:	00000002 	srl	zero,zero,0x0
8080013c:	0fff0000 	jal	8ffc0000 <Player_AddItemWithIcon+0xf783a70>
80800140:	00000001 	0x1
80800144:	800efda4 	lb	t6,-604(zero)
80800148:	00000002 	srl	zero,zero,0x0
8080014c:	0fff0000 	jal	8ffc0000 <Player_AddItemWithIcon+0xf783a70>
80800150:	00000001 	0x1
80800154:	800efdac 	lb	t6,-596(zero)
80800158:	00000002 	srl	zero,zero,0x0
8080015c:	0fff0000 	jal	8ffc0000 <Player_AddItemWithIcon+0xf783a70>
80800160:	00000001 	0x1
80800164:	800efdb4 	lb	t6,-588(zero)
80800168:	00000002 	srl	zero,zero,0x0
8080016c:	0fff0000 	jal	8ffc0000 <Player_AddItemWithIcon+0xf783a70>
80800170:	00000001 	0x1
80800174:	800efdf4 	lb	t6,-524(zero)
80800178:	00000002 	srl	zero,zero,0x0
8080017c:	0fff0000 	jal	8ffc0000 <Player_AddItemWithIcon+0xf783a70>
80800180:	00000001 	0x1
80800184:	800efdfc 	lb	t6,-516(zero)
80800188:	00000002 	srl	zero,zero,0x0
8080018c:	0fff0000 	jal	8ffc0000 <Player_AddItemWithIcon+0xf783a70>
80800190:	00000001 	0x1
80800194:	800efe04 	lb	t6,-508(zero)
80800198:	00000002 	srl	zero,zero,0x0
8080019c:	0fff0000 	jal	8ffc0000 <Player_AddItemWithIcon+0xf783a70>
808001a0:	00000003 	sra	zero,zero,0x0
808001a4:	80612b60 	lb	at,11104(v1)
808001a8:	000000a0 	0xa0
808001ac:	800570e0 	lb	a1,28896(zero)
808001b0:	800570e8 	lb	a1,28904(zero)
808001b4:	80057290 	lb	a1,29328(zero)
808001b8:	800572a4 	lb	a1,29348(zero)
808001bc:	80057438 	lb	a1,29752(zero)
808001c0:	8005744c 	lb	a1,29772(zero)
808001c4:	80057628 	lb	a1,30248(zero)
808001c8:	8005763c 	lb	a1,30268(zero)
808001cc:	8005787c 	lb	a1,30844(zero)
808001d0:	80057890 	lb	a1,30864(zero)
808001d4:	80057970 	lb	a1,31088(zero)
808001d8:	80057984 	lb	a1,31108(zero)
808001dc:	80057ae0 	lb	a1,31456(zero)
808001e0:	80057ae4 	lb	a1,31460(zero)
808001e4:	80057b94 	lb	a1,31636(zero)
808001e8:	80057ba8 	lb	a1,31656(zero)
808001ec:	80057cf0 	lb	a1,31984(zero)
808001f0:	80057cf4 	lb	a1,31988(zero)
808001f4:	8005831c 	lb	a1,-31972(zero)
808001f8:	80058330 	lb	a1,-31952(zero)
808001fc:	8005841c 	lb	a1,-31716(zero)
80800200:	80058420 	lb	a1,-31712(zero)
80800204:	800584cc 	lb	a1,-31540(zero)
80800208:	800584d0 	lb	a1,-31536(zero)
8080020c:	800585e0 	lb	a1,-31264(zero)
80800210:	800585f4 	lb	a1,-31244(zero)
80800214:	80058778 	lb	a1,-30856(zero)
80800218:	8005877c 	lb	a1,-30852(zero)
8080021c:	80058848 	lb	a1,-30648(zero)
80800220:	8005884c 	lb	a1,-30644(zero)
80800224:	80058928 	lb	a1,-30424(zero)
80800228:	8005892c 	lb	a1,-30420(zero)
8080022c:	80058a68 	lb	a1,-30104(zero)
80800230:	80058a6c 	lb	a1,-30100(zero)
80800234:	80058c0c 	lb	a1,-29684(zero)
80800238:	80058c10 	lb	a1,-29680(zero)
8080023c:	80058cf0 	lb	a1,-29456(zero)
80800240:	80058cf4 	lb	a1,-29452(zero)
80800244:	80058e38 	lb	a1,-29128(zero)
80800248:	80058e3c 	lb	a1,-29124(zero)
8080024c:	00000000 	nop
80800250:	00000003 	sra	zero,zero,0x0
80800254:	80612b64 	lb	at,11108(v1)
80800258:	00000038 	dsll	zero,zero,0x0
8080025c:	80057164 	lb	a1,29028(zero)
80800260:	80057188 	lb	a1,29064(zero)
80800264:	80057200 	lb	a1,29184(zero)
80800268:	80057224 	lb	a1,29220(zero)
8080026c:	80057eb8 	lb	a1,32440(zero)
80800270:	80057edc 	lb	a1,32476(zero)
80800274:	80057fcc 	lb	a1,32716(zero)
80800278:	80057ff0 	lb	a1,32752(zero)
8080027c:	800580e4 	lb	a1,-32540(zero)
80800280:	80058108 	lb	a1,-32504(zero)
80800284:	800581ec 	lb	a1,-32276(zero)
80800288:	80058210 	lb	a1,-32240(zero)
8080028c:	80058288 	lb	a1,-32120(zero)
80800290:	800582ac 	lb	a1,-32084(zero)
80800294:	00000000 	nop
80800298:	00000002 	srl	zero,zero,0x0
8080029c:	00100000 	sll	zero,s0,0x0
808002a0:	0000005c 	0x5c
808002a4:	80022cd0 	lb	v0,11472(zero)
808002a8:	80830450 	lb	v1,1104(a0)
808002ac:	808312e8 	lb	v1,4840(a0)
808002b0:	80831944 	lb	v1,6468(a0)
808002b4:	80838584 	lb	v1,-31356(a0)
808002b8:	808385b8 	lb	v1,-31304(a0)
808002bc:	8083c64c 	lb	v1,-14772(a0)
808002c0:	8083c6b4 	lb	v1,-14668(a0)
808002c4:	8083c7b4 	lb	v1,-14412(a0)
808002c8:	8083c880 	lb	v1,-14208(a0)
808002cc:	8083d9ec 	lb	v1,-9748(a0)
808002d0:	808439e8 	lb	a0,14824(a0)
808002d4:	8084562c 	lb	a0,22060(a0)
808002d8:	80845630 	lb	a0,22064(a0)
808002dc:	8084563c 	lb	a0,22076(a0)
808002e0:	80845820 	lb	a0,22560(a0)
808002e4:	808458a8 	lb	a0,22696(a0)
808002e8:	8084c04c 	lb	a0,-16308(a0)
808002ec:	8084c0cc 	lb	a0,-16180(a0)
808002f0:	8084c13c 	lb	a0,-16068(a0)
808002f4:	8084c234 	lb	a0,-15820(a0)
808002f8:	8084c29c 	lb	a0,-15716(a0)
808002fc:	8084c8a8 	lb	a0,-14168(a0)
80800300:	00000002 	srl	zero,zero,0x0
80800304:	00080001 	0x80001
80800308:	00000040 	ssnop
8080030c:	8007b438 	lb	a3,-19400(zero)
80800310:	8007b44c 	lb	a3,-19380(zero)
80800314:	8007bdfc 	lb	a3,-16900(zero)
80800318:	8007be18 	lb	a3,-16872(zero)
8080031c:	8007bed0 	lb	a3,-16688(zero)
80800320:	8007bf04 	lb	a3,-16636(zero)
80800324:	8007bf04 	lb	a3,-16636(zero)
80800328:	8007bf80 	lb	a3,-16512(zero)
8080032c:	80831318 	lb	v1,4888(a0)
80800330:	8083131c 	lb	v1,4892(a0)
80800334:	80848b88 	lb	a0,-29816(a0)
80800338:	8084c040 	lb	a0,-16320(a0)
8080033c:	8084d26c 	lb	a0,-11668(a0)
80800340:	8084d2d0 	lb	a0,-11568(a0)
80800344:	8084d2dc 	lb	a0,-11556(a0)
80800348:	8084d360 	lb	a0,-11424(a0)
8080034c:	00000000 	nop
80800350:	00000001 	0x1
80800354:	8084c11c 	lb	a0,-16100(a0)
80800358:	00000004 	sllv	zero,zero,zero
8080035c:	afa30024 	sw	v1,36(sp)
80800360:	00000001 	0x1
80800364:	8084c128 	lb	a0,-16088(a0)
80800368:	00000004 	sllv	zero,zero,zero
8080036c:	8fa50024 	lw	a1,36(sp)
80800370:	00000001 	0x1
80800374:	8084c130 	lb	a0,-16080(a0)
80800378:	00000008 	jr	zero
8080037c:	0c182ac3 	jal	8060ab0c <comboAddItem>
80800380:	00000000 	nop
80800384:	00000000 	nop
80800388:	00000001 	0x1
8080038c:	8007181c 	lb	a3,6172(zero)
80800390:	00000004 	sllv	zero,zero,zero
80800394:	240f0fff 	li	t7,4095

80800398 <kPatch0>:
80800398:	00000008 808b86f4 80600000 00000000     .........`......
808003a8:	00000001 8090735c 00000008 0c180146     ......s\.......F
	...
808003c0:	00000001 80908180 00000008 0818014c     ...............L
	...
808003d8:	00000001 80906784 00000004 240c0001     ......g.....$...
808003e8:	00000001 809066f4 00000004 240d0001     ......f.....$...

808003f8 <kPatch0>:
808003f8:	00000006 809056e8 806005e4 00000000     ......V..`......

80800408 <kPatch1>:
80800408:	00000006 80a2b8b8 80600858 00000000     .........`.X....

80800418 <kPatch0>:
80800418:	00000006 80a2b7c0 8060080c 00000000     .........`......

80800428 <kPatch1>:
80800428:	00000006 80909620 80600df0 00000000     ....... .`......

80800438 <kPatch0>:
80800438:	00000008 80909518 80600d84 00000000     .........`......
80800448:	00000001 80a2b8f0 00000004 24050028     ............$..(
80800458:	00000001 800e85a4 00000004 8060d320     .............`. 

80800468 <kPatch5>:
80800468:	00000006 80a5e5b8 80600e40 00000000     .........`.@....

80800478 <kPatch4>:
80800478:	00000006 80a5e610 80600f80 00000000     .........`......

80800488 <kPatch3>:
80800488:	00000008 80a5e2cc 80600fcc 00000000     .........`......

80800498 <kPatch2>:
80800498:	00000008 80a5e230 80600fcc 00000000     .......0.`......

808004a8 <kPatch1>:
808004a8:	00000008 80a5e268 80600f00 00000000     .......h.`......

808004b8 <kPatch0>:
808004b8:	00000008 80a5e1cc 80600f00 00000000     .........`......

808004c8 <kPatch5>:
808004c8:	00000008 80a757e4 8060118c 00000000     ......W..`......

808004d8 <kPatch4>:
808004d8:	00000008 80a757c4 8060118c 00000000     ......W..`......

808004e8 <kPatch3>:
808004e8:	00000008 80a757a8 8060118c 00000000     ......W..`......

808004f8 <kPatch2>:
808004f8:	00000008 80a75750 8060118c 00000000     ......WP.`......

80800508 <kPatch1>:
80800508:	00000008 80a75734 8060118c 00000000     ......W4.`......

80800518 <kPatch0>:
80800518:	00000008 80a75510 8060108c 00000000     ......U..`......

80800528 <kPatch0>:
80800528:	00000006 80ac2d5c 80601270 00000000     ......-\.`.p....

80800538 <kPatch0>:
80800538:	00000008 80aab0ec 80601290 00000000     .........`......

80800548 <kPatch0>:
80800548:	00000008 80a8c31c 80601978 00000000     .........`.x....

80800558 <kPatch4>:
80800558:	00000008 80a9fda4 80601af0 00000000     .........`......

80800568 <kPatch3>:
80800568:	00000006 80a9f8dc 80601a14 00000000     .........`......

80800578 <kPatch2>:
80800578:	00000008 80aa006c 80601a48 00000000     .......l.`.H....

80800588 <kPatch1>:
80800588:	00000008 80a9ffd8 80601a48 00000000     .........`.H....

80800598 <kPatch0>:
80800598:	00000008 80aa0030 80601ab4 00000000     .......0.`......
808005a8:	00000001 80a9fbbc 00000004 00000000     ................
808005b8:	00000001 80a9fbe4 00000004 00000000     ................

808005c8 <kPatch0>:
808005c8:	00000008 808696bc 80601bfc 00000000     .........`......

808005d8 <kPatch1>:
808005d8:	00000008 80aa1058 80601d10 00000000     .......X.`......

808005e8 <kPatch0>:
808005e8:	00000008 80aa1104 80601d10 00000000     .........`......
808005f8:	00000001 80926dcc 00000004 00001f06     ......m.........
80800608:	00000001 80926488 00000004 08180f6a     ......d........j
80800618:	00000001 80925e2c 00000004 00000000     ......^,........

80800628 <kPatch0>:
80800628:	00000008 80867c2c 80600000 00000000     ......|,.`......

80800638 <kPatch1>:
80800638:	00000008 80b6b3d4 80601dd4 00000000     .........`......

80800648 <kPatch0>:
80800648:	00000008 80b6b364 80601dd4 00000000     .......d.`......
80800658:	00000001 80aabec4 00000008 00000000     ................
	...
80800670:	00000001 80aabed4 00000004 00000000     ................
80800680:	00000001 80aabee0 00000004 24020000     ............$...
80800690:	00000001 80aabca4 00000008 00000000     ................
	...
808006a8:	00000001 80aabcb4 00000008 00000000     ................
	...
808006c0:	00000001 80105fe0 00000004 80013014     ......_.......0.
808006d0:	00000001 800130d8 00000004 24050002     ......0.....$...
808006e0:	00000001 80013100 00000004 24050016     ......1.....$...
808006f0:	00000001 80013114 00000004 24050025     ......1.....$..%
80800700:	00000001 80013128 00000004 24050036     ......1(....$..6
80800710:	00000001 8001313c 00000004 24050035     ......1<....$..5
80800720:	00000001 80012174 00000004 00000000     ......!t........

80800730 <kPatch1>:
80800730:	00000008 80a7f16c 80601e40 00000000     .......l.`.@....

80800740 <kPatch0>:
80800740:	00000008 80a7f0f0 80601e40 00000000     .........`.@....

80800750 <kPatch0>:
80800750:	00000006 80864910 80601eac 00000000     ......I..`......

80800760 <kPatch1>:
80800760:	00000006 808e3060 80601f9c 00000000     ......0`.`......

80800770 <kPatch0>:
80800770:	00000006 808e30a8 80602218 00000000     ......0..`".....

80800780 <kPatch1>:
80800780:	00000008 80ae6e84 8060224c 00000000     ......n..`"L....

80800790 <kPatch0>:
80800790:	00000008 80ae5138 8060224c 00000000     ......Q8.`"L....

808007a0 <kPatch3>:
808007a0:	00000008 80a90298 806022d4 00000000     .........`".....

808007b0 <kPatch2>:
808007b0:	00000008 80a901d0 806022d4 00000000     .........`".....

808007c0 <kPatch1>:
808007c0:	00000006 80b23e68 806022c0 00000000     ......>h.`".....

808007d0 <kPatch0>:
808007d0:	00000006 80a8f554 806022c0 00000000     .......T.`".....
808007e0:	00000001 808e2d6c 00000004 240e0001     ......-l....$...
808007f0:	00000001 808e3684 00000002 00010000     ......6.........
80800800:	00000001 80ada0ac 00000004 2405000d     ............$...
80800810:	00000001 80ad9744 00000004 240f0019     .......D....$...
80800820:	00000001 80ad97b4 00000004 240c0064     ............$..d
80800830:	00000001 80ad9620 00000004 24080012     ....... ....$...
80800840:	00000001 80ad96f0 00000004 24090021     ............$..!
80800850:	00000001 80ad9880 00000004 240a0060     ............$..`
80800860:	00000001 80ad985c 00000004 240b0061     .......\....$..a
80800870:	00000001 80ad9868 00000004 240c0062     .......h....$..b
80800880:	00000001 80ad9874 00000004 240d0064     .......t....$..d
80800890:	00000001 80ad98d4 00000004 2419005f     ............$.._
808008a0:	00000001 80ada280 00000006 00580059     .............X.Y
808008b0:	005a0000 00000000 00000001 80ad41cc     .Z............A.
808008c0:	00000004 3c0cffff 00000001 80ad3a9c     ....<.........:.
808008d0:	00000004 24020000 00000001 80ad3790     ....$.........7.
808008e0:	00000004 24090002 00000001 80ad3798     ....$.........7.
808008f0:	00000008 00000000 00000000 00000000     ................
80800900:	00000001 80ad37a4 00000004 a60901d8     ......7.........
80800910:	00000001 80ad4430 00000004 00000000     ......D0........

80800920 <kPatch1>:
80800920:	00000008 809baebc 80602368 00000000     .........`#h....

80800930 <kPatch0>:
80800930:	00000008 808fdde4 80602368 00000000     .........`#h....

80800940 <kPatch1>:
80800940:	00000008 80aa0998 806024ac 00000000     .........`$.....

80800950 <kPatch0>:
80800950:	00000008 80aa08dc 806024ac 00000000     .........`$.....
80800960:	00000001 80b4b408 00000004 00000000     ................
80800970:	00000001 80b4b414 00000004 00000000     ................
80800980:	00000001 80b4b194 00000004 02002825     ..............(%
80800990:	00000001 80b4b1ac 00000004 00000000     ................
808009a0:	00000001 80b4b284 00000004 02002825     ..............(%
808009b0:	00000001 80b4b29c 00000004 00000000     ................
808009c0:	00000001 808647dc 00000008 08180949     ......G........I
	...

808009d8 <kPatch4>:
808009d8:	00000006 80aacbd0 80602628 00000000     .........`&(....

808009e8 <kPatch3>:
808009e8:	00000008 80aacd48 80602558 00000000     .......H.`%X....

808009f8 <kPatch2>:
808009f8:	00000008 80aacce8 80602558 00000000     .........`%X....

80800a08 <kPatch1>:
80800a08:	00000008 80aac840 80602558 00000000     .......@.`%X....

80800a18 <kPatch0>:
80800a18:	00000008 80aac7e4 80602558 00000000     .........`%X....
80800a28:	00000001 80aed38c 00000008 0c1809a4     ................
	...
80800a40:	00000001 80aefb14 00000008 081809cd     ................
	...
80800a58:	00000001 80aeef00 00000004 00000000     ................
80800a68:	00000001 80aeef4c 00000004 00000000     .......L........
80800a78:	00000001 80aef000 00000004 00000000     ................
80800a88:	00000001 80aef044 00000004 00000000     .......D........
80800a98:	00000001 80aeecdc 00000004 00000000     ................
80800aa8:	00000001 80aeed78 00000004 00000000     .......x........
80800ab8:	00000001 80aef6e0 00000004 00000000     ................
80800ac8:	00000001 80aef790 00000004 00000000     ................
80800ad8:	00000001 80aef40c 00000004 00000000     ................
80800ae8:	00000001 80aef1cc 00000004 240e0000     ............$...
80800af8:	00000001 80aeec1c 00000004 00000000     ................
80800b08:	00000001 80b4f740 00000004 00000000     .......@........
80800b18:	00000001 80b4f750 00000004 00000000     .......P........
80800b28:	00000001 80b4f764 00000004 00000000     .......d........

80800b38 <kPatch2>:
80800b38:	00000008 80923d7c 80602784 00000000     ......=|.`'.....

80800b48 <kPatch1>:
80800b48:	00000008 80923cd8 80602784 00000000     ......<..`'.....

80800b58 <kPatch0>:
80800b58:	00000008 809223d4 80602744 00000000     ......#..`'D....

80800b68 <kPatch0>:
80800b68:	00000006 80ab1414 806027f0 00000000     .........`'.....

80800b78 <kPatch1>:
80800b78:	00000008 80ad6cc8 806028e0 00000000     ......l..`(.....

80800b88 <kPatch0>:
80800b88:	00000008 80ad6c5c 80602894 00000000     ......l\.`(.....
80800b98:	00000001 80870ea4 00000004 0c180a6b     ...............k

80800ba8 <kPatch5>:
80800ba8:	00000008 80a9eea8 806029c0 00000000     .........`).....

80800bb8 <kPatch4>:
80800bb8:	00000008 80a9edc4 806029c0 00000000     .........`).....

80800bc8 <kPatch3>:
80800bc8:	00000008 80a9ec70 806029c0 00000000     .......p.`).....

80800bd8 <kPatch2>:
80800bd8:	00000008 80a9e9a0 806029c0 00000000     .........`).....

80800be8 <kPatch1>:
80800be8:	00000008 80a9e95c 806029c0 00000000     .......\.`).....

80800bf8 <kPatch0>:
80800bf8:	00000008 80a9eb04 80602ab4 00000000     .........`*.....

80800c08 <kPatch1>:
80800c08:	00000008 80aaf168 80602af0 00000000     .......h.`*.....

80800c18 <kPatch0>:
80800c18:	00000008 80aaf0ec 80602af0 00000000     .........`*.....
80800c28:	00000001 80aad8d0 00000004 31f80004     ............1...
80800c38:	00000001 80aada44 00000004 316c0004     .......D....1l..
80800c48:	00000001 80aad6c0 00000004 0818094d     ...............M
80800c58:	00000001 80aae848 00000004 80aae264     .......H.......d
80800c68:	00000001 80aae850 00000004 80aae24c     .......P.......L
80800c78:	00000001 80aad5fc 00000004 a7c00232     ...............2
80800c88:	00000001 809f0d04 00000004 24020001     ............$...
80800c98:	00000001 809f0ce0 00000004 24020000     ............$...
80800ca8:	00000001 809f0cf4 00000004 314b0004     ............1K..
80800cb8:	00000001 809f0d40 00000004 31f80004     .......@....1...
80800cc8:	00000001 809f0d80 00000004 31090004     ............1...
80800cd8:	00000001 809f11ac 00000004 314b0004     ............1K..
80800ce8:	00000001 809f11f0 00000008 00000000     ................
	...
80800d00:	00000001 809f0a88 00000004 304b0004     ............0K..
80800d10:	00000001 809f0a4c 0000000c 946e0ee0     .......L.....n..
80800d20:	240f0004 00000000 00000001 809f0af4     $...............
80800d30:	00000004 24022043 00000001 809f107c     ....$. C.......|
80800d40:	00000010 8fb80044 3c0b809f 971800a4     .......D<.......
80800d50:	3b19005f 00000000 00000001 809f1094     ;.._............
80800d60:	00000008 94480ee0 24090004 00000000     .....H..$.......
80800d70:	00000001 809f1364 00000008 00000000     .......d........
	...
80800d88:	00000001 809f1384 00000008 00000000     ................
	...
80800da0:	00000001 809f1398 00000004 00000000     ................
80800db0:	00000001 809020c4 00000004 00000000     ...... .........
80800dc0:	00000001 80902080 00000004 3c058090     ...... .....<...
80800dd0:	00000001 8090208c 00000004 24a51f1c     ...... .....$...
80800de0:	00000001 80aaf6f4 00000008 08180ad0     ................
	...
80800df8:	00000001 80ab06a0 00000004 240e0001     ............$...
80800e08:	00000001 80ad0a34 00000004 00000000     .......4........

80800e18 <kPatch0>:
80800e18:	00000008 80b28268 80602b50 00000000     .......h.`+P....

80800e28 <kPatch1>:
80800e28:	00000008 80ad3ea0 80602cc4 00000000     ......>..`,.....

80800e38 <kPatch0>:
80800e38:	00000008 80ad43ec 80602c28 00000000     ......C..`,(....

80800e48 <kPatch0>:
80800e48:	00000008 8095457c 80602d38 00000000     ......E|.`-8....
80800e58:	00000001 809e7260 00000004 24090001     ......r`....$...
80800e68:	00000001 80b6b2ac 00000004 24010064     ............$..d

80800e78 <kPatch1>:
80800e78:	00000008 80b4e854 80602db8 00000000     .......T.`-.....

80800e88 <kPatch0>:
80800e88:	00000008 80b4e7d8 80602db8 00000000     .........`-.....

80800e98 <kPatch0>:
80800e98:	00000006 80aa9ecc 80602ee8 00000000     .........`......

80800ea8 <kPatch0>:
80800ea8:	00000006 80a6ac30 80602f70 00000000     .......0.`/p....
80800eb8:	00000001 80b23494 00000008 08180bf2     ......4.........
	...
80800ed0:	00000001 80ad6454 00000004 240b4012     ......dT....$.@.
80800ee0:	00000001 80ad5e24 00000004 24024012     ......^$....$.@.
80800ef0:	00000001 80ad6d1c 00000004 241900ff     ......m.....$...
80800f00:	00000001 80ad63d8 00000008 240f0002     ......c.....$...
80800f10:	a60f01d0 00000000 00000001 80ad63b0     ..............c.
80800f20:	00000004 240d0034 00000001 80ad5d74     ....$..4......]t
80800f30:	00000004 240f0000 00000001 80ad6408     ....$.........d.
80800f40:	00000004 240a0000 00000001 80ad6ac4     ....$.........j.
80800f50:	00000004 24020001 00000001 80ad71c4     ....$.........q.
80800f60:	00000004 00000000 00000001 80aaf1dc     ................
80800f70:	00000004 00000000                       ........

80800f78 <kPatch1>:
80800f78:	00000008 80aabc6c 80602fd8 00000000     .......l.`/.....

80800f88 <kPatch0>:
80800f88:	00000008 80aabcec 80602fd8 00000000     .........`/.....
80800f98:	00000001 80aa05cc 00000004 28410001     ............(A..
80800fa8:	00000001 80aa0bac 00000014 003c003c     .............<.<
80800fb8:	003c003c 003c003c 003c003c 003c003c     .<.<.<.<.<.<.<.<
80800fc8:	00000001 80ae1a0c 00000004 00000000     ................
80800fd8:	00000001 80b57b68 00000004 240e0000     ......{h....$...
80800fe8:	00000001 80b5a388 00000004 240b0000     ............$...
80800ff8:	00000001 80b5a3a0 00000004 240f0000     ............$...
80801008:	00000001 80b5bcec 00000004 80603c2c     .............`<,
80801018:	00000001 80b5c7d4 00000004 00000000     ................

80801028 <kPatch0>:
80801028:	00000008 80b26d58 80603074 00000000     ......mX.`0t....
80801038:	00000001 80aa0d80 0000000c 00000000     ................
80801048:	00000000 0c18076b 00000001 80aa11b4     .......k........
80801058:	00000008 00000000 00000000 00000000     ................
80801068:	00000001 80aa11c4 00000004 00000000     ................
80801078:	00000001 80aa10a0 00000008 00000000     ................
	...
80801090:	00000001 80aa10b0 00000004 00000000     ................
808010a0:	00000001 80aa10bc 00000004 24020000     ............$...
808010b0:	00000001 80aa0f1c 00000004 00000000     ................
808010c0:	00000001 80aa0f44 00000004 00000000     .......D........

808010d0 <kPatch0>:
808010d0:	00000008 80a7d008 8060315c 00000000     .........`1\....

808010e0 <kPatch3>:
808010e0:	00000008 80a6f860 80603204 00000000     .......`.`2.....

808010f0 <kPatch2>:
808010f0:	00000008 80a6f7dc 80603204 00000000     .........`2.....

80801100 <kPatch1>:
80801100:	00000008 80a6e5e8 80603198 00000000     .........`1.....

80801110 <kPatch0>:
80801110:	00000008 80a6e550 80603198 00000000     .......P.`1.....

80801120 <kPatch2>:
80801120:	00000008 80b4b280 806032f0 00000000     .........`2.....

80801130 <kPatch1>:
80801130:	00000008 80b4b190 806032f0 00000000     .........`2.....

80801140 <kPatch0>:
80801140:	00000008 80b4b3f8 8060333c 00000000     .........`3<....

80801150 <kPatch1>:
80801150:	00000008 809a140c 80603380 00000000     .........`3.....

80801160 <kPatch0>:
80801160:	00000008 809a130c 80603380 00000000     .........`3.....
80801170:	00000001 80953e80 00000004 00000000     ......>.........
80801180:	00000001 80953e8c 00000004 00000000     ......>.........
80801190:	00000001 809544dc 00000004 00000000     ......D.........
808011a0:	00000001 80954424 00000024 3c0a8012     ......D$...$<...
808011b0:	254ab4c4 854a0000 314a0001 240c301f     %J...J..1J..$.0.
	...
808011d0:	00000001 80953680 00000004 24180001     ......6.....$...
808011e0:	00000001 80a6ab78 00000004 24180001     .......x....$...

808011f0 <kPatch0>:
808011f0:	00000006 80b83374 806034ec 00000000     ......3t.`4.....
80801200:	00000001 80aa9548 00000008 00000000     .......H........
	...

80801218 <kPatch1>:
80801218:	00000006 809f1240 8060375c 00000000     .......@.`7\....

80801228 <kPatch0>:
80801228:	00000006 809f1414 8060373c 00000000     .........`7<....
80801238:	00000001 80b28240 00000004 00000000     .......@........
80801248:	00000001 80b28250 00000004 00000000     .......P........

80801258 <kPatch1>:
80801258:	00000006 80013498 806038d8 00000000     ......4..`8.....

80801268 <kPatch0>:
80801268:	00000008 80012e4c 806037f8 00000000     .......L.`7.....
80801278:	00000001 80a7cfc4 00000004 240d0001     ............$...
80801288:	00000001 809a12b8 00000004 24020001     ............$...
80801298:	00000001 808d1528 00000004 24180001     .......(....$...

808012a8 <kPatch3>:
808012a8:	00000006 80b57868 80603b4c 00000000     ......xh.`;L....

808012b8 <kPatch2>:
808012b8:	00000008 80b5ad5c 80603aa4 00000000     .......\.`:.....

808012c8 <kPatch1>:
808012c8:	00000008 80b56ff4 80603aa4 00000000     ......o..`:.....

808012d8 <kPatch0>:
808012d8:	00000006 80b58c8c 80603b84 00000000     .........`;.....
808012e8:	00000001 80a873b0 00000004 00000000     ......s.........
808012f8:	00000001 80a873cc 00000014 3c098012     ......s.....<...
80801308:	2529b4ac 952a0000 354a0800 a52a0000     %)...*..5J...*..
80801318:	00000001 80a873e4 00000004 00000000     ......s.........
80801328:	00000001 80a8747c 00000004 00000000     ......t|........
80801338:	00000001 80a8808c 00000008 00000000     ................
	...

80801350 <kPatch0>:
80801350:	00000008 80b6c3ec 80603ca4 00000000     .........`<.....

80801360 <kPatch1>:
80801360:	00000008 80a27a14 80603d00 00000000     ......z..`=.....

80801370 <kPatch0>:
80801370:	00000008 80a279b0 80603d00 00000000     ......y..`=.....
80801380:	00000001 80a9e6d0 00000004 29c10001     ............)...
80801390:	00000001 80a9e900 00000004 00000000     ................
808013a0:	00000001 80a9e910 00000004 00000000     ................
808013b0:	00000001 80a9ec10 00000008 00000000     ................
	...
808013c8:	00000001 80a9ec20 00000004 00000000     ....... ........
808013d8:	00000001 80a9ec2c 00000004 24020000     .......,....$...
808013e8:	00000001 80a9ed64 00000008 00000000     .......d........
	...
80801400:	00000001 80a9ed74 00000004 00000000     .......t........
80801410:	00000001 80a9ed80 00000004 24020000     ............$...

80801420 <kPatch0>:
80801420:	00000008 80925ff4 80603d84 00000000     ......_..`=.....
80801430:	00000001 809a41a8 00000004 240f0001     ......A.....$...

80801440 <kPatch1>:
80801440:	00000008 80ad89a4 80603dd0 00000000     .........`=.....

80801450 <kPatch0>:
80801450:	00000008 80ad8940 80603dd0 00000000     .......@.`=.....

80801460 <kPatch1>:
80801460:	00000008 80b7f1e8 80603e3c 00000000     .........`><....

80801470 <kPatch0>:
80801470:	00000008 80b7f27c 80603e3c 00000000     .......|.`><....

80801480 <kPatch0>:
80801480:	00000008 8097e120 80603ea8 00000000     ....... .`>.....

80801490 <kPatch0>:
80801490:	00000006 80b4f7e4 80603ed0 00000000     .........`>.....
808014a0:	00000001 80aac7a8 00000004 00000000     ................
808014b0:	00000001 80aac7c4 00000004 00000000     ................
808014c0:	00000001 80aacddc 00000004 24190fff     ............$...
808014d0:	00000001 809c8a1c 00000004 24020001     ............$...
808014e0:	00000001 8097dcd4 00000008 00000000     ................
	...
808014f8:	00000001 8097dce4 00000004 00000000     ................
80801508:	00000001 8097e0f8 00000008 00000000     ................
	...
80801520:	00000001 8097e108 00000004 00000000     ................
80801530:	00000001 8097e1fc 00000004 00000000     ................
80801540:	00000001 80a8c124 00000008 24010004     .......$....$...
80801550:	ac8101d4 00000000 00000001 80a8c154     ...............T
80801560:	00000004 08180fdd 00000001 80a8c37c     ...............|
80801570:	00000004 00000000                       ........

80801578 <kPatch2>:
80801578:	00000008 80ad9eac 80604074 00000000     .........`@t....

80801588 <kPatch1>:
80801588:	00000008 80ad9e10 80604074 00000000     .........`@t....

80801598 <kPatch0>:
80801598:	00000006 80ad9f78 80604028 00000000     .......x.`@(....
808015a8:	00000001 80a6fcf4 00000010 0000003e     ...............>
808015b8:	0000004c 0000004d 0000004e 00000000     ...L...M...N....
808015c8:	00000001 80a6eab0 00000004 00000000     ................

808015d8 <kPatch1>:
808015d8:	00000008 80a873bc 806040c0 00000000     ......s..`@.....

808015e8 <kPatch0>:
808015e8:	00000006 80a87510 8060416c 00000000     ......u..`Al....
808015f8:	00000001 8086a090 00000004 80601c40     .............`.@
80801608:	00000001 8086a09c 00000004 80601ca8     .............`..
80801618:	00000001 8086a26c 00000004 00000000     .......l........
80801628:	00000001 8086a278 00000004 00000000     .......x........
80801638:	00000001 80a90198 00000004 00201025     ............. .%
80801648:	00000001 80a90260 00000004 00201025     .......`..... .%
80801658:	00000001 80a42388 00000004 3c014248     ......#.....<.BH
80801668:	00000001 80a42404 00000004 3c014248     ......$.....<.BH
80801678:	00000001 80a42410 00000004 3c014230     ......$.....<.B0
80801688:	00000001 80a4247c 00000004 3c014230     ......$|....<.B0
80801698:	00000001 80a35160 00000004 24020000     ......Q`....$...

808016a8 <kPatch2>:
808016a8:	00000008 80a427e0 80604204 00000000     ......'..`B.....

808016b8 <kPatch1>:
808016b8:	00000008 80a42644 80604204 00000000     ......&D.`B.....

808016c8 <kPatch0>:
808016c8:	00000008 80a427ac 806042b4 00000000     ......'..`B.....
808016d8:	00000001 80a7647c 00000004 24020001     ......d|....$...
808016e8:	00000001 80b22a80 00000004 0c1810ce     ......*.........
808016f8:	00000001 80b22a94 00000004 24010001     ......*.....$...
80801708:	00000001 80b22a9c 00000004 0040c825     ......*......@.%
80801718:	00000001 80844f7c 00000004 24046008     ......O|....$.`.
80801728:	00000001 80831f64 00000008 0c1810f0     .......d........
	...
80801740:	00000001 80831d8c 00000010 afbf0000     ................
80801750:	0c1810ee 00000000 8fbf0000 00000000     ................
80801760:	00000001 8083c6f0 00000004 240200ff     ............$...
80801770:	00000001 8083c830 00000004 240200ff     .......0....$...
80801780:	00000001 8083c858 00000004 240200ff     .......X....$...
80801790:	00000001 8083c944 00000004 240200ff     .......D....$...
808017a0:	00000001 800fc548 00000004 80604344     .......H.....`CD
808017b0:	00000001 80831f3c 00000004 0c1810fa     .......<........
808017c0:	00000001 808372ac 00000008 0c1810fc     ......r.........
	...
808017d8:	00000001 808a86f8 00000004 24080001     ............$...
808017e8:	00000001 809a6944 00000004 24080001     ......iD....$...
808017f8:	00000001 80b0a7c0 00000004 00000000     ................
80801808:	00000001 80985ac4 00000008 00000000     ......Z.........
	...
80801820:	00000001 809896d8 00000004 2406005d     ............$..]
80801830:	00000001 80985b74 00000004 24180001     ......[t....$...
80801840:	00000001 809f2f3c 00000004 24080001     ....../<....$...
80801850:	00000001 8009da40 00000004 24180517     .......@....$...
80801860:	00000001 809f5320 00000004 240e0517     ......S ....$...
80801870:	00000001 80910b58 00000004 240a0001     .......X....$...
80801880:	00000001 80910b78 00000004 240d0001     .......x....$...

80801890 <kPatch0>:
80801890:	00000008 809f3af4 80604408 00000000     ......:..`D.....
808018a0:	00000001 80a18120 00000004 24080001     ....... ....$...
808018b0:	00000001 80a1841c 00000004 240c0001     ............$...
808018c0:	00000001 80a18c30 00000004 24030001     .......0....$...
808018d0:	00000001 8089e7c8 00000004 24180001     ............$...
808018e0:	00000001 80949d44 00000004 24080001     .......D....$...
808018f0:	00000001 8094a30c 00000004 240f0001     ............$...
80801900:	00000001 809d1f74 00000004 24180001     .......t....$...
80801910:	00000001 809d2040 00000004 24180001     ...... @....$...
80801920:	00000001 809d2128 00000004 240f0001     ......!(....$...

80801930 <kPatch0>:
80801930:	00000008 80930ab0 80604434 00000000     .........`D4....
80801940:	00000001 80930c34 00000004 2404004b     .......4....$..K
80801950:	00000001 80930c3c 00000004 0c00a22d     .......<.......-
80801960:	00000001 80930adc 00000018 00000000     ................
	...
80801988:	00000001 80930af8 00000004 00000000     ................
80801998:	00000001 80930b14 00000008 00000000     ................
	...
808019b0:	00000001 80930b20 00000004 00000000     ....... ........
808019c0:	00000001 8092b420 00000004 240d0006     ....... ....$...
808019d0:	00000001 8092b434 00000004 240e0007     .......4....$...
808019e0:	00000001 8092b448 00000004 240f0005     .......H....$...
808019f0:	00000001 8092b45c 00000004 24180008     .......\....$...
80801a00:	00000001 8092b470 00000004 24190009     .......p....$...
80801a10:	00000001 8092b484 00000004 2408000a     ............$...
80801a20:	00000001 8092b498 00000004 24090056     ............$..V
80801a30:	00000001 80a50144 00000004 3c014080     .......D....<.@.
80801a40:	00000001 80a502e4 00000004 240a0001     ............$...
80801a50:	00000001 80918f7c 00000008 00000000     .......|........
	...
80801a68:	00000001 80a56c40 00000004 3c014080     ......l@....<.@.
80801a78:	00000001 80a56ddc 00000004 240b0001     ......m.....$...
80801a88:	00000001 80afc388 00000008 00000000     ................
	...

80801aa0 <kPatch0>:
80801aa0:	00000006 8091902c 80604528 00000000     .......,.`E(....

80801ab0 <kPatch0>:
80801ab0:	00000008 80913c58 80604678 00000000     ......<X.`Fx....
80801ac0:	00000001 8095a348 00000020 3c0f8012     .......H... <...
80801ad0:	25efa5d0 95ef0ed6 31ef2000 00000000     %.......1. .....
	...
80801ae8:	24012000 00000000 00000001 808ebb1c     $. .............
80801af8:	00000004 240e0001 00000001 808ebb5c     ....$..........\
80801b08:	00000004 240a0001                       ....$...

80801b10 <kPatch0>:
80801b10:	00000006 808eda34 80604794 00000000     .......4.`G.....
80801b20:	00000001 809444b0 00000004 40800000     ......D.....@...
80801b30:	00000001 809437ec 00000004 240b0001     ......7.....$...
80801b40:	00000001 808da4b8 00000004 40800000     ............@...
80801b50:	00000001 808d98d0 00000004 240a0001     ............$...
80801b60:	00000001 80a30700 00000004 28410019     ............(A..
80801b70:	00000001 80a30874 00000004 24180000     .......t....$...
80801b80:	00000001 8092864c 00000004 29e10001     .......L....)...
80801b90:	00000001 80901618 00000004 00000000     ................
80801ba0:	00000001 80a795cc 00000004 0c18118e     ................
80801bb0:	00000001 80a795f8 00000004 00000000     ................
80801bc0:	00000001 80a796d8 00000004 00000000     ................
80801bd0:	00000001 80a33450 00000004 2b010001     ......4P....+...
80801be0:	00000001 80913528 00000008 3c088060     ......5(....<..`
80801bf0:	250846bc 00000000 00000001 809137d0     %.F...........7.
80801c00:	00000004 3c0e8060 00000001 809137d8     ....<..`......7.
80801c10:	00000004 25ce46bc 00000001 80913dbc     ....%.F.......=.
80801c20:	00000008 00000000 00000000 00000000     ................
80801c30:	00000001 80913e04 00000008 00000000     ......>.........
	...
80801c48:	00000001 80aab5bc 00000008 03e00008     ................
	...

80801c60 <kPatch0>:
80801c60:	00000008 800dcc7c 80604948 00000000     .......|.`IH....
80801c70:	00000001 80000b10 00000008 3c068061     ............<..a
80801c80:	24c65dd0 00000000 00000001 800f13e8     $.].............
80801c90:	00000004 80604f24 00000001 8009ac90     .....`O$........
80801ca0:	00000004 3c098060 00000001 8009ac98     ....<..`........
80801cb0:	00000004 252953b0 00000001 80819d94     ....%)S.........
80801cc0:	00000004 00000000 00000001 80819e74     ...............t
80801cd0:	00000004 00000000 00000001 8081a1dc     ................
80801ce0:	00000004 00000000 00000001 8081a180     ................
80801cf0:	00000004 00000000 00000001 8081a268     ...............h
80801d00:	00000008 0c181293 01cf8821 00000000     ...........!....
80801d10:	00000001 8081a2f0 00000008 0c181293     ................
	...
80801d28:	00000001 80818494 00000004 00000000     ................
80801d38:	00000001 808185bc 00000004 00000000     ................
80801d48:	00000001 808187c8 00000004 00000000     ................
80801d58:	00000001 8081871c 00000004 00000000     ................
80801d68:	00000001 80818da4 00000008 0c18129a     ................
	...
80801d80:	00000001 8081f85c 00000008 0c1812a8     .......\........
	...
80801d98:	00000001 8081f86c 00000008 3c1f0003     .......l....<...
80801da8:	37ffc03c 00000000 00000001 8081f8d0     7..<............
80801db8:	00000004 00000000 00000001 8081f8e4     ................
80801dc8:	00000008 00000000 00000000 00000000     ................
80801dd8:	00000001 8081f928 00000004 00000000     .......(........
80801de8:	00000001 8009c5ac 00000004 00000000     ................
80801df8:	00000001 8082f624 00000004 00000000     .......$........
80801e08:	00000001 8082f62c 00000004 00000000     .......,........
80801e18:	00000001 8082f68c 00000004 00000000     ................
80801e28:	00000001 8082f698 00000004 00000000     ................
80801e38:	00000001 808006a0 00000008 0c1812d0     ................
	...

80801e50 <kPatch3>:
80801e50:	00000008 80820ac4 80604cc8 00000000     .........`L.....

80801e60 <kPatch2>:
80801e60:	00000008 808207e4 80604cc8 00000000     .........`L.....

80801e70 <kPatch1>:
80801e70:	00000008 80820b48 80604cbc 00000000     .......H.`L.....

80801e80 <kPatch0>:
80801e80:	00000008 80820850 80604cbc 00000000     .......P.`L.....
80801e90:	00000001 80811ab8 00000008 0c18153d     ...............=
	...
80801ea8:	00000001 808124a8 00000004 0c18151d     ......$.........
80801eb8:	00000001 80811368 00000004 0818152e     .......h........
80801ec8:	00000001 800fbf60 00000004 00000010     .......`........
80801ed8:	00000001 80090c58 00000004 24190000     .......X....$...
80801ee8:	00000001 80090d48 00000004 00000000     .......H........
80801ef8:	00000001 80090d70 00000004 00000000     .......p........
80801f08:	00000001 80090d84 00000004 0c18162a     ...............*
80801f18:	00000001 800060fc 00000004 00000000     ......`.........
80801f28:	00000001 8000610c 00000004 00000000     ......a.........
80801f38:	00000001 80006118 00000004 00000000     ......a.........
80801f48:	00000001 80006124 00000004 00000000     ......a$........
80801f58:	00000001 8000612c 00000004 00000000     ......a,........
80801f68:	00000001 8000618c 00000004 24100001     ......a.....$...
80801f78:	00000007 0000000e 00000708 00000038     ...............8
80801f88:	de000000 0a000000 00000000 00000000     ................
	...
80801fc0:	00000007 0000000e 00000788 00000038     ...............8
80801fd0:	de000000 0b000000 00000000 00000000     ................
	...
80802008:	00000007 0000000e 000007e8 00000038     ...............8
80802018:	de000000 0a000000 00000000 00000000     ................
	...
80802050:	00000007 0000000e 00000840 00000038     ...........@...8
80802060:	de000000 0b000000 00000000 00000000     ................
	...
80802098:	00000007 0000000e 00000b00 00000038     ...............8
808020a8:	de000000 0a000000 00000000 00000000     ................
	...
808020e0:	00000007 0000000e 00000b80 00000038     ...............8
808020f0:	de000000 0b000000 00000000 00000000     ................
	...
80802128:	00000007 0000000e 00000be0 00000038     ...............8
80802138:	de000000 0a000000 00000000 00000000     ................
	...
80802170:	00000007 0000000e 00000c50 00000038     ...........P...8
80802180:	de000000 0b000000 00000000 00000000     ................
	...
808021b8:	00000007 0000000e 000010d8 00000038     ...............8
808021c8:	de000000 0a000000 00000000 00000000     ................
	...
80802200:	00000007 0000000e 00001188 00000038     ...............8
80802210:	de000000 0b000000 00000000 00000000     ................
	...
80802248:	00000007 0000000e 000011f8 00000038     ...............8
80802258:	de000000 0a000000 00000000 00000000     ................
	...
80802290:	00000007 0000000e 00001690 00000038     ...............8
808022a0:	de000000 0b000000 00000000 00000000     ................
	...
808022d8:	00000001 8084c22c 00000004 3401ffff     .......,....4...
808022e8:	00000001 8083c6c0 00000004 3841007e     ............8A.~
808022f8:	00000001 8083c824 00000004 00800825     .......$.......%
80802308:	00000003 806150d0 00000030 808312ec     .....aP....0....
80802318:	808312f0 808392b8 808392c8 8083c6d8     ................
80802328:	8083c6dc 8083c80c 8083c810 8084c0f8     ................
80802338:	8084c0fc 8084d25c 8084d2a4 00000000     .......\........
80802348:	00000005 00000000 00000030 808533f8     ...........0..3.
80802358:	808533fc 80853f80 80853f84 808544ac     ..3...?...?...D.
80802368:	808544b0 808544e0 808544e4 80855c38     ..D...D...D...\8
80802378:	80855c3c 80855d88 80855d8c 00000000     ..\<..]...].....
80802388:	00000001 8083130c 00000004 00000000     ................
80802398:	00000001 8083c938 00000004 240affff     .......8....$...
808023a8:	00000001 800005ac 00000008 0c001980     ................
	...
808023c0:	00000001 80091474 00000008 0818301a     .......t......0.
	...
808023d8:	00000001 800a4330 00000004 3c0f8060     ......C0....<..`
808023e8:	00000001 800a4350 00000004 3c188060     ......CP....<..`
808023f8:	00000001 8006f8bc 00000004 240200ff     ............$...
80802408:	00000001 8006f898 00000004 240e00ff     ............$...
80802418:	00000001 8006f8d8 00000004 a0a2006b     ...............k
80802428:	00000001 8006f888 00000004 240a00ff     ............$...

80802438 <kPatch1>:
80802438:	00000008 8009dacc 8060581c 00000000     .........`X.....

80802448 <kPatch0>:
80802448:	00000008 808048d8 806057e8 00000000     ......H..`W.....
80802458:	00000001 800905d4 00000008 081833d3     ..............3.
	...
80802470:	00000001 800905cc 00000004 08181611     ................
80802480:	00000001 80090480 00000004 24020000     ............$...
80802490:	00000001 80077144 00000004 240c0fff     ......qD....$...
808024a0:	00000001 80090560 00000004 240f0fff     .......`....$...
808024b0:	00000001 800e17cc 00000004 240c0fff     ............$...
808024c0:	00000009 02eb407e 00000002 00ff0000     ......@~........
808024d0:	00000009 0202039d 00000001 20000000     ............ ...
808024e0:	00000009 0202043c 00000001 24000000     .......<....$...
808024f0:	00000009 02ea807e 00000002 01400000     .......~.....@..
80802500:	00000007 000000bd 00001290 00000008     ................
	...
80802518:	00000007 000000bd 000012b0 00000008     ................
	...
80802530:	00000007 000000bd 00001470 00000008     ...........p....
	...
80802548:	00000007 000000bd 00001490 00000008     ................
	...
80802560:	00000007 000000c7 000004e8 00000010     ................
	...
80802580:	00000007 0000015c 00000450 00000010     .......\...P....
	...
808025a0:	00000007 000000bb 00000ea8 00000010     ................
	...
808025c0:	00000007 000000bb 00001150 00000008     ...........P....
808025d0:	de000000 09000000 00000001 80838f6c     ...............l
808025e0:	00000008 081830c0 00000000 00000000     ......0.........
808025f0:	00000001 80006600 0000004c 27bdffe8     ......f....L'...
80802600:	afbf0004 afa40008 afa5000c afa60010     ................
80802610:	3c0411f8 3c058060 3c060003 0c000217     <...<..`<.......
80802620:	00000000 0c18123b 00000000 8fa60010     .......;........
80802630:	8fa5000c 8fa40008 8fbf0004 27bd0018     ............'...
80802640:	0800039b 00000000                       ........
